

Microchip MPLAB XC8 Assembler V2.40 build 20220703182018 
                                                                                               Sat Sep 10 19:13:24 2022

Microchip MPLAB XC8 C Compiler v2.40 (Free license) build 20220703182018 Og1 
     1                           	processor	18F4550
     2                           	fnconf	rparam,??,?,0
     3                           	pagewidth 120
     4                           	opt	flic
     5                           	psect	idataBANK0,global,class=CODE,delta=1,noexec
     6                           	psect	smallconst,global,reloc=2,class=SMALLCONST,delta=1,noexec
     7                           	psect	nvBANK0,global,class=BANK0,space=1,delta=1,lowdata,noexec
     8                           	psect	cinit,global,reloc=2,class=CODE,delta=1
     9                           	psect	bssCOMRAM,global,class=COMRAM,space=1,delta=1,lowdata,noexec
    10                           	psect	bssBANK0,global,class=BANK0,space=1,delta=1,lowdata,noexec
    11                           	psect	dataBANK0,global,class=BANK0,space=1,delta=1,lowdata,noexec
    12                           	psect	bssBANK1,global,class=BANK1,space=1,delta=1,lowdata,noexec
    13                           	psect	cstackBANK0,global,class=BANK0,space=1,delta=1,lowdata,noexec
    14                           	psect	cstackCOMRAM,global,class=COMRAM,space=1,delta=1,lowdata,noexec
    15                           	psect	text0,global,reloc=2,class=CODE,delta=1
    16                           	psect	text1,global,reloc=2,class=CODE,delta=1
    17                           	psect	text2,global,reloc=2,class=CODE,delta=1
    18                           	psect	text3,global,reloc=2,class=CODE,delta=1
    19                           	psect	text4,global,reloc=2,class=CODE,delta=1,group=1
    20                           	psect	text5,global,reloc=2,class=CODE,delta=1,group=1
    21                           	psect	text6,global,reloc=2,class=CODE,delta=1,group=1
    22                           	psect	text7,global,reloc=2,class=CODE,delta=1,group=1
    23                           	psect	text8,global,reloc=2,class=CODE,delta=1,group=1
    24                           	psect	text9,global,reloc=2,class=CODE,delta=1,group=1
    25                           	psect	text10,global,reloc=2,class=CODE,delta=1
    26                           	psect	text11,global,reloc=2,class=CODE,delta=1
    27                           	psect	intcode,global,reloc=2,class=CODE,delta=1
    28                           	psect	intcode_body,global,reloc=2,class=CODE,delta=1
    29                           	psect	intsave_regs,global,class=BIGRAM,space=1,delta=1,noexec
    30                           	psect	rparam,global,class=COMRAM,space=1,delta=1,noexec
    31                           	psect	temp,global,ovrld,common,class=COMRAM,space=1,delta=1
    32                           	psect	idloc,global,abs,ovrld,class=IDLOC,space=5,delta=1,noexec
    33                           	psect	config,global,abs,ovrld,class=CONFIG,space=4,delta=1,noexec
    34   000000                     
    35                           ; Version 2.40
    36                           ; Generated 17/11/2021 GMT
    37                           ; 
    38                           ; Copyright © 2021, Microchip Technology Inc. and its subsidiaries ("Microchip")
    39                           ; All rights reserved.
    40                           ; 
    41                           ; This software is developed by Microchip Technology Inc. and its subsidiaries ("Microch
      +                          ip").
    42                           ; 
    43                           ; Redistribution and use in source and binary forms, with or without modification, are
    44                           ; permitted provided that the following conditions are met:
    45                           ; 
    46                           ;     1. Redistributions of source code must retain the above copyright notice, this lis
      +                          t of
    47                           ;        conditions and the following disclaimer.
    48                           ; 
    49                           ;     2. Redistributions in binary form must reproduce the above copyright notice, this 
      +                          list
    50                           ;        of conditions and the following disclaimer in the documentation and/or other
    51                           ;        materials provided with the distribution. Publication is not required when
    52                           ;        this file is used in an embedded application.
    53                           ; 
    54                           ;     3. Microchip's name may not be used to endorse or promote products derived from th
      +                          is
    55                           ;        software without specific prior written permission.
    56                           ; 
    57                           ; THIS SOFTWARE IS PROVIDED BY MICROCHIP "AS IS" AND ANY EXPRESS OR IMPLIED WARRANTIES,
    58                           ; INCLUDING, BUT NOT LIMITED TO, THE IMPLIED WARRANTIES OF MERCHANTABILITY AND FITNESS F
      +                          OR
    59                           ; PURPOSE ARE DISCLAIMED.  IN NO EVENT SHALL MICROCHIP BE LIABLE FOR ANY DIRECT, INDIREC
      +                          T,
    60                           ; INCIDENTAL, SPECIAL, EXEMPLARY, OR CONSEQUENTIAL DAMAGES (INCLUDING BUT NOT LIMITED TO
    61                           ; PROCUREMENT OF SUBSTITUTE GOODS OR SERVICES; LOSS OF USE, DATA OR PROFITS; OR BUSINESS
    62                           ; INTERRUPTION) HOWSOEVER CAUSED AND ON ANY THEORY OF LIABILITY, WHETHER IN CONTRACT, ST
      +                          RICT
    63                           ; LIABILITY, OR TORT (INCLUDING NEGLIGENCE OR OTHERWISE) ARISING IN ANY WAY OUT OF THE U
      +                          SE OF
    64                           ; THIS SOFTWARE, EVEN IF ADVISED OF THE POSSIBILITY OF SUCH DAMAGE.
    65                           ; 
    66                           ; 
    67                           ; Code-generator required, PIC18F4550 Definitions
    68                           ; 
    69                           ; SFR Addresses
    70   000000                     
    71                           	psect	idataBANK0
    72   0028D4                     __pidataBANK0:
    73                           	callstack 0
    74                           
    75                           ;initializer for _posiciones
    76   0028D4  0000               	dw	0
    77   0028D6  0000               	dw	0
    78   0028D8  0000               	dw	0
    79   0028DA  3CF0               	dw	15600
    80   0028DC  21FC               	dw	8700
    81   0028DE  3CF0               	dw	15600
    82   0028E0  44C0               	dw	17600
    83   0028E2  3CF0               	dw	15600
    84   0028E4  0000               	dw	0
    85   0028E6  2D50               	dw	11600
    86   0028E8  21FC               	dw	8700
    87   0028EA  2D50               	dw	11600
    88   0028EC  44C0               	dw	17600
    89   0028EE  2D50               	dw	11600
    90   0028F0  0000               	dw	0
    91   0028F2  1DB0               	dw	7600
    92   0028F4  21FC               	dw	8700
    93   0028F6  1DB0               	dw	7600
    94   0028F8  44C0               	dw	17600
    95   0028FA  1DB0               	dw	7600
    96   0028FC  21FC               	dw	8700
    97   0028FE  4C2C               	dw	19500
    98                           
    99                           	psect	smallconst
   100   000800                     __psmallconst:
   101                           	callstack 0
   102   000800  00                 	db	0
   103   000801  0190               	dw	400
   104   000803                     __end_of_tDelay:
   105                           	callstack 0
   106   000000                     _TXREG	set	4013
   107   000000                     _RCREG	set	4014
   108   000000                     _SPBRG	set	4015
   109   000000                     _TXSTA	set	4012
   110   000000                     _RCIP	set	31997
   111   000000                     _TMR3IE	set	32001
   112   000000                     _TMR3IF	set	32009
   113   000803                     STR_3:
   114   000803  30                 	db	48	;'0'
   115   000804  00                 	db	0
   116   000805                     STR_2:
   117   000805  47                 	db	71	;'G'
   118   000806  00                 	db	0
   119   000807                     STR_1:
   120   000807  48                 	db	72	;'H'
   121   000808  00                 	db	0
   122   000809                     STR_4:
   123   000809  53                 	db	83	;'S'
   124   00080A  00                 	db	0
   125   00080B                     STR_6:
   126   00080B  65                 	db	101	;'e'
   127   00080C  00                 	db	0
   128   00080D  00                 	db	0	; dummy byte at the end
   129   000000                     
   130                           	psect	nvBANK0
   131   0000F3                     __pnvBANK0:
   132                           	callstack 0
   133   0000F3                     _deltaT:
   134                           	callstack 0
   135   0000F3                     	ds	4
   136   0000F7                     _Ta:
   137                           	callstack 0
   138   0000F7                     	ds	4
   139   000000                     _RB1	set	31753
   140   000000                     _RB0	set	31752
   141   000000                     _LATD5	set	31845
   142   000000                     _TRMT	set	32097
   143   000000                     _LATD1	set	31841
   144   000000                     _LATD0	set	31840
   145   000000                     _GIE	set	32663
   146   000000                     _PEIE	set	32662
   147   000000                     _RCIE	set	31981
   148   000000                     _RCIF	set	31989
   149   000000                     _TMR3ON	set	32136
   150   000000                     _TMR1ON	set	32360
   151   000000                     _TMR0ON	set	32431
   152   000000                     _TMR0IE	set	32661
   153   000000                     _LATD4	set	31844
   154   000000                     _LATD3	set	31843
   155   000000                     _LATD2	set	31842
   156   000000                     _LATD	set	3980
   157   000000                     _TRISD	set	3989
   158   000000                     _RB2	set	31754
   159   000000                     _TMR1IE	set	31976
   160   000000                     _TMR1IF	set	31984
   161   000000                     _RBPU	set	32655
   162   000000                     _TRISB	set	3987
   163   000000                     _TMR0IF	set	32658
   164   000000                     _RCSTA	set	4011
   165   000000                     _T3CON	set	4017
   166   000000                     _T1CON	set	4045
   167   000000                     _OSCCON	set	4051
   168   000000                     _T0CON	set	4053
   169   000000                     _TMR0	set	4054
   170   000000                     _TMR1	set	4046
   171   000000                     _TMR3	set	4018
   172   000000                     _BAUDCON	set	4024
   173                           
   174                           ; #config settings
   175                           
   176                           	psect	cinit
   177   00283E                     __pcinit:
   178                           	callstack 0
   179   00283E                     start_initialization:
   180                           	callstack 0
   181   00283E                     __initialization:
   182                           	callstack 0
   183                           
   184                           ; Initialize objects allocated to BANK0 (44 bytes)
   185                           ; load TBLPTR registers with __pidataBANK0
   186   00283E  0ED4               	movlw	low __pidataBANK0
   187   002840  6EF6               	movwf	tblptrl,c
   188   002842  0E28               	movlw	high __pidataBANK0
   189   002844  6EF7               	movwf	tblptrh,c
   190   002846  0E00               	movlw	low (__pidataBANK0 shr (0+16))
   191   002848  6EF8               	movwf	tblptru,c
   192   00284A  EE00  F0B0         	lfsr	0,__pdataBANK0
   193   00284E  EE10 F02C          	lfsr	1,44
   194   002852                     copy_data0:
   195   002852  0009               	tblrd		*+
   196   002854  CFF5 FFEE          	movff	tablat,postinc0
   197   002858  50E5               	movf	postdec1,w,c
   198   00285A  50E1               	movf	fsr1l,w,c
   199   00285C  E1FA               	bnz	copy_data0
   200                           
   201                           ; Clear objects allocated to BANK1 (80 bytes)
   202   00285E  EE01  F000         	lfsr	0,__pbssBANK1
   203   002862  0E50               	movlw	80
   204   002864                     clear_0:
   205   002864  6AEE               	clrf	postinc0,c
   206   002866  06E8               	decf	wreg,f,c
   207   002868  E1FD               	bnz	clear_0
   208                           
   209                           ; Clear objects allocated to BANK0 (80 bytes)
   210   00286A  EE00  F060         	lfsr	0,__pbssBANK0
   211   00286E  0E50               	movlw	80
   212   002870                     clear_1:
   213   002870  6AEE               	clrf	postinc0,c
   214   002872  06E8               	decf	wreg,f,c
   215   002874  E1FD               	bnz	clear_1
   216                           
   217                           ; Clear objects allocated to COMRAM (3 bytes)
   218   002876  6A59               	clrf	(__pbssCOMRAM+2)& (0+255),c
   219   002878  6A58               	clrf	(__pbssCOMRAM+1)& (0+255),c
   220   00287A  6A57               	clrf	__pbssCOMRAM& (0+255),c
   221   00287C                     end_of_initialization:
   222                           	callstack 0
   223   00287C                     __end_of__initialization:
   224                           	callstack 0
   225   00287C  905A               	bcf	int$flags,0,c	;clear compiler interrupt flag (level 1)
   226   00287E  925A               	bcf	int$flags,1,c	;clear compiler interrupt flag (level 2)
   227   002880  0E00               	movlw	low (__Lsmallconst shr (0+16))
   228   002882  6EF8               	movwf	tblptru,c
   229   002884  0E08               	movlw	high __Lsmallconst
   230   002886  6EF7               	movwf	tblptrh,c
   231   002888  0100               	movlb	0
   232   00288A  EF85  F012         	goto	_main	;jump to C main() function
   233                           
   234                           	psect	bssCOMRAM
   235   000057                     __pbssCOMRAM:
   236                           	callstack 0
   237   000057                     _precargaX:
   238                           	callstack 0
   239   000057                     	ds	2
   240   000059                     _orden:
   241                           	callstack 0
   242   000059                     	ds	1
   243                           
   244                           	psect	bssBANK0
   245   000060                     __pbssBANK0:
   246                           	callstack 0
   247   000060                     _TvC:
   248                           	callstack 0
   249   000060                     	ds	4
   250   000064                     _v5y:
   251                           	callstack 0
   252   000064                     	ds	4
   253   000068                     _v5x:
   254                           	callstack 0
   255   000068                     	ds	4
   256   00006C                     _TInty:
   257                           	callstack 0
   258   00006C                     	ds	4
   259   000070                     _TIntx:
   260                           	callstack 0
   261   000070                     	ds	4
   262   000074                     _vs:
   263                           	callstack 0
   264   000074                     	ds	2
   265   000076                     _vactual:
   266                           	callstack 0
   267   000076                     	ds	2
   268   000078                     _carro:
   269                           	callstack 0
   270   000078                     	ds	2
   271   00007A                     _posZ:
   272                           	callstack 0
   273   00007A                     	ds	2
   274   00007C                     _posY:
   275                           	callstack 0
   276   00007C                     	ds	2
   277   00007E                     _posX:
   278                           	callstack 0
   279   00007E                     	ds	2
   280   000080                     _counterVC:
   281                           	callstack 0
   282   000080                     	ds	2
   283   000082                     _counter:
   284                           	callstack 0
   285   000082                     	ds	2
   286   000084                     _finZ:
   287                           	callstack 0
   288   000084                     	ds	2
   289   000086                     _finY:
   290                           	callstack 0
   291   000086                     	ds	2
   292   000088                     _finX:
   293                           	callstack 0
   294   000088                     	ds	2
   295   00008A                     _des:
   296                           	callstack 0
   297   00008A                     	ds	2
   298   00008C                     _cru:
   299                           	callstack 0
   300   00008C                     	ds	2
   301   00008E                     _ac:
   302                           	callstack 0
   303   00008E                     	ds	2
   304   000090                     _precargaY:
   305                           	callstack 0
   306   000090                     	ds	2
   307   000092                     _pasosZDados:
   308                           	callstack 0
   309   000092                     	ds	2
   310   000094                     _pasosYDados:
   311                           	callstack 0
   312   000094                     	ds	2
   313   000096                     _pasosXDados:
   314                           	callstack 0
   315   000096                     	ds	2
   316   000098                     _pasosZ:
   317                           	callstack 0
   318   000098                     	ds	2
   319   00009A                     _pasosY:
   320                           	callstack 0
   321   00009A                     	ds	2
   322   00009C                     _pasosX:
   323                           	callstack 0
   324   00009C                     	ds	2
   325   00009E                     _ope:
   326                           	callstack 0
   327   00009E                     	ds	1
   328   00009F                     _estado:
   329                           	callstack 0
   330   00009F                     	ds	1
   331   0000A0                     _vInsy:
   332                           	callstack 0
   333   0000A0                     	ds	4
   334   0000A4                     _vInsx:
   335                           	callstack 0
   336   0000A4                     	ds	4
   337   0000A8                     _vCy:
   338                           	callstack 0
   339   0000A8                     	ds	4
   340   0000AC                     _vCx:
   341                           	callstack 0
   342   0000AC                     	ds	4
   343                           
   344                           	psect	dataBANK0
   345   0000B0                     __pdataBANK0:
   346                           	callstack 0
   347   0000B0                     _posiciones:
   348                           	callstack 0
   349   0000B0                     	ds	44
   350                           
   351                           	psect	bssBANK1
   352   000100                     __pbssBANK1:
   353                           	callstack 0
   354   000100                     _arrayY:
   355                           	callstack 0
   356   000100                     	ds	40
   357   000128                     _arrayX:
   358                           	callstack 0
   359   000128                     	ds	40
   360                           
   361                           	psect	cstackBANK0
   362   0000DC                     __pcstackBANK0:
   363                           	callstack 0
   364   0000DC                     precargas@i:
   365                           	callstack 0
   366                           
   367                           ; 2 bytes @ 0x0
   368   0000DC                     	ds	2
   369   0000DE                     mover@x:
   370                           	callstack 0
   371                           
   372                           ; 4 bytes @ 0x2
   373   0000DE                     	ds	4
   374   0000E2                     mover@y:
   375                           	callstack 0
   376                           
   377                           ; 4 bytes @ 0x6
   378   0000E2                     	ds	4
   379   0000E6                     mover@z:
   380                           	callstack 0
   381                           
   382                           ; 4 bytes @ 0xA
   383   0000E6                     	ds	4
   384   0000EA                     mover@absoluto:
   385                           	callstack 0
   386                           
   387                           ; 2 bytes @ 0xE
   388   0000EA                     	ds	2
   389   0000EC                     ??_mover:
   390                           
   391                           ; 1 bytes @ 0x10
   392   0000EC                     	ds	5
   393   0000F1                     ??_main:
   394                           
   395                           ; 1 bytes @ 0x15
   396   0000F1                     	ds	2
   397                           
   398                           	psect	cstackCOMRAM
   399   000001                     __pcstackCOMRAM:
   400                           	callstack 0
   401   000001                     ??_ISR:
   402   000001                     
   403                           ; 1 bytes @ 0x0
   404   000001                     	ds	4
   405   000005                     ?___fladd:
   406                           	callstack 0
   407   000005                     ?___xxtofl:
   408                           	callstack 0
   409   000005                     Transmitir@dato:
   410                           	callstack 0
   411   000005                     ___fladd@b:
   412                           	callstack 0
   413   000005                     ___xxtofl@val:
   414                           	callstack 0
   415                           
   416                           ; 4 bytes @ 0x4
   417   000005                     	ds	4
   418   000009                     ??___xxtofl:
   419   000009                     ___fladd@a:
   420                           	callstack 0
   421                           
   422                           ; 4 bytes @ 0x8
   423   000009                     	ds	4
   424   00000D                     ??___fladd:
   425   00000D                     ___xxtofl@sign:
   426                           	callstack 0
   427                           
   428                           ; 1 bytes @ 0xC
   429   00000D                     	ds	1
   430   00000E                     ___xxtofl@exp:
   431                           	callstack 0
   432                           
   433                           ; 1 bytes @ 0xD
   434   00000E                     	ds	1
   435   00000F                     ___xxtofl@arg:
   436                           	callstack 0
   437                           
   438                           ; 4 bytes @ 0xE
   439   00000F                     	ds	2
   440   000011                     ___fladd@signs:
   441                           	callstack 0
   442                           
   443                           ; 1 bytes @ 0x10
   444   000011                     	ds	1
   445   000012                     ___fladd@aexp:
   446                           	callstack 0
   447                           
   448                           ; 1 bytes @ 0x11
   449   000012                     	ds	1
   450   000013                     ?___flmul:
   451                           	callstack 0
   452   000013                     ___fladd@bexp:
   453                           	callstack 0
   454   000013                     ___flmul@b:
   455                           	callstack 0
   456                           
   457                           ; 4 bytes @ 0x12
   458   000013                     	ds	1
   459   000014                     ___fladd@grs:
   460                           	callstack 0
   461                           
   462                           ; 1 bytes @ 0x13
   463   000014                     	ds	3
   464   000017                     ___flmul@a:
   465                           	callstack 0
   466                           
   467                           ; 4 bytes @ 0x16
   468   000017                     	ds	4
   469   00001B                     ??___flmul:
   470                           
   471                           ; 1 bytes @ 0x1A
   472   00001B                     	ds	4
   473   00001F                     ___flmul@sign:
   474                           	callstack 0
   475                           
   476                           ; 1 bytes @ 0x1E
   477   00001F                     	ds	1
   478   000020                     ___flmul@aexp:
   479                           	callstack 0
   480                           
   481                           ; 1 bytes @ 0x1F
   482   000020                     	ds	1
   483   000021                     ___flmul@grs:
   484                           	callstack 0
   485                           
   486                           ; 4 bytes @ 0x20
   487   000021                     	ds	4
   488   000025                     ___flmul@bexp:
   489                           	callstack 0
   490                           
   491                           ; 1 bytes @ 0x24
   492   000025                     	ds	1
   493   000026                     ___flmul@prod:
   494                           	callstack 0
   495                           
   496                           ; 4 bytes @ 0x25
   497   000026                     	ds	4
   498   00002A                     ___flmul@temp:
   499                           	callstack 0
   500                           
   501                           ; 2 bytes @ 0x29
   502   00002A                     	ds	2
   503   00002C                     ?___fldiv:
   504                           	callstack 0
   505   00002C                     ___fldiv@b:
   506                           	callstack 0
   507                           
   508                           ; 4 bytes @ 0x2B
   509   00002C                     	ds	4
   510   000030                     ___fldiv@a:
   511                           	callstack 0
   512                           
   513                           ; 4 bytes @ 0x2F
   514   000030                     	ds	4
   515   000034                     ??___fldiv:
   516                           
   517                           ; 1 bytes @ 0x33
   518   000034                     	ds	4
   519   000038                     ___fldiv@rem:
   520                           	callstack 0
   521                           
   522                           ; 4 bytes @ 0x37
   523   000038                     	ds	4
   524   00003C                     ___fldiv@sign:
   525                           	callstack 0
   526                           
   527                           ; 1 bytes @ 0x3B
   528   00003C                     	ds	1
   529   00003D                     ___fldiv@new_exp:
   530                           	callstack 0
   531                           
   532                           ; 2 bytes @ 0x3C
   533   00003D                     	ds	2
   534   00003F                     ___fldiv@grs:
   535                           	callstack 0
   536                           
   537                           ; 4 bytes @ 0x3E
   538   00003F                     	ds	4
   539   000043                     ___fldiv@bexp:
   540                           	callstack 0
   541                           
   542                           ; 1 bytes @ 0x42
   543   000043                     	ds	1
   544   000044                     ___fldiv@aexp:
   545                           	callstack 0
   546                           
   547                           ; 1 bytes @ 0x43
   548   000044                     	ds	1
   549   000045                     ?___flsub:
   550                           	callstack 0
   551   000045                     ___flsub@b:
   552                           	callstack 0
   553                           
   554                           ; 4 bytes @ 0x44
   555   000045                     	ds	4
   556   000049                     ___flsub@a:
   557                           	callstack 0
   558                           
   559                           ; 4 bytes @ 0x48
   560   000049                     	ds	4
   561   00004D                     ?___fltol:
   562                           	callstack 0
   563   00004D                     ___fltol@f1:
   564                           	callstack 0
   565                           
   566                           ; 4 bytes @ 0x4C
   567   00004D                     	ds	4
   568   000051                     ??___fltol:
   569                           
   570                           ; 1 bytes @ 0x50
   571   000051                     	ds	4
   572   000055                     ___fltol@sign1:
   573                           	callstack 0
   574                           
   575                           ; 1 bytes @ 0x54
   576   000055                     	ds	1
   577   000056                     ___fltol@exp1:
   578                           	callstack 0
   579                           
   580                           ; 1 bytes @ 0x55
   581   000056                     	ds	1
   582   000057                     
   583                           ; 1 bytes @ 0x56
   584 ;;
   585 ;;Main: autosize = 0, tempsize = 2, incstack = 0, save=0
   586 ;;
   587 ;; *************** function _main *****************
   588 ;; Defined at:
   589 ;;		line 61 in file "controlMotores.c"
   590 ;; Parameters:    Size  Location     Type
   591 ;;		None
   592 ;; Auto vars:     Size  Location     Type
   593 ;;		None
   594 ;; Return value:  Size  Location     Type
   595 ;;                  1    wreg      void 
   596 ;; Registers used:
   597 ;;		wreg, fsr2l, fsr2h, status,2, status,0, prodl, prodh, cstack
   598 ;; Tracked objects:
   599 ;;		On entry : 0/0
   600 ;;		On exit  : 0/0
   601 ;;		Unchanged: 0/0
   602 ;; Data sizes:     COMRAM   BANK0   BANK1   BANK2   BANK3   BANK4   BANK5   BANK6   BANK7
   603 ;;      Params:         0       0       0       0       0       0       0       0       0
   604 ;;      Locals:         0       0       0       0       0       0       0       0       0
   605 ;;      Temps:          0       2       0       0       0       0       0       0       0
   606 ;;      Totals:         0       2       0       0       0       0       0       0       0
   607 ;;Total ram usage:        2 bytes
   608 ;; Hardware stack levels required when called: 6
   609 ;; This function calls:
   610 ;;		_Transmitir
   611 ;;		___fldiv
   612 ;;		_goHome
   613 ;;		_guardarV
   614 ;;		_mover
   615 ;; This function is called by:
   616 ;;		Startup code after reset
   617 ;; This function uses a non-reentrant model
   618 ;;
   619                           
   620                           	psect	text0
   621   00250A                     __ptext0:
   622                           	callstack 0
   623   00250A                     _main:
   624                           	callstack 25
   625   00250A                     
   626                           ;controlMotores.c: 63:     Ta = 4.5;
   627   00250A  0E00               	movlw	0
   628   00250C  0100               	movlb	0	; () banked
   629   00250E  6FF7               	movwf	_Ta& (0+255),b
   630   002510  0E00               	movlw	0
   631   002512  6FF8               	movwf	(_Ta+1)& (0+255),b
   632   002514  0E90               	movlw	144
   633   002516  6FF9               	movwf	(_Ta+2)& (0+255),b
   634   002518  0E40               	movlw	64
   635   00251A  6FFA               	movwf	(_Ta+3)& (0+255),b
   636   00251C                     
   637                           ; BSR set to: 0
   638                           ;controlMotores.c: 64:     deltaT = Ta/20;
   639   00251C  C0F7  F02C         	movff	_Ta,___fldiv@b
   640   002520  C0F8  F02D         	movff	_Ta+1,___fldiv@b+1
   641   002524  C0F9  F02E         	movff	_Ta+2,___fldiv@b+2
   642   002528  C0FA  F02F         	movff	_Ta+3,___fldiv@b+3
   643   00252C  0E00               	movlw	0
   644   00252E  6E30               	movwf	___fldiv@a^0,c
   645   002530  0E00               	movlw	0
   646   002532  6E31               	movwf	(___fldiv@a+1)^0,c
   647   002534  0EA0               	movlw	160
   648   002536  6E32               	movwf	(___fldiv@a+2)^0,c
   649   002538  0E41               	movlw	65
   650   00253A  6E33               	movwf	(___fldiv@a+3)^0,c
   651   00253C  ECAC  F00E         	call	___fldiv	;wreg free
   652   002540  C02C  F0F3         	movff	?___fldiv,_deltaT
   653   002544  C02D  F0F4         	movff	?___fldiv+1,_deltaT+1
   654   002548  C02E  F0F5         	movff	?___fldiv+2,_deltaT+2
   655   00254C  C02F  F0F6         	movff	?___fldiv+3,_deltaT+3
   656   002550                     
   657                           ;controlMotores.c: 66:     mover(posiciones[9][0],posiciones[9][1],0,0);
   658   002550  C0D4  F0DE         	movff	_posiciones+36,mover@x
   659   002554  C0D5  F0DF         	movff	_posiciones+37,mover@x+1
   660   002558  0100               	movlb	0	; () banked
   661   00255A  6BE0               	clrf	(mover@x+2)& (0+255),b
   662   00255C  6BE1               	clrf	(mover@x+3)& (0+255),b
   663   00255E  C0D6  F0E2         	movff	_posiciones+38,mover@y
   664   002562  C0D7  F0E3         	movff	_posiciones+39,mover@y+1
   665   002566  6BE4               	clrf	(mover@y+2)& (0+255),b
   666   002568  6BE5               	clrf	(mover@y+3)& (0+255),b
   667   00256A  0E00               	movlw	0
   668   00256C  6FE6               	movwf	mover@z& (0+255),b
   669   00256E  0E00               	movlw	0
   670   002570  6FE7               	movwf	(mover@z+1)& (0+255),b
   671   002572  0E00               	movlw	0
   672   002574  6FE8               	movwf	(mover@z+2)& (0+255),b
   673   002576  0E00               	movlw	0
   674   002578  6FE9               	movwf	(mover@z+3)& (0+255),b
   675   00257A  0E00               	movlw	0
   676   00257C  6FEB               	movwf	(mover@absoluto+1)& (0+255),b
   677   00257E  0E00               	movlw	0
   678   002580  6FEA               	movwf	mover@absoluto& (0+255),b
   679   002582  ECDB  F00C         	call	_mover	;wreg free
   680   002586                     
   681                           ;controlMotores.c: 69:     TRISD = 0b111000000;
   682   002586  0EC0               	movlw	192
   683   002588  6E95               	movwf	149,c	;volatile
   684   00258A                     
   685                           ;controlMotores.c: 70:     LATD = 0;
   686   00258A  0E00               	movlw	0
   687   00258C  6E8C               	movwf	140,c	;volatile
   688   00258E                     
   689                           ;controlMotores.c: 71:     RBPU=0;
   690   00258E  9EF1               	bcf	4081,7,c	;volatile
   691   002590                     
   692                           ;controlMotores.c: 73:     LATD2 = 1;
   693   002590  848C               	bsf	3980,2,c	;volatile
   694   002592                     
   695                           ;controlMotores.c: 74:     LATD3 = 1;
   696   002592  868C               	bsf	3980,3,c	;volatile
   697   002594                     
   698                           ;controlMotores.c: 75:     LATD4 = 1;
   699   002594  888C               	bsf	3980,4,c	;volatile
   700   002596                     
   701                           ;controlMotores.c: 78:     TRISB = 0b11111111;
   702   002596  6893               	setf	147,c	;volatile
   703   002598                     
   704                           ;controlMotores.c: 81:     TMR0IF = 0;
   705   002598  94F2               	bcf	4082,2,c	;volatile
   706   00259A                     
   707                           ;controlMotores.c: 82:     TMR1IF = 0;
   708   00259A  909E               	bcf	3998,0,c	;volatile
   709   00259C                     
   710                           ;controlMotores.c: 83:     TMR3IF = 0;
   711   00259C  92A1               	bcf	4001,1,c	;volatile
   712   00259E                     
   713                           ;controlMotores.c: 86:     TMR0IE = 1;
   714   00259E  8AF2               	bsf	4082,5,c	;volatile
   715   0025A0                     
   716                           ;controlMotores.c: 87:     TMR1IE = 1;
   717   0025A0  809D               	bsf	3997,0,c	;volatile
   718   0025A2                     
   719                           ;controlMotores.c: 88:     TMR3IE = 1;
   720   0025A2  82A0               	bsf	4000,1,c	;volatile
   721   0025A4                     
   722                           ;controlMotores.c: 91:     OSCCON=0b01110000;
   723   0025A4  0E70               	movlw	112
   724   0025A6  6ED3               	movwf	211,c	;volatile
   725   0025A8                     
   726                           ;controlMotores.c: 95:     T0CON = 0b00000010;
   727   0025A8  0E02               	movlw	2
   728   0025AA  6ED5               	movwf	213,c	;volatile
   729   0025AC                     
   730                           ;controlMotores.c: 96:     TMR0ON = 1;
   731   0025AC  8ED5               	bsf	4053,7,c	;volatile
   732   0025AE                     
   733                           ;controlMotores.c: 97:     TMR0 =9286;
   734   0025AE  0E24               	movlw	36
   735   0025B0  6ED7               	movwf	215,c	;volatile
   736   0025B2  0E46               	movlw	70
   737   0025B4  6ED6               	movwf	214,c	;volatile
   738   0025B6                     
   739                           ;controlMotores.c: 100:     T1CON = 0b10100000;
   740   0025B6  0EA0               	movlw	160
   741   0025B8  6ECD               	movwf	205,c	;volatile
   742   0025BA                     
   743                           ;controlMotores.c: 101:     TMR1ON = 1;
   744   0025BA  80CD               	bsf	4045,0,c	;volatile
   745   0025BC                     
   746                           ;controlMotores.c: 104:     T3CON = 0b10100000;
   747   0025BC  0EA0               	movlw	160
   748   0025BE  6EB1               	movwf	177,c	;volatile
   749   0025C0                     
   750                           ;controlMotores.c: 105:     TMR3ON = 1;
   751   0025C0  80B1               	bsf	4017,0,c	;volatile
   752   0025C2                     
   753                           ;controlMotores.c: 107:     RCSTA=0b10010000;
   754   0025C2  0E90               	movlw	144
   755   0025C4  6EAB               	movwf	171,c	;volatile
   756   0025C6                     
   757                           ;controlMotores.c: 108:     TXSTA=0b00100000;
   758   0025C6  0E20               	movlw	32
   759   0025C8  6EAC               	movwf	172,c	;volatile
   760   0025CA                     
   761                           ;controlMotores.c: 109:     BAUDCON=0b00000000;
   762   0025CA  0E00               	movlw	0
   763   0025CC  6EB8               	movwf	184,c	;volatile
   764   0025CE                     
   765                           ;controlMotores.c: 110:     SPBRG=12;
   766   0025CE  0E0C               	movlw	12
   767   0025D0  6EAF               	movwf	175,c	;volatile
   768   0025D2                     
   769                           ;controlMotores.c: 112:     RCIP=1;
   770   0025D2  8A9F               	bsf	3999,5,c	;volatile
   771   0025D4                     
   772                           ;controlMotores.c: 113:     RCIF=0;
   773   0025D4  9A9E               	bcf	3998,5,c	;volatile
   774   0025D6                     
   775                           ;controlMotores.c: 114:     RCIE=1;
   776   0025D6  8A9D               	bsf	3997,5,c	;volatile
   777   0025D8                     
   778                           ;controlMotores.c: 116:     PEIE = 1;
   779   0025D8  8CF2               	bsf	4082,6,c	;volatile
   780   0025DA                     
   781                           ;controlMotores.c: 118:     GIE = 1;
   782   0025DA  8EF2               	bsf	4082,7,c	;volatile
   783   0025DC                     
   784                           ;controlMotores.c: 120:     goHome();
   785   0025DC  ECD1  F013         	call	_goHome	;wreg free
   786   0025E0                     l3866:
   787                           
   788                           ;controlMotores.c: 122:         if(ope=="H"){
   789   0025E0  0100               	movlb	0	; () banked
   790   0025E2  519E               	movf	_ope& (0+255),w,b
   791   0025E4  6FF1               	movwf	??_main& (0+255),b
   792   0025E6  6BF2               	clrf	(??_main+1)& (0+255),b
   793   0025E8  0E07               	movlw	low STR_1
   794   0025EA  19F1               	xorwf	??_main& (0+255),w,b
   795   0025EC  E107               	bnz	u4931
   796   0025EE  0E08               	movlw	high STR_1
   797   0025F0  19F2               	xorwf	(??_main+1)& (0+255),w,b
   798   0025F2  A4D8               	btfss	status,2,c
   799   0025F4  EFFE  F012         	goto	u4931
   800   0025F8  EF00  F013         	goto	u4930
   801   0025FC                     u4931:
   802   0025FC  EF14  F013         	goto	l3878
   803   002600                     u4930:
   804   002600                     
   805                           ; BSR set to: 0
   806                           ;controlMotores.c: 123:             Transmitir('o');
   807   002600  0E6F               	movlw	111
   808   002602  EC80  F014         	call	_Transmitir
   809   002606                     
   810                           ;controlMotores.c: 124:             if(vactual!=0)guardarV();
   811   002606  0100               	movlb	0	; () banked
   812   002608  5176               	movf	_vactual& (0+255),w,b
   813   00260A  1177               	iorwf	(_vactual+1)& (0+255),w,b
   814   00260C  B4D8               	btfsc	status,2,c
   815   00260E  EF0B  F013         	goto	u4941
   816   002612  EF0D  F013         	goto	u4940
   817   002616                     u4941:
   818   002616  EF0F  F013         	goto	l3874
   819   00261A                     u4940:
   820   00261A                     
   821                           ; BSR set to: 0
   822   00261A  ECE1  F00A         	call	_guardarV	;wreg free
   823   00261E                     l3874:
   824                           
   825                           ;controlMotores.c: 125:             goHome();
   826   00261E  ECD1  F013         	call	_goHome	;wreg free
   827   002622                     
   828                           ;controlMotores.c: 126:             Transmitir('e');
   829   002622  0E65               	movlw	101
   830   002624  EC80  F014         	call	_Transmitir
   831   002628                     l3878:
   832                           
   833                           ;controlMotores.c: 128:         if(ope=="G"){
   834   002628  0100               	movlb	0	; () banked
   835   00262A  519E               	movf	_ope& (0+255),w,b
   836   00262C  6FF1               	movwf	??_main& (0+255),b
   837   00262E  6BF2               	clrf	(??_main+1)& (0+255),b
   838   002630  0E05               	movlw	low STR_2
   839   002632  19F1               	xorwf	??_main& (0+255),w,b
   840   002634  E107               	bnz	u4951
   841   002636  0E08               	movlw	high STR_2
   842   002638  19F2               	xorwf	(??_main+1)& (0+255),w,b
   843   00263A  A4D8               	btfss	status,2,c
   844   00263C  EF22  F013         	goto	u4951
   845   002640  EF24  F013         	goto	u4950
   846   002644                     u4951:
   847   002644  EF2F  F013         	goto	l3888
   848   002648                     u4950:
   849   002648                     
   850                           ; BSR set to: 0
   851                           ;controlMotores.c: 129:             Transmitir('o');
   852   002648  0E6F               	movlw	111
   853   00264A  EC80  F014         	call	_Transmitir
   854   00264E                     
   855                           ;controlMotores.c: 130:             guardarV();
   856   00264E  ECE1  F00A         	call	_guardarV	;wreg free
   857   002652                     
   858                           ;controlMotores.c: 131:             ope="0";
   859   002652  0E03               	movlw	low (low STR_3)
   860   002654  0100               	movlb	0	; () banked
   861   002656  6F9E               	movwf	_ope& (0+255),b
   862   002658                     
   863                           ; BSR set to: 0
   864                           ;controlMotores.c: 132:             Transmitir('e');
   865   002658  0E65               	movlw	101
   866   00265A  EC80  F014         	call	_Transmitir
   867   00265E                     l3888:
   868                           
   869                           ;controlMotores.c: 134:         if(ope=="S"){
   870   00265E  0100               	movlb	0	; () banked
   871   002660  519E               	movf	_ope& (0+255),w,b
   872   002662  6FF1               	movwf	??_main& (0+255),b
   873   002664  6BF2               	clrf	(??_main+1)& (0+255),b
   874   002666  0E09               	movlw	low STR_4
   875   002668  19F1               	xorwf	??_main& (0+255),w,b
   876   00266A  E107               	bnz	u4961
   877   00266C  0E08               	movlw	high STR_4
   878   00266E  19F2               	xorwf	(??_main+1)& (0+255),w,b
   879   002670  A4D8               	btfss	status,2,c
   880   002672  EF3D  F013         	goto	u4961
   881   002676  EF3F  F013         	goto	u4960
   882   00267A                     u4961:
   883   00267A  EFF0  F012         	goto	l3866
   884   00267E                     u4960:
   885   00267E                     
   886                           ; BSR set to: 0
   887                           ;controlMotores.c: 135:             Transmitir('o');
   888   00267E  0E6F               	movlw	111
   889   002680  EC80  F014         	call	_Transmitir
   890   002684                     
   891                           ;controlMotores.c: 136:             guardarV();
   892   002684  ECE1  F00A         	call	_guardarV	;wreg free
   893   002688                     
   894                           ;controlMotores.c: 137:             ope="0";
   895   002688  0E03               	movlw	low (low STR_3)
   896   00268A  0100               	movlb	0	; () banked
   897   00268C  6F9E               	movwf	_ope& (0+255),b
   898   00268E                     
   899                           ; BSR set to: 0
   900                           ;controlMotores.c: 138:             Transmitir('e');
   901   00268E  0E65               	movlw	101
   902   002690  EC80  F014         	call	_Transmitir
   903   002694  EFF0  F012         	goto	l3866
   904   002698  EF07  F000         	goto	start
   905   00269C                     __end_of_main:
   906                           	callstack 0
   907                           
   908 ;; *************** function _guardarV *****************
   909 ;; Defined at:
   910 ;;		line 363 in file "controlMotores.c"
   911 ;; Parameters:    Size  Location     Type
   912 ;;		None
   913 ;; Auto vars:     Size  Location     Type
   914 ;;		None
   915 ;; Return value:  Size  Location     Type
   916 ;;                  1    wreg      void 
   917 ;; Registers used:
   918 ;;		wreg, fsr2l, fsr2h, status,2, status,0, prodl, prodh, cstack
   919 ;; Tracked objects:
   920 ;;		On entry : 0/0
   921 ;;		On exit  : 0/0
   922 ;;		Unchanged: 0/0
   923 ;; Data sizes:     COMRAM   BANK0   BANK1   BANK2   BANK3   BANK4   BANK5   BANK6   BANK7
   924 ;;      Params:         0       0       0       0       0       0       0       0       0
   925 ;;      Locals:         0       0       0       0       0       0       0       0       0
   926 ;;      Temps:          0       0       0       0       0       0       0       0       0
   927 ;;      Totals:         0       0       0       0       0       0       0       0       0
   928 ;;Total ram usage:        0 bytes
   929 ;; Hardware stack levels used: 1
   930 ;; Hardware stack levels required when called: 5
   931 ;; This function calls:
   932 ;;		_Transmitir
   933 ;;		_mover
   934 ;; This function is called by:
   935 ;;		_main
   936 ;; This function uses a non-reentrant model
   937 ;;
   938                           
   939                           	psect	text1
   940   0015C2                     __ptext1:
   941                           	callstack 0
   942   0015C2                     _guardarV:
   943                           	callstack 25
   944   0015C2                     
   945                           ;controlMotores.c: 364:     if(vactual!=0){
   946   0015C2  0100               	movlb	0	; () banked
   947   0015C4  5176               	movf	_vactual& (0+255),w,b
   948   0015C6  1177               	iorwf	(_vactual+1)& (0+255),w,b
   949   0015C8  B4D8               	btfsc	status,2,c
   950   0015CA  EFE9  F00A         	goto	u4831
   951   0015CE  EFEB  F00A         	goto	u4830
   952   0015D2                     u4831:
   953   0015D2  EFA4  F00C         	goto	l3794
   954   0015D6                     u4830:
   955   0015D6                     
   956                           ; BSR set to: 0
   957                           ;controlMotores.c: 366:         if(vactual==1){
   958   0015D6  0576               	decf	_vactual& (0+255),w,b
   959   0015D8  1177               	iorwf	(_vactual+1)& (0+255),w,b
   960   0015DA  A4D8               	btfss	status,2,c
   961   0015DC  EFF2  F00A         	goto	u4841
   962   0015E0  EFF4  F00A         	goto	u4840
   963   0015E4                     u4841:
   964   0015E4  EF10  F00B         	goto	l3760
   965   0015E8                     u4840:
   966   0015E8                     
   967                           ; BSR set to: 0
   968                           ;controlMotores.c: 367:             mover(posiciones[2][1],posiciones[2][2],800,1);
   969   0015E8  C0BA  F0DE         	movff	_posiciones+10,mover@x
   970   0015EC  C0BB  F0DF         	movff	_posiciones+11,mover@x+1
   971   0015F0  6BE0               	clrf	(mover@x+2)& (0+255),b
   972   0015F2  6BE1               	clrf	(mover@x+3)& (0+255),b
   973   0015F4  C0BC  F0E2         	movff	_posiciones+12,mover@y
   974   0015F8  C0BD  F0E3         	movff	_posiciones+13,mover@y+1
   975   0015FC  6BE4               	clrf	(mover@y+2)& (0+255),b
   976   0015FE  6BE5               	clrf	(mover@y+3)& (0+255),b
   977   001600  0E20               	movlw	32
   978   001602  6FE6               	movwf	mover@z& (0+255),b
   979   001604  0E03               	movlw	3
   980   001606  6FE7               	movwf	(mover@z+1)& (0+255),b
   981   001608  0E00               	movlw	0
   982   00160A  6FE8               	movwf	(mover@z+2)& (0+255),b
   983   00160C  0E00               	movlw	0
   984   00160E  6FE9               	movwf	(mover@z+3)& (0+255),b
   985   001610  0E00               	movlw	0
   986   001612  6FEB               	movwf	(mover@absoluto+1)& (0+255),b
   987   001614  0E01               	movlw	1
   988   001616  6FEA               	movwf	mover@absoluto& (0+255),b
   989   001618  ECDB  F00C         	call	_mover	;wreg free
   990                           
   991                           ;controlMotores.c: 368:         }
   992   00161C  EF40  F00C         	goto	l285
   993   001620                     l3760:
   994                           
   995                           ; BSR set to: 0
   996   001620  0E02               	movlw	2
   997   001622  1976               	xorwf	_vactual& (0+255),w,b
   998   001624  1177               	iorwf	(_vactual+1)& (0+255),w,b
   999   001626  A4D8               	btfss	status,2,c
  1000   001628  EF18  F00B         	goto	u4851
  1001   00162C  EF1A  F00B         	goto	u4850
  1002   001630                     u4851:
  1003   001630  EF36  F00B         	goto	l3764
  1004   001634                     u4850:
  1005   001634                     
  1006                           ; BSR set to: 0
  1007                           ;controlMotores.c: 370:             mover(posiciones[3][1],posiciones[3][2],800,1);
  1008   001634  C0BE  F0DE         	movff	_posiciones+14,mover@x
  1009   001638  C0BF  F0DF         	movff	_posiciones+15,mover@x+1
  1010   00163C  6BE0               	clrf	(mover@x+2)& (0+255),b
  1011   00163E  6BE1               	clrf	(mover@x+3)& (0+255),b
  1012   001640  C0C0  F0E2         	movff	_posiciones+16,mover@y
  1013   001644  C0C1  F0E3         	movff	_posiciones+17,mover@y+1
  1014   001648  6BE4               	clrf	(mover@y+2)& (0+255),b
  1015   00164A  6BE5               	clrf	(mover@y+3)& (0+255),b
  1016   00164C  0E20               	movlw	32
  1017   00164E  6FE6               	movwf	mover@z& (0+255),b
  1018   001650  0E03               	movlw	3
  1019   001652  6FE7               	movwf	(mover@z+1)& (0+255),b
  1020   001654  0E00               	movlw	0
  1021   001656  6FE8               	movwf	(mover@z+2)& (0+255),b
  1022   001658  0E00               	movlw	0
  1023   00165A  6FE9               	movwf	(mover@z+3)& (0+255),b
  1024   00165C  0E00               	movlw	0
  1025   00165E  6FEB               	movwf	(mover@absoluto+1)& (0+255),b
  1026   001660  0E01               	movlw	1
  1027   001662  6FEA               	movwf	mover@absoluto& (0+255),b
  1028   001664  ECDB  F00C         	call	_mover	;wreg free
  1029                           
  1030                           ;controlMotores.c: 371:         }
  1031   001668  EF40  F00C         	goto	l285
  1032   00166C                     l3764:
  1033                           
  1034                           ; BSR set to: 0
  1035   00166C  0E03               	movlw	3
  1036   00166E  1976               	xorwf	_vactual& (0+255),w,b
  1037   001670  1177               	iorwf	(_vactual+1)& (0+255),w,b
  1038   001672  A4D8               	btfss	status,2,c
  1039   001674  EF3E  F00B         	goto	u4861
  1040   001678  EF40  F00B         	goto	u4860
  1041   00167C                     u4861:
  1042   00167C  EF5C  F00B         	goto	l3768
  1043   001680                     u4860:
  1044   001680                     
  1045                           ; BSR set to: 0
  1046                           ;controlMotores.c: 373:             mover(posiciones[4][1],posiciones[4][2],800,1);
  1047   001680  C0C2  F0DE         	movff	_posiciones+18,mover@x
  1048   001684  C0C3  F0DF         	movff	_posiciones+19,mover@x+1
  1049   001688  6BE0               	clrf	(mover@x+2)& (0+255),b
  1050   00168A  6BE1               	clrf	(mover@x+3)& (0+255),b
  1051   00168C  C0C4  F0E2         	movff	_posiciones+20,mover@y
  1052   001690  C0C5  F0E3         	movff	_posiciones+21,mover@y+1
  1053   001694  6BE4               	clrf	(mover@y+2)& (0+255),b
  1054   001696  6BE5               	clrf	(mover@y+3)& (0+255),b
  1055   001698  0E20               	movlw	32
  1056   00169A  6FE6               	movwf	mover@z& (0+255),b
  1057   00169C  0E03               	movlw	3
  1058   00169E  6FE7               	movwf	(mover@z+1)& (0+255),b
  1059   0016A0  0E00               	movlw	0
  1060   0016A2  6FE8               	movwf	(mover@z+2)& (0+255),b
  1061   0016A4  0E00               	movlw	0
  1062   0016A6  6FE9               	movwf	(mover@z+3)& (0+255),b
  1063   0016A8  0E00               	movlw	0
  1064   0016AA  6FEB               	movwf	(mover@absoluto+1)& (0+255),b
  1065   0016AC  0E01               	movlw	1
  1066   0016AE  6FEA               	movwf	mover@absoluto& (0+255),b
  1067   0016B0  ECDB  F00C         	call	_mover	;wreg free
  1068                           
  1069                           ;controlMotores.c: 374:         }
  1070   0016B4  EF40  F00C         	goto	l285
  1071   0016B8                     l3768:
  1072                           
  1073                           ; BSR set to: 0
  1074   0016B8  0E04               	movlw	4
  1075   0016BA  1976               	xorwf	_vactual& (0+255),w,b
  1076   0016BC  1177               	iorwf	(_vactual+1)& (0+255),w,b
  1077   0016BE  A4D8               	btfss	status,2,c
  1078   0016C0  EF64  F00B         	goto	u4871
  1079   0016C4  EF66  F00B         	goto	u4870
  1080   0016C8                     u4871:
  1081   0016C8  EF82  F00B         	goto	l3772
  1082   0016CC                     u4870:
  1083   0016CC                     
  1084                           ; BSR set to: 0
  1085                           ;controlMotores.c: 376:             mover(posiciones[5][1],posiciones[5][2],800,1);
  1086   0016CC  C0C6  F0DE         	movff	_posiciones+22,mover@x
  1087   0016D0  C0C7  F0DF         	movff	_posiciones+23,mover@x+1
  1088   0016D4  6BE0               	clrf	(mover@x+2)& (0+255),b
  1089   0016D6  6BE1               	clrf	(mover@x+3)& (0+255),b
  1090   0016D8  C0C8  F0E2         	movff	_posiciones+24,mover@y
  1091   0016DC  C0C9  F0E3         	movff	_posiciones+25,mover@y+1
  1092   0016E0  6BE4               	clrf	(mover@y+2)& (0+255),b
  1093   0016E2  6BE5               	clrf	(mover@y+3)& (0+255),b
  1094   0016E4  0E20               	movlw	32
  1095   0016E6  6FE6               	movwf	mover@z& (0+255),b
  1096   0016E8  0E03               	movlw	3
  1097   0016EA  6FE7               	movwf	(mover@z+1)& (0+255),b
  1098   0016EC  0E00               	movlw	0
  1099   0016EE  6FE8               	movwf	(mover@z+2)& (0+255),b
  1100   0016F0  0E00               	movlw	0
  1101   0016F2  6FE9               	movwf	(mover@z+3)& (0+255),b
  1102   0016F4  0E00               	movlw	0
  1103   0016F6  6FEB               	movwf	(mover@absoluto+1)& (0+255),b
  1104   0016F8  0E01               	movlw	1
  1105   0016FA  6FEA               	movwf	mover@absoluto& (0+255),b
  1106   0016FC  ECDB  F00C         	call	_mover	;wreg free
  1107                           
  1108                           ;controlMotores.c: 377:         }
  1109   001700  EF40  F00C         	goto	l285
  1110   001704                     l3772:
  1111                           
  1112                           ; BSR set to: 0
  1113   001704  0E05               	movlw	5
  1114   001706  1976               	xorwf	_vactual& (0+255),w,b
  1115   001708  1177               	iorwf	(_vactual+1)& (0+255),w,b
  1116   00170A  A4D8               	btfss	status,2,c
  1117   00170C  EF8A  F00B         	goto	u4881
  1118   001710  EF8C  F00B         	goto	u4880
  1119   001714                     u4881:
  1120   001714  EFA8  F00B         	goto	l3776
  1121   001718                     u4880:
  1122   001718                     
  1123                           ; BSR set to: 0
  1124                           ;controlMotores.c: 379:             mover(posiciones[6][1],posiciones[6][2],800,1);
  1125   001718  C0CA  F0DE         	movff	_posiciones+26,mover@x
  1126   00171C  C0CB  F0DF         	movff	_posiciones+27,mover@x+1
  1127   001720  6BE0               	clrf	(mover@x+2)& (0+255),b
  1128   001722  6BE1               	clrf	(mover@x+3)& (0+255),b
  1129   001724  C0CC  F0E2         	movff	_posiciones+28,mover@y
  1130   001728  C0CD  F0E3         	movff	_posiciones+29,mover@y+1
  1131   00172C  6BE4               	clrf	(mover@y+2)& (0+255),b
  1132   00172E  6BE5               	clrf	(mover@y+3)& (0+255),b
  1133   001730  0E20               	movlw	32
  1134   001732  6FE6               	movwf	mover@z& (0+255),b
  1135   001734  0E03               	movlw	3
  1136   001736  6FE7               	movwf	(mover@z+1)& (0+255),b
  1137   001738  0E00               	movlw	0
  1138   00173A  6FE8               	movwf	(mover@z+2)& (0+255),b
  1139   00173C  0E00               	movlw	0
  1140   00173E  6FE9               	movwf	(mover@z+3)& (0+255),b
  1141   001740  0E00               	movlw	0
  1142   001742  6FEB               	movwf	(mover@absoluto+1)& (0+255),b
  1143   001744  0E01               	movlw	1
  1144   001746  6FEA               	movwf	mover@absoluto& (0+255),b
  1145   001748  ECDB  F00C         	call	_mover	;wreg free
  1146                           
  1147                           ;controlMotores.c: 380:         }else if(vactual==6){
  1148   00174C  EF40  F00C         	goto	l285
  1149   001750                     l3776:
  1150                           
  1151                           ; BSR set to: 0
  1152   001750  0E06               	movlw	6
  1153   001752  1976               	xorwf	_vactual& (0+255),w,b
  1154   001754  1177               	iorwf	(_vactual+1)& (0+255),w,b
  1155   001756  A4D8               	btfss	status,2,c
  1156   001758  EFB0  F00B         	goto	u4891
  1157   00175C  EFB2  F00B         	goto	u4890
  1158   001760                     u4891:
  1159   001760  EFCE  F00B         	goto	l3780
  1160   001764                     u4890:
  1161   001764                     
  1162                           ; BSR set to: 0
  1163                           ;controlMotores.c: 381:             mover(posiciones[7][1],posiciones[7][2],800,1);
  1164   001764  C0CE  F0DE         	movff	_posiciones+30,mover@x
  1165   001768  C0CF  F0DF         	movff	_posiciones+31,mover@x+1
  1166   00176C  6BE0               	clrf	(mover@x+2)& (0+255),b
  1167   00176E  6BE1               	clrf	(mover@x+3)& (0+255),b
  1168   001770  C0D0  F0E2         	movff	_posiciones+32,mover@y
  1169   001774  C0D1  F0E3         	movff	_posiciones+33,mover@y+1
  1170   001778  6BE4               	clrf	(mover@y+2)& (0+255),b
  1171   00177A  6BE5               	clrf	(mover@y+3)& (0+255),b
  1172   00177C  0E20               	movlw	32
  1173   00177E  6FE6               	movwf	mover@z& (0+255),b
  1174   001780  0E03               	movlw	3
  1175   001782  6FE7               	movwf	(mover@z+1)& (0+255),b
  1176   001784  0E00               	movlw	0
  1177   001786  6FE8               	movwf	(mover@z+2)& (0+255),b
  1178   001788  0E00               	movlw	0
  1179   00178A  6FE9               	movwf	(mover@z+3)& (0+255),b
  1180   00178C  0E00               	movlw	0
  1181   00178E  6FEB               	movwf	(mover@absoluto+1)& (0+255),b
  1182   001790  0E01               	movlw	1
  1183   001792  6FEA               	movwf	mover@absoluto& (0+255),b
  1184   001794  ECDB  F00C         	call	_mover	;wreg free
  1185                           
  1186                           ;controlMotores.c: 382:         }else if(vactual==7){
  1187   001798  EF40  F00C         	goto	l285
  1188   00179C                     l3780:
  1189                           
  1190                           ; BSR set to: 0
  1191   00179C  0E07               	movlw	7
  1192   00179E  1976               	xorwf	_vactual& (0+255),w,b
  1193   0017A0  1177               	iorwf	(_vactual+1)& (0+255),w,b
  1194   0017A2  A4D8               	btfss	status,2,c
  1195   0017A4  EFD6  F00B         	goto	u4901
  1196   0017A8  EFD8  F00B         	goto	u4900
  1197   0017AC                     u4901:
  1198   0017AC  EFF4  F00B         	goto	l3784
  1199   0017B0                     u4900:
  1200   0017B0                     
  1201                           ; BSR set to: 0
  1202                           ;controlMotores.c: 383:             mover(posiciones[8][1],posiciones[8][2],800,1);
  1203   0017B0  C0D2  F0DE         	movff	_posiciones+34,mover@x
  1204   0017B4  C0D3  F0DF         	movff	_posiciones+35,mover@x+1
  1205   0017B8  6BE0               	clrf	(mover@x+2)& (0+255),b
  1206   0017BA  6BE1               	clrf	(mover@x+3)& (0+255),b
  1207   0017BC  C0D4  F0E2         	movff	_posiciones+36,mover@y
  1208   0017C0  C0D5  F0E3         	movff	_posiciones+37,mover@y+1
  1209   0017C4  6BE4               	clrf	(mover@y+2)& (0+255),b
  1210   0017C6  6BE5               	clrf	(mover@y+3)& (0+255),b
  1211   0017C8  0E20               	movlw	32
  1212   0017CA  6FE6               	movwf	mover@z& (0+255),b
  1213   0017CC  0E03               	movlw	3
  1214   0017CE  6FE7               	movwf	(mover@z+1)& (0+255),b
  1215   0017D0  0E00               	movlw	0
  1216   0017D2  6FE8               	movwf	(mover@z+2)& (0+255),b
  1217   0017D4  0E00               	movlw	0
  1218   0017D6  6FE9               	movwf	(mover@z+3)& (0+255),b
  1219   0017D8  0E00               	movlw	0
  1220   0017DA  6FEB               	movwf	(mover@absoluto+1)& (0+255),b
  1221   0017DC  0E01               	movlw	1
  1222   0017DE  6FEA               	movwf	mover@absoluto& (0+255),b
  1223   0017E0  ECDB  F00C         	call	_mover	;wreg free
  1224                           
  1225                           ;controlMotores.c: 384:         }else if(vactual==8){
  1226   0017E4  EF40  F00C         	goto	l285
  1227   0017E8                     l3784:
  1228                           
  1229                           ; BSR set to: 0
  1230   0017E8  0E08               	movlw	8
  1231   0017EA  1976               	xorwf	_vactual& (0+255),w,b
  1232   0017EC  1177               	iorwf	(_vactual+1)& (0+255),w,b
  1233   0017EE  A4D8               	btfss	status,2,c
  1234   0017F0  EFFC  F00B         	goto	u4911
  1235   0017F4  EFFE  F00B         	goto	u4910
  1236   0017F8                     u4911:
  1237   0017F8  EF1A  F00C         	goto	l3788
  1238   0017FC                     u4910:
  1239   0017FC                     
  1240                           ; BSR set to: 0
  1241                           ;controlMotores.c: 385:             mover(posiciones[9][1],posiciones[9][2],800,1);
  1242   0017FC  C0D6  F0DE         	movff	_posiciones+38,mover@x
  1243   001800  C0D7  F0DF         	movff	_posiciones+39,mover@x+1
  1244   001804  6BE0               	clrf	(mover@x+2)& (0+255),b
  1245   001806  6BE1               	clrf	(mover@x+3)& (0+255),b
  1246   001808  C0D8  F0E2         	movff	_posiciones+40,mover@y
  1247   00180C  C0D9  F0E3         	movff	_posiciones+41,mover@y+1
  1248   001810  6BE4               	clrf	(mover@y+2)& (0+255),b
  1249   001812  6BE5               	clrf	(mover@y+3)& (0+255),b
  1250   001814  0E20               	movlw	32
  1251   001816  6FE6               	movwf	mover@z& (0+255),b
  1252   001818  0E03               	movlw	3
  1253   00181A  6FE7               	movwf	(mover@z+1)& (0+255),b
  1254   00181C  0E00               	movlw	0
  1255   00181E  6FE8               	movwf	(mover@z+2)& (0+255),b
  1256   001820  0E00               	movlw	0
  1257   001822  6FE9               	movwf	(mover@z+3)& (0+255),b
  1258   001824  0E00               	movlw	0
  1259   001826  6FEB               	movwf	(mover@absoluto+1)& (0+255),b
  1260   001828  0E01               	movlw	1
  1261   00182A  6FEA               	movwf	mover@absoluto& (0+255),b
  1262   00182C  ECDB  F00C         	call	_mover	;wreg free
  1263                           
  1264                           ;controlMotores.c: 386:         }else if(vactual==9){
  1265   001830  EF40  F00C         	goto	l285
  1266   001834                     l3788:
  1267                           
  1268                           ; BSR set to: 0
  1269   001834  0E09               	movlw	9
  1270   001836  1976               	xorwf	_vactual& (0+255),w,b
  1271   001838  1177               	iorwf	(_vactual+1)& (0+255),w,b
  1272   00183A  A4D8               	btfss	status,2,c
  1273   00183C  EF22  F00C         	goto	u4921
  1274   001840  EF24  F00C         	goto	u4920
  1275   001844                     u4921:
  1276   001844  EF40  F00C         	goto	l295
  1277   001848                     u4920:
  1278   001848                     
  1279                           ; BSR set to: 0
  1280                           ;controlMotores.c: 387:             mover(posiciones[10][1],posiciones[10][2],800,1);
  1281   001848  C0DA  F0DE         	movff	_posiciones+42,mover@x
  1282   00184C  C0DB  F0DF         	movff	_posiciones+43,mover@x+1
  1283   001850  6BE0               	clrf	(mover@x+2)& (0+255),b
  1284   001852  6BE1               	clrf	(mover@x+3)& (0+255),b
  1285   001854  C0DC  F0E2         	movff	_posiciones+44,mover@y
  1286   001858  C0DD  F0E3         	movff	_posiciones+45,mover@y+1
  1287   00185C  6BE4               	clrf	(mover@y+2)& (0+255),b
  1288   00185E  6BE5               	clrf	(mover@y+3)& (0+255),b
  1289   001860  0E20               	movlw	32
  1290   001862  6FE6               	movwf	mover@z& (0+255),b
  1291   001864  0E03               	movlw	3
  1292   001866  6FE7               	movwf	(mover@z+1)& (0+255),b
  1293   001868  0E00               	movlw	0
  1294   00186A  6FE8               	movwf	(mover@z+2)& (0+255),b
  1295   00186C  0E00               	movlw	0
  1296   00186E  6FE9               	movwf	(mover@z+3)& (0+255),b
  1297   001870  0E00               	movlw	0
  1298   001872  6FEB               	movwf	(mover@absoluto+1)& (0+255),b
  1299   001874  0E01               	movlw	1
  1300   001876  6FEA               	movwf	mover@absoluto& (0+255),b
  1301   001878  ECDB  F00C         	call	_mover	;wreg free
  1302   00187C  EF40  F00C         	goto	l285
  1303   001880                     l295:
  1304   001880                     l285:
  1305                           
  1306                           ;controlMotores.c: 389:         mover(0,0,1500,0);
  1307   001880  0E00               	movlw	0
  1308   001882  0100               	movlb	0	; () banked
  1309   001884  6FDE               	movwf	mover@x& (0+255),b
  1310   001886  0E00               	movlw	0
  1311   001888  6FDF               	movwf	(mover@x+1)& (0+255),b
  1312   00188A  0E00               	movlw	0
  1313   00188C  6FE0               	movwf	(mover@x+2)& (0+255),b
  1314   00188E  0E00               	movlw	0
  1315   001890  6FE1               	movwf	(mover@x+3)& (0+255),b
  1316   001892  0E00               	movlw	0
  1317   001894  6FE2               	movwf	mover@y& (0+255),b
  1318   001896  0E00               	movlw	0
  1319   001898  6FE3               	movwf	(mover@y+1)& (0+255),b
  1320   00189A  0E00               	movlw	0
  1321   00189C  6FE4               	movwf	(mover@y+2)& (0+255),b
  1322   00189E  0E00               	movlw	0
  1323   0018A0  6FE5               	movwf	(mover@y+3)& (0+255),b
  1324   0018A2  0EDC               	movlw	220
  1325   0018A4  6FE6               	movwf	mover@z& (0+255),b
  1326   0018A6  0E05               	movlw	5
  1327   0018A8  6FE7               	movwf	(mover@z+1)& (0+255),b
  1328   0018AA  0E00               	movlw	0
  1329   0018AC  6FE8               	movwf	(mover@z+2)& (0+255),b
  1330   0018AE  0E00               	movlw	0
  1331   0018B0  6FE9               	movwf	(mover@z+3)& (0+255),b
  1332   0018B2  0E00               	movlw	0
  1333   0018B4  6FEB               	movwf	(mover@absoluto+1)& (0+255),b
  1334   0018B6  0E00               	movlw	0
  1335   0018B8  6FEA               	movwf	mover@absoluto& (0+255),b
  1336   0018BA  ECDB  F00C         	call	_mover	;wreg free
  1337                           
  1338                           ;controlMotores.c: 390:         mover(0,-50,0,0);
  1339   0018BE  0E00               	movlw	0
  1340   0018C0  0100               	movlb	0	; () banked
  1341   0018C2  6FDE               	movwf	mover@x& (0+255),b
  1342   0018C4  0E00               	movlw	0
  1343   0018C6  6FDF               	movwf	(mover@x+1)& (0+255),b
  1344   0018C8  0E00               	movlw	0
  1345   0018CA  6FE0               	movwf	(mover@x+2)& (0+255),b
  1346   0018CC  0E00               	movlw	0
  1347   0018CE  6FE1               	movwf	(mover@x+3)& (0+255),b
  1348   0018D0  0ECE               	movlw	206
  1349   0018D2  6FE2               	movwf	mover@y& (0+255),b
  1350   0018D4  0EFF               	movlw	255
  1351   0018D6  6FE3               	movwf	(mover@y+1)& (0+255),b
  1352   0018D8  0EFF               	movlw	255
  1353   0018DA  6FE4               	movwf	(mover@y+2)& (0+255),b
  1354   0018DC  0EFF               	movlw	255
  1355   0018DE  6FE5               	movwf	(mover@y+3)& (0+255),b
  1356   0018E0  0E00               	movlw	0
  1357   0018E2  6FE6               	movwf	mover@z& (0+255),b
  1358   0018E4  0E00               	movlw	0
  1359   0018E6  6FE7               	movwf	(mover@z+1)& (0+255),b
  1360   0018E8  0E00               	movlw	0
  1361   0018EA  6FE8               	movwf	(mover@z+2)& (0+255),b
  1362   0018EC  0E00               	movlw	0
  1363   0018EE  6FE9               	movwf	(mover@z+3)& (0+255),b
  1364   0018F0  0E00               	movlw	0
  1365   0018F2  6FEB               	movwf	(mover@absoluto+1)& (0+255),b
  1366   0018F4  0E00               	movlw	0
  1367   0018F6  6FEA               	movwf	mover@absoluto& (0+255),b
  1368   0018F8  ECDB  F00C         	call	_mover	;wreg free
  1369                           
  1370                           ;controlMotores.c: 391:         mover(0,0,-1500,0);
  1371   0018FC  0E00               	movlw	0
  1372   0018FE  0100               	movlb	0	; () banked
  1373   001900  6FDE               	movwf	mover@x& (0+255),b
  1374   001902  0E00               	movlw	0
  1375   001904  6FDF               	movwf	(mover@x+1)& (0+255),b
  1376   001906  0E00               	movlw	0
  1377   001908  6FE0               	movwf	(mover@x+2)& (0+255),b
  1378   00190A  0E00               	movlw	0
  1379   00190C  6FE1               	movwf	(mover@x+3)& (0+255),b
  1380   00190E  0E00               	movlw	0
  1381   001910  6FE2               	movwf	mover@y& (0+255),b
  1382   001912  0E00               	movlw	0
  1383   001914  6FE3               	movwf	(mover@y+1)& (0+255),b
  1384   001916  0E00               	movlw	0
  1385   001918  6FE4               	movwf	(mover@y+2)& (0+255),b
  1386   00191A  0E00               	movlw	0
  1387   00191C  6FE5               	movwf	(mover@y+3)& (0+255),b
  1388   00191E  0E24               	movlw	36
  1389   001920  6FE6               	movwf	mover@z& (0+255),b
  1390   001922  0EFA               	movlw	250
  1391   001924  6FE7               	movwf	(mover@z+1)& (0+255),b
  1392   001926  0EFF               	movlw	255
  1393   001928  6FE8               	movwf	(mover@z+2)& (0+255),b
  1394   00192A  0EFF               	movlw	255
  1395   00192C  6FE9               	movwf	(mover@z+3)& (0+255),b
  1396   00192E  0E00               	movlw	0
  1397   001930  6FEB               	movwf	(mover@absoluto+1)& (0+255),b
  1398   001932  0E00               	movlw	0
  1399   001934  6FEA               	movwf	mover@absoluto& (0+255),b
  1400   001936  ECDB  F00C         	call	_mover	;wreg free
  1401   00193A                     
  1402                           ;controlMotores.c: 392:         vactual=0;
  1403   00193A  0E00               	movlw	0
  1404   00193C  0100               	movlb	0	; () banked
  1405   00193E  6F77               	movwf	(_vactual+1)& (0+255),b
  1406   001940  0E00               	movlw	0
  1407   001942  6F76               	movwf	_vactual& (0+255),b
  1408                           
  1409                           ;controlMotores.c: 393:       }
  1410   001944  EFD7  F00C         	goto	l3796
  1411   001948                     l3794:
  1412                           
  1413                           ; BSR set to: 0
  1414                           ;controlMotores.c: 395:         Transmitir('E');
  1415   001948  0E45               	movlw	69
  1416   00194A  EC80  F014         	call	_Transmitir
  1417                           
  1418                           ;controlMotores.c: 396:         Transmitir('R');
  1419   00194E  0E52               	movlw	82
  1420   001950  EC80  F014         	call	_Transmitir
  1421                           
  1422                           ;controlMotores.c: 397:         Transmitir('R');
  1423   001954  0E52               	movlw	82
  1424   001956  EC80  F014         	call	_Transmitir
  1425                           
  1426                           ;controlMotores.c: 398:         Transmitir('O');
  1427   00195A  0E4F               	movlw	79
  1428   00195C  EC80  F014         	call	_Transmitir
  1429                           
  1430                           ;controlMotores.c: 399:         Transmitir('R');
  1431   001960  0E52               	movlw	82
  1432   001962  EC80  F014         	call	_Transmitir
  1433                           
  1434                           ;controlMotores.c: 400:         Transmitir(' ');
  1435   001966  0E20               	movlw	32
  1436   001968  EC80  F014         	call	_Transmitir
  1437                           
  1438                           ;controlMotores.c: 401:         Transmitir('S');
  1439   00196C  0E53               	movlw	83
  1440   00196E  EC80  F014         	call	_Transmitir
  1441                           
  1442                           ;controlMotores.c: 402:         Transmitir('A');
  1443   001972  0E41               	movlw	65
  1444   001974  EC80  F014         	call	_Transmitir
  1445                           
  1446                           ;controlMotores.c: 403:         Transmitir('Q');
  1447   001978  0E51               	movlw	81
  1448   00197A  EC80  F014         	call	_Transmitir
  1449                           
  1450                           ;controlMotores.c: 404:         Transmitir('U');
  1451   00197E  0E55               	movlw	85
  1452   001980  EC80  F014         	call	_Transmitir
  1453                           
  1454                           ;controlMotores.c: 405:         Transmitir('E');
  1455   001984  0E45               	movlw	69
  1456   001986  EC80  F014         	call	_Transmitir
  1457                           
  1458                           ;controlMotores.c: 406:         Transmitir(' ');
  1459   00198A  0E20               	movlw	32
  1460   00198C  EC80  F014         	call	_Transmitir
  1461                           
  1462                           ;controlMotores.c: 407:         Transmitir('A');
  1463   001990  0E41               	movlw	65
  1464   001992  EC80  F014         	call	_Transmitir
  1465                           
  1466                           ;controlMotores.c: 408:         Transmitir('N');
  1467   001996  0E4E               	movlw	78
  1468   001998  EC80  F014         	call	_Transmitir
  1469                           
  1470                           ;controlMotores.c: 409:         Transmitir('T');
  1471   00199C  0E54               	movlw	84
  1472   00199E  EC80  F014         	call	_Transmitir
  1473                           
  1474                           ;controlMotores.c: 410:         Transmitir('E');
  1475   0019A2  0E45               	movlw	69
  1476   0019A4  EC80  F014         	call	_Transmitir
  1477                           
  1478                           ;controlMotores.c: 411:         Transmitir('S');
  1479   0019A8  0E53               	movlw	83
  1480   0019AA  EC80  F014         	call	_Transmitir
  1481   0019AE                     l3796:
  1482                           
  1483                           ;controlMotores.c: 413:     estado='e';
  1484   0019AE  0E65               	movlw	101
  1485   0019B0  0100               	movlb	0	; () banked
  1486   0019B2  6F9F               	movwf	_estado& (0+255),b
  1487   0019B4                     
  1488                           ; BSR set to: 0
  1489   0019B4  0012               	return		;funcret
  1490   0019B6                     __end_of_guardarV:
  1491                           	callstack 0
  1492                           
  1493 ;; *************** function _mover *****************
  1494 ;; Defined at:
  1495 ;;		line 289 in file "controlMotores.c"
  1496 ;; Parameters:    Size  Location     Type
  1497 ;;  x               4    2[BANK0 ] long 
  1498 ;;  y               4    6[BANK0 ] long 
  1499 ;;  z               4   10[BANK0 ] long 
  1500 ;;  absoluto        2   14[BANK0 ] int 
  1501 ;; Auto vars:     Size  Location     Type
  1502 ;;		None
  1503 ;; Return value:  Size  Location     Type
  1504 ;;                  1    wreg      void 
  1505 ;; Registers used:
  1506 ;;		wreg, fsr2l, fsr2h, status,2, status,0, prodl, prodh, cstack
  1507 ;; Tracked objects:
  1508 ;;		On entry : 0/0
  1509 ;;		On exit  : 0/0
  1510 ;;		Unchanged: 0/0
  1511 ;; Data sizes:     COMRAM   BANK0   BANK1   BANK2   BANK3   BANK4   BANK5   BANK6   BANK7
  1512 ;;      Params:         0      14       0       0       0       0       0       0       0
  1513 ;;      Locals:         0       0       0       0       0       0       0       0       0
  1514 ;;      Temps:          0       5       0       0       0       0       0       0       0
  1515 ;;      Totals:         0      19       0       0       0       0       0       0       0
  1516 ;;Total ram usage:       19 bytes
  1517 ;; Hardware stack levels used: 1
  1518 ;; Hardware stack levels required when called: 4
  1519 ;; This function calls:
  1520 ;;		___fldiv
  1521 ;;		___flmul
  1522 ;;		___xxtofl
  1523 ;;		_precargas
  1524 ;; This function is called by:
  1525 ;;		_main
  1526 ;;		_guardarV
  1527 ;;		_sacarV
  1528 ;; This function uses a non-reentrant model
  1529 ;;
  1530                           
  1531                           	psect	text2
  1532   0019B6                     __ptext2:
  1533                           	callstack 0
  1534   0019B6                     _mover:
  1535                           	callstack 26
  1536   0019B6                     
  1537                           ;controlMotores.c: 290:     if(absoluto==1){
  1538   0019B6  0100               	movlb	0	; () banked
  1539   0019B8  05EA               	decf	mover@absoluto& (0+255),w,b
  1540   0019BA  11EB               	iorwf	(mover@absoluto+1)& (0+255),w,b
  1541   0019BC  A4D8               	btfss	status,2,c
  1542   0019BE  EFE3  F00C         	goto	u4721
  1543   0019C2  EFE5  F00C         	goto	u4720
  1544   0019C6                     u4721:
  1545   0019C6  EF62  F00D         	goto	l3718
  1546   0019CA                     u4720:
  1547   0019CA                     
  1548                           ; BSR set to: 0
  1549                           ;controlMotores.c: 291:         if(x>posX){
  1550   0019CA  517E               	movf	_posX& (0+255),w,b
  1551   0019CC  6FEC               	movwf	??_mover& (0+255),b
  1552   0019CE  517F               	movf	(_posX+1)& (0+255),w,b
  1553   0019D0  6FED               	movwf	(??_mover+1)& (0+255),b
  1554   0019D2  6BEE               	clrf	(??_mover+2)& (0+255),b
  1555   0019D4  6BEF               	clrf	(??_mover+3)& (0+255),b
  1556   0019D6  51DE               	movf	mover@x& (0+255),w,b
  1557   0019D8  5DEC               	subwf	??_mover& (0+255),w,b
  1558   0019DA  51DF               	movf	(mover@x+1)& (0+255),w,b
  1559   0019DC  59ED               	subwfb	(??_mover+1)& (0+255),w,b
  1560   0019DE  51E0               	movf	(mover@x+2)& (0+255),w,b
  1561   0019E0  59EE               	subwfb	(??_mover+2)& (0+255),w,b
  1562   0019E2  51EF               	movf	(??_mover+3)& (0+255),w,b
  1563   0019E4  0A80               	xorlw	128
  1564   0019E6  6FF0               	movwf	(??_mover+4)& (0+255),b
  1565   0019E8  51E1               	movf	(mover@x+3)& (0+255),w,b
  1566   0019EA  0A80               	xorlw	128
  1567   0019EC  59F0               	subwfb	(??_mover+4)& (0+255),w,b
  1568   0019EE  B0D8               	btfsc	status,0,c
  1569   0019F0  EFFC  F00C         	goto	u4731
  1570   0019F4  EFFE  F00C         	goto	u4730
  1571   0019F8                     u4731:
  1572   0019F8  EF07  F00D         	goto	l3698
  1573   0019FC                     u4730:
  1574   0019FC                     
  1575                           ; BSR set to: 0
  1576                           ;controlMotores.c: 292:             pasosX = (unsigned int)(x-posX);
  1577   0019FC  517E               	movf	_posX& (0+255),w,b
  1578   0019FE  5DDE               	subwf	mover@x& (0+255),w,b
  1579   001A00  6F9C               	movwf	_pasosX& (0+255),b
  1580   001A02  517F               	movf	(_posX+1)& (0+255),w,b
  1581   001A04  59DF               	subwfb	(mover@x+1)& (0+255),w,b
  1582   001A06  6F9D               	movwf	(_pasosX+1)& (0+255),b
  1583   001A08                     
  1584                           ; BSR set to: 0
  1585                           ;controlMotores.c: 293:             LATD2 = 1;
  1586   001A08  848C               	bsf	3980,2,c	;volatile
  1587                           
  1588                           ;controlMotores.c: 294:         }else{
  1589   001A0A  EF0E  F00D         	goto	l263
  1590   001A0E                     l3698:
  1591                           
  1592                           ; BSR set to: 0
  1593                           ;controlMotores.c: 295:             pasosX = (unsigned int)(posX-x);
  1594   001A0E  51DE               	movf	mover@x& (0+255),w,b
  1595   001A10  5D7E               	subwf	_posX& (0+255),w,b
  1596   001A12  6F9C               	movwf	_pasosX& (0+255),b
  1597   001A14  51DF               	movf	(mover@x+1)& (0+255),w,b
  1598   001A16  597F               	subwfb	(_posX+1)& (0+255),w,b
  1599   001A18  6F9D               	movwf	(_pasosX+1)& (0+255),b
  1600   001A1A                     
  1601                           ; BSR set to: 0
  1602                           ;controlMotores.c: 296:             LATD2 = 0;
  1603   001A1A  948C               	bcf	3980,2,c	;volatile
  1604   001A1C                     l263:
  1605                           
  1606                           ; BSR set to: 0
  1607                           ;controlMotores.c: 299:         if(y>posY){
  1608   001A1C  517C               	movf	_posY& (0+255),w,b
  1609   001A1E  6FEC               	movwf	??_mover& (0+255),b
  1610   001A20  517D               	movf	(_posY+1)& (0+255),w,b
  1611   001A22  6FED               	movwf	(??_mover+1)& (0+255),b
  1612   001A24  6BEE               	clrf	(??_mover+2)& (0+255),b
  1613   001A26  6BEF               	clrf	(??_mover+3)& (0+255),b
  1614   001A28  51E2               	movf	mover@y& (0+255),w,b
  1615   001A2A  5DEC               	subwf	??_mover& (0+255),w,b
  1616   001A2C  51E3               	movf	(mover@y+1)& (0+255),w,b
  1617   001A2E  59ED               	subwfb	(??_mover+1)& (0+255),w,b
  1618   001A30  51E4               	movf	(mover@y+2)& (0+255),w,b
  1619   001A32  59EE               	subwfb	(??_mover+2)& (0+255),w,b
  1620   001A34  51EF               	movf	(??_mover+3)& (0+255),w,b
  1621   001A36  0A80               	xorlw	128
  1622   001A38  6FF0               	movwf	(??_mover+4)& (0+255),b
  1623   001A3A  51E5               	movf	(mover@y+3)& (0+255),w,b
  1624   001A3C  0A80               	xorlw	128
  1625   001A3E  59F0               	subwfb	(??_mover+4)& (0+255),w,b
  1626   001A40  B0D8               	btfsc	status,0,c
  1627   001A42  EF25  F00D         	goto	u4741
  1628   001A46  EF27  F00D         	goto	u4740
  1629   001A4A                     u4741:
  1630   001A4A  EF30  F00D         	goto	l3706
  1631   001A4E                     u4740:
  1632   001A4E                     
  1633                           ; BSR set to: 0
  1634                           ;controlMotores.c: 300:             pasosY = (unsigned int)(y-posY);
  1635   001A4E  517C               	movf	_posY& (0+255),w,b
  1636   001A50  5DE2               	subwf	mover@y& (0+255),w,b
  1637   001A52  6F9A               	movwf	_pasosY& (0+255),b
  1638   001A54  517D               	movf	(_posY+1)& (0+255),w,b
  1639   001A56  59E3               	subwfb	(mover@y+1)& (0+255),w,b
  1640   001A58  6F9B               	movwf	(_pasosY+1)& (0+255),b
  1641   001A5A                     
  1642                           ; BSR set to: 0
  1643                           ;controlMotores.c: 301:             LATD3 = 1;
  1644   001A5A  868C               	bsf	3980,3,c	;volatile
  1645                           
  1646                           ;controlMotores.c: 302:         }else{
  1647   001A5C  EF37  F00D         	goto	l265
  1648   001A60                     l3706:
  1649                           
  1650                           ; BSR set to: 0
  1651                           ;controlMotores.c: 303:             pasosY = (unsigned int)(posY-y);
  1652   001A60  51E2               	movf	mover@y& (0+255),w,b
  1653   001A62  5D7C               	subwf	_posY& (0+255),w,b
  1654   001A64  6F9A               	movwf	_pasosY& (0+255),b
  1655   001A66  51E3               	movf	(mover@y+1)& (0+255),w,b
  1656   001A68  597D               	subwfb	(_posY+1)& (0+255),w,b
  1657   001A6A  6F9B               	movwf	(_pasosY+1)& (0+255),b
  1658   001A6C                     
  1659                           ; BSR set to: 0
  1660                           ;controlMotores.c: 304:             LATD3 = 0;
  1661   001A6C  968C               	bcf	3980,3,c	;volatile
  1662   001A6E                     l265:
  1663                           
  1664                           ; BSR set to: 0
  1665                           ;controlMotores.c: 307:         if(z>posZ){
  1666   001A6E  517A               	movf	_posZ& (0+255),w,b
  1667   001A70  6FEC               	movwf	??_mover& (0+255),b
  1668   001A72  517B               	movf	(_posZ+1)& (0+255),w,b
  1669   001A74  6FED               	movwf	(??_mover+1)& (0+255),b
  1670   001A76  6BEE               	clrf	(??_mover+2)& (0+255),b
  1671   001A78  6BEF               	clrf	(??_mover+3)& (0+255),b
  1672   001A7A  51E6               	movf	mover@z& (0+255),w,b
  1673   001A7C  5DEC               	subwf	??_mover& (0+255),w,b
  1674   001A7E  51E7               	movf	(mover@z+1)& (0+255),w,b
  1675   001A80  59ED               	subwfb	(??_mover+1)& (0+255),w,b
  1676   001A82  51E8               	movf	(mover@z+2)& (0+255),w,b
  1677   001A84  59EE               	subwfb	(??_mover+2)& (0+255),w,b
  1678   001A86  51EF               	movf	(??_mover+3)& (0+255),w,b
  1679   001A88  0A80               	xorlw	128
  1680   001A8A  6FF0               	movwf	(??_mover+4)& (0+255),b
  1681   001A8C  51E9               	movf	(mover@z+3)& (0+255),w,b
  1682   001A8E  0A80               	xorlw	128
  1683   001A90  59F0               	subwfb	(??_mover+4)& (0+255),w,b
  1684   001A92  B0D8               	btfsc	status,0,c
  1685   001A94  EF4E  F00D         	goto	u4751
  1686   001A98  EF50  F00D         	goto	u4750
  1687   001A9C                     u4751:
  1688   001A9C  EF59  F00D         	goto	l3714
  1689   001AA0                     u4750:
  1690   001AA0                     
  1691                           ; BSR set to: 0
  1692                           ;controlMotores.c: 308:             pasosZ = (unsigned int)(z-posZ);
  1693   001AA0  517A               	movf	_posZ& (0+255),w,b
  1694   001AA2  5DE6               	subwf	mover@z& (0+255),w,b
  1695   001AA4  6F98               	movwf	_pasosZ& (0+255),b
  1696   001AA6  517B               	movf	(_posZ+1)& (0+255),w,b
  1697   001AA8  59E7               	subwfb	(mover@z+1)& (0+255),w,b
  1698   001AAA  6F99               	movwf	(_pasosZ+1)& (0+255),b
  1699   001AAC                     
  1700                           ; BSR set to: 0
  1701                           ;controlMotores.c: 309:             LATD4 = 1;
  1702   001AAC  888C               	bsf	3980,4,c	;volatile
  1703                           
  1704                           ;controlMotores.c: 310:         }else{
  1705   001AAE  EFCB  F00D         	goto	l3730
  1706   001AB2                     l3714:
  1707                           
  1708                           ; BSR set to: 0
  1709                           ;controlMotores.c: 311:             pasosZ = (unsigned int)(posZ-z);
  1710   001AB2  51E6               	movf	mover@z& (0+255),w,b
  1711   001AB4  5D7A               	subwf	_posZ& (0+255),w,b
  1712   001AB6  6F98               	movwf	_pasosZ& (0+255),b
  1713   001AB8  51E7               	movf	(mover@z+1)& (0+255),w,b
  1714   001ABA  597B               	subwfb	(_posZ+1)& (0+255),w,b
  1715   001ABC  6F99               	movwf	(_pasosZ+1)& (0+255),b
  1716   001ABE                     
  1717                           ; BSR set to: 0
  1718                           ;controlMotores.c: 312:             LATD4 = 0;
  1719   001ABE  988C               	bcf	3980,4,c	;volatile
  1720   001AC0  EFCB  F00D         	goto	l3730
  1721   001AC4                     l3718:
  1722                           
  1723                           ; BSR set to: 0
  1724                           ;controlMotores.c: 315:         if(x>0){
  1725   001AC4  BFE1               	btfsc	(mover@x+3)& (0+255),7,b
  1726   001AC6  EF6F  F00D         	goto	u4761
  1727   001ACA  51E1               	movf	(mover@x+3)& (0+255),w,b
  1728   001ACC  11E0               	iorwf	(mover@x+2)& (0+255),w,b
  1729   001ACE  11DF               	iorwf	(mover@x+1)& (0+255),w,b
  1730   001AD0  E108               	bnz	u4760
  1731   001AD2  05DE               	decf	mover@x& (0+255),w,b
  1732   001AD4  A0D8               	btfss	status,0,c
  1733   001AD6  EF6F  F00D         	goto	u4761
  1734   001ADA  EF71  F00D         	goto	u4760
  1735   001ADE                     u4761:
  1736   001ADE  EF78  F00D         	goto	l269
  1737   001AE2                     u4760:
  1738   001AE2                     
  1739                           ; BSR set to: 0
  1740                           ;controlMotores.c: 316:             pasosX = (unsigned int)(x);
  1741   001AE2  C0DE  F09C         	movff	mover@x,_pasosX
  1742   001AE6  C0DF  F09D         	movff	mover@x+1,_pasosX+1
  1743                           
  1744                           ;controlMotores.c: 317:             LATD2 = 1;
  1745   001AEA  848C               	bsf	3980,2,c	;volatile
  1746                           
  1747                           ;controlMotores.c: 318:         }else{
  1748   001AEC  EF85  F00D         	goto	l3722
  1749   001AF0                     l269:
  1750                           
  1751                           ; BSR set to: 0
  1752                           ;controlMotores.c: 319:             pasosX = (unsigned int)(-x);
  1753   001AF0  C0DE  F0EC         	movff	mover@x,??_mover
  1754   001AF4  C0DF  F0ED         	movff	mover@x+1,??_mover+1
  1755   001AF8  1FEC               	comf	??_mover& (0+255),f,b
  1756   001AFA  1FED               	comf	(??_mover+1)& (0+255),f,b
  1757   001AFC  4BEC               	infsnz	??_mover& (0+255),f,b
  1758   001AFE  2BED               	incf	(??_mover+1)& (0+255),f,b
  1759   001B00  C0EC  F09C         	movff	??_mover,_pasosX
  1760   001B04  C0ED  F09D         	movff	??_mover+1,_pasosX+1
  1761                           
  1762                           ;controlMotores.c: 320:             LATD2 = 0;
  1763   001B08  948C               	bcf	3980,2,c	;volatile
  1764   001B0A                     l3722:
  1765                           
  1766                           ; BSR set to: 0
  1767                           ;controlMotores.c: 323:         if(y>0){
  1768   001B0A  BFE5               	btfsc	(mover@y+3)& (0+255),7,b
  1769   001B0C  EF92  F00D         	goto	u4771
  1770   001B10  51E5               	movf	(mover@y+3)& (0+255),w,b
  1771   001B12  11E4               	iorwf	(mover@y+2)& (0+255),w,b
  1772   001B14  11E3               	iorwf	(mover@y+1)& (0+255),w,b
  1773   001B16  E108               	bnz	u4770
  1774   001B18  05E2               	decf	mover@y& (0+255),w,b
  1775   001B1A  A0D8               	btfss	status,0,c
  1776   001B1C  EF92  F00D         	goto	u4771
  1777   001B20  EF94  F00D         	goto	u4770
  1778   001B24                     u4771:
  1779   001B24  EF9B  F00D         	goto	l271
  1780   001B28                     u4770:
  1781   001B28                     
  1782                           ; BSR set to: 0
  1783                           ;controlMotores.c: 324:             pasosY = (unsigned int)(y);
  1784   001B28  C0E2  F09A         	movff	mover@y,_pasosY
  1785   001B2C  C0E3  F09B         	movff	mover@y+1,_pasosY+1
  1786                           
  1787                           ;controlMotores.c: 325:             LATD3 = 1;
  1788   001B30  868C               	bsf	3980,3,c	;volatile
  1789                           
  1790                           ;controlMotores.c: 326:         }else{
  1791   001B32  EFA8  F00D         	goto	l3726
  1792   001B36                     l271:
  1793                           
  1794                           ; BSR set to: 0
  1795                           ;controlMotores.c: 327:             pasosY = (unsigned int)(-y);
  1796   001B36  C0E2  F0EC         	movff	mover@y,??_mover
  1797   001B3A  C0E3  F0ED         	movff	mover@y+1,??_mover+1
  1798   001B3E  1FEC               	comf	??_mover& (0+255),f,b
  1799   001B40  1FED               	comf	(??_mover+1)& (0+255),f,b
  1800   001B42  4BEC               	infsnz	??_mover& (0+255),f,b
  1801   001B44  2BED               	incf	(??_mover+1)& (0+255),f,b
  1802   001B46  C0EC  F09A         	movff	??_mover,_pasosY
  1803   001B4A  C0ED  F09B         	movff	??_mover+1,_pasosY+1
  1804                           
  1805                           ;controlMotores.c: 328:             LATD3 = 0;
  1806   001B4E  968C               	bcf	3980,3,c	;volatile
  1807   001B50                     l3726:
  1808                           
  1809                           ; BSR set to: 0
  1810                           ;controlMotores.c: 331:         if(z>0){
  1811   001B50  BFE9               	btfsc	(mover@z+3)& (0+255),7,b
  1812   001B52  EFB5  F00D         	goto	u4781
  1813   001B56  51E9               	movf	(mover@z+3)& (0+255),w,b
  1814   001B58  11E8               	iorwf	(mover@z+2)& (0+255),w,b
  1815   001B5A  11E7               	iorwf	(mover@z+1)& (0+255),w,b
  1816   001B5C  E108               	bnz	u4780
  1817   001B5E  05E6               	decf	mover@z& (0+255),w,b
  1818   001B60  A0D8               	btfss	status,0,c
  1819   001B62  EFB5  F00D         	goto	u4781
  1820   001B66  EFB7  F00D         	goto	u4780
  1821   001B6A                     u4781:
  1822   001B6A  EFBE  F00D         	goto	l273
  1823   001B6E                     u4780:
  1824   001B6E                     
  1825                           ; BSR set to: 0
  1826                           ;controlMotores.c: 332:             pasosZ = (unsigned int)(z);
  1827   001B6E  C0E6  F098         	movff	mover@z,_pasosZ
  1828   001B72  C0E7  F099         	movff	mover@z+1,_pasosZ+1
  1829                           
  1830                           ;controlMotores.c: 333:             LATD4 = 1;
  1831   001B76  888C               	bsf	3980,4,c	;volatile
  1832                           
  1833                           ;controlMotores.c: 334:         }else{
  1834   001B78  EFCB  F00D         	goto	l3730
  1835   001B7C                     l273:
  1836                           
  1837                           ; BSR set to: 0
  1838                           ;controlMotores.c: 335:             pasosZ = (unsigned int)(-z);
  1839   001B7C  C0E6  F0EC         	movff	mover@z,??_mover
  1840   001B80  C0E7  F0ED         	movff	mover@z+1,??_mover+1
  1841   001B84  1FEC               	comf	??_mover& (0+255),f,b
  1842   001B86  1FED               	comf	(??_mover+1)& (0+255),f,b
  1843   001B88  4BEC               	infsnz	??_mover& (0+255),f,b
  1844   001B8A  2BED               	incf	(??_mover+1)& (0+255),f,b
  1845   001B8C  C0EC  F098         	movff	??_mover,_pasosZ
  1846   001B90  C0ED  F099         	movff	??_mover+1,_pasosZ+1
  1847                           
  1848                           ;controlMotores.c: 336:             LATD4 = 0;
  1849   001B94  988C               	bcf	3980,4,c	;volatile
  1850   001B96                     l3730:
  1851                           
  1852                           ; BSR set to: 0
  1853                           ;controlMotores.c: 340:     if (pasosX>0){
  1854   001B96  519C               	movf	_pasosX& (0+255),w,b
  1855   001B98  119D               	iorwf	(_pasosX+1)& (0+255),w,b
  1856   001B9A  B4D8               	btfsc	status,2,c
  1857   001B9C  EFD2  F00D         	goto	u4791
  1858   001BA0  EFD4  F00D         	goto	u4790
  1859   001BA4                     u4791:
  1860   001BA4  EF27  F00E         	goto	l3738
  1861   001BA8                     u4790:
  1862   001BA8                     
  1863                           ; BSR set to: 0
  1864                           ;controlMotores.c: 341:         pasosXDados = 0;
  1865   001BA8  0E00               	movlw	0
  1866   001BAA  6F97               	movwf	(_pasosXDados+1)& (0+255),b
  1867   001BAC  0E00               	movlw	0
  1868   001BAE  6F96               	movwf	_pasosXDados& (0+255),b
  1869   001BB0                     
  1870                           ; BSR set to: 0
  1871                           ;controlMotores.c: 342:         vCx = (pasosX*0.5)/Ta;
  1872   001BB0  0E00               	movlw	0
  1873   001BB2  6E17               	movwf	___flmul@a^0,c
  1874   001BB4  0E00               	movlw	0
  1875   001BB6  6E18               	movwf	(___flmul@a+1)^0,c
  1876   001BB8  0E00               	movlw	0
  1877   001BBA  6E19               	movwf	(___flmul@a+2)^0,c
  1878   001BBC  0E3F               	movlw	63
  1879   001BBE  6E1A               	movwf	(___flmul@a+3)^0,c
  1880   001BC0  C09C  F005         	movff	_pasosX,___xxtofl@val
  1881   001BC4  C09D  F006         	movff	_pasosX+1,___xxtofl@val+1
  1882   001BC8  6A07               	clrf	(___xxtofl@val+2)^0,c
  1883   001BCA  6A08               	clrf	(___xxtofl@val+3)^0,c
  1884   001BCC  0E00               	movlw	0
  1885   001BCE  ECAB  F011         	call	___xxtofl
  1886   001BD2  C005  F013         	movff	?___xxtofl,___flmul@b
  1887   001BD6  C006  F014         	movff	?___xxtofl+1,___flmul@b+1
  1888   001BDA  C007  F015         	movff	?___xxtofl+2,___flmul@b+2
  1889   001BDE  C008  F016         	movff	?___xxtofl+3,___flmul@b+3
  1890   001BE2  ECCC  F008         	call	___flmul	;wreg free
  1891   001BE6  C013  F02C         	movff	?___flmul,___fldiv@b
  1892   001BEA  C014  F02D         	movff	?___flmul+1,___fldiv@b+1
  1893   001BEE  C015  F02E         	movff	?___flmul+2,___fldiv@b+2
  1894   001BF2  C016  F02F         	movff	?___flmul+3,___fldiv@b+3
  1895   001BF6  C0F7  F030         	movff	_Ta,___fldiv@a
  1896   001BFA  C0F8  F031         	movff	_Ta+1,___fldiv@a+1
  1897   001BFE  C0F9  F032         	movff	_Ta+2,___fldiv@a+2
  1898   001C02  C0FA  F033         	movff	_Ta+3,___fldiv@a+3
  1899   001C06  ECAC  F00E         	call	___fldiv	;wreg free
  1900   001C0A  C02C  F0AC         	movff	?___fldiv,_vCx
  1901   001C0E  C02D  F0AD         	movff	?___fldiv+1,_vCx+1
  1902   001C12  C02E  F0AE         	movff	?___fldiv+2,_vCx+2
  1903   001C16  C02F  F0AF         	movff	?___fldiv+3,_vCx+3
  1904   001C1A                     
  1905                           ;controlMotores.c: 343:         v5x = 0.05*vCx;
  1906   001C1A  C0AC  F013         	movff	_vCx,___flmul@b
  1907   001C1E  C0AD  F014         	movff	_vCx+1,___flmul@b+1
  1908   001C22  C0AE  F015         	movff	_vCx+2,___flmul@b+2
  1909   001C26  C0AF  F016         	movff	_vCx+3,___flmul@b+3
  1910   001C2A  0ECD               	movlw	205
  1911   001C2C  6E17               	movwf	___flmul@a^0,c
  1912   001C2E  0ECC               	movlw	204
  1913   001C30  6E18               	movwf	(___flmul@a+1)^0,c
  1914   001C32  0E4C               	movlw	76
  1915   001C34  6E19               	movwf	(___flmul@a+2)^0,c
  1916   001C36  0E3D               	movlw	61
  1917   001C38  6E1A               	movwf	(___flmul@a+3)^0,c
  1918   001C3A  ECCC  F008         	call	___flmul	;wreg free
  1919   001C3E  C013  F068         	movff	?___flmul,_v5x
  1920   001C42  C014  F069         	movff	?___flmul+1,_v5x+1
  1921   001C46  C015  F06A         	movff	?___flmul+2,_v5x+2
  1922   001C4A  C016  F06B         	movff	?___flmul+3,_v5x+3
  1923   001C4E                     l3738:
  1924                           
  1925                           ;controlMotores.c: 346:     if (pasosY>0){
  1926   001C4E  0100               	movlb	0	; () banked
  1927   001C50  519A               	movf	_pasosY& (0+255),w,b
  1928   001C52  119B               	iorwf	(_pasosY+1)& (0+255),w,b
  1929   001C54  B4D8               	btfsc	status,2,c
  1930   001C56  EF2F  F00E         	goto	u4801
  1931   001C5A  EF31  F00E         	goto	u4800
  1932   001C5E                     u4801:
  1933   001C5E  EF84  F00E         	goto	l3746
  1934   001C62                     u4800:
  1935   001C62                     
  1936                           ; BSR set to: 0
  1937                           ;controlMotores.c: 347:         pasosYDados = 0;
  1938   001C62  0E00               	movlw	0
  1939   001C64  6F95               	movwf	(_pasosYDados+1)& (0+255),b
  1940   001C66  0E00               	movlw	0
  1941   001C68  6F94               	movwf	_pasosYDados& (0+255),b
  1942   001C6A                     
  1943                           ; BSR set to: 0
  1944                           ;controlMotores.c: 348:         vCy = (pasosY*0.5)/Ta;
  1945   001C6A  0E00               	movlw	0
  1946   001C6C  6E17               	movwf	___flmul@a^0,c
  1947   001C6E  0E00               	movlw	0
  1948   001C70  6E18               	movwf	(___flmul@a+1)^0,c
  1949   001C72  0E00               	movlw	0
  1950   001C74  6E19               	movwf	(___flmul@a+2)^0,c
  1951   001C76  0E3F               	movlw	63
  1952   001C78  6E1A               	movwf	(___flmul@a+3)^0,c
  1953   001C7A  C09A  F005         	movff	_pasosY,___xxtofl@val
  1954   001C7E  C09B  F006         	movff	_pasosY+1,___xxtofl@val+1
  1955   001C82  6A07               	clrf	(___xxtofl@val+2)^0,c
  1956   001C84  6A08               	clrf	(___xxtofl@val+3)^0,c
  1957   001C86  0E00               	movlw	0
  1958   001C88  ECAB  F011         	call	___xxtofl
  1959   001C8C  C005  F013         	movff	?___xxtofl,___flmul@b
  1960   001C90  C006  F014         	movff	?___xxtofl+1,___flmul@b+1
  1961   001C94  C007  F015         	movff	?___xxtofl+2,___flmul@b+2
  1962   001C98  C008  F016         	movff	?___xxtofl+3,___flmul@b+3
  1963   001C9C  ECCC  F008         	call	___flmul	;wreg free
  1964   001CA0  C013  F02C         	movff	?___flmul,___fldiv@b
  1965   001CA4  C014  F02D         	movff	?___flmul+1,___fldiv@b+1
  1966   001CA8  C015  F02E         	movff	?___flmul+2,___fldiv@b+2
  1967   001CAC  C016  F02F         	movff	?___flmul+3,___fldiv@b+3
  1968   001CB0  C0F7  F030         	movff	_Ta,___fldiv@a
  1969   001CB4  C0F8  F031         	movff	_Ta+1,___fldiv@a+1
  1970   001CB8  C0F9  F032         	movff	_Ta+2,___fldiv@a+2
  1971   001CBC  C0FA  F033         	movff	_Ta+3,___fldiv@a+3
  1972   001CC0  ECAC  F00E         	call	___fldiv	;wreg free
  1973   001CC4  C02C  F0A8         	movff	?___fldiv,_vCy
  1974   001CC8  C02D  F0A9         	movff	?___fldiv+1,_vCy+1
  1975   001CCC  C02E  F0AA         	movff	?___fldiv+2,_vCy+2
  1976   001CD0  C02F  F0AB         	movff	?___fldiv+3,_vCy+3
  1977   001CD4                     
  1978                           ;controlMotores.c: 349:         v5y = 0.05*vCy;
  1979   001CD4  C0A8  F013         	movff	_vCy,___flmul@b
  1980   001CD8  C0A9  F014         	movff	_vCy+1,___flmul@b+1
  1981   001CDC  C0AA  F015         	movff	_vCy+2,___flmul@b+2
  1982   001CE0  C0AB  F016         	movff	_vCy+3,___flmul@b+3
  1983   001CE4  0ECD               	movlw	205
  1984   001CE6  6E17               	movwf	___flmul@a^0,c
  1985   001CE8  0ECC               	movlw	204
  1986   001CEA  6E18               	movwf	(___flmul@a+1)^0,c
  1987   001CEC  0E4C               	movlw	76
  1988   001CEE  6E19               	movwf	(___flmul@a+2)^0,c
  1989   001CF0  0E3D               	movlw	61
  1990   001CF2  6E1A               	movwf	(___flmul@a+3)^0,c
  1991   001CF4  ECCC  F008         	call	___flmul	;wreg free
  1992   001CF8  C013  F064         	movff	?___flmul,_v5y
  1993   001CFC  C014  F065         	movff	?___flmul+1,_v5y+1
  1994   001D00  C015  F066         	movff	?___flmul+2,_v5y+2
  1995   001D04  C016  F067         	movff	?___flmul+3,_v5y+3
  1996   001D08                     l3746:
  1997                           
  1998                           ;controlMotores.c: 352:     if(pasosX>0 || pasosY>0){
  1999   001D08  0100               	movlb	0	; () banked
  2000   001D0A  519C               	movf	_pasosX& (0+255),w,b
  2001   001D0C  119D               	iorwf	(_pasosX+1)& (0+255),w,b
  2002   001D0E  A4D8               	btfss	status,2,c
  2003   001D10  EF8C  F00E         	goto	u4811
  2004   001D14  EF8E  F00E         	goto	u4810
  2005   001D18                     u4811:
  2006   001D18  EF97  F00E         	goto	l279
  2007   001D1C                     u4810:
  2008   001D1C                     
  2009                           ; BSR set to: 0
  2010   001D1C  519A               	movf	_pasosY& (0+255),w,b
  2011   001D1E  119B               	iorwf	(_pasosY+1)& (0+255),w,b
  2012   001D20  B4D8               	btfsc	status,2,c
  2013   001D22  EF95  F00E         	goto	u4821
  2014   001D26  EF97  F00E         	goto	u4820
  2015   001D2A                     u4821:
  2016   001D2A  EFAB  F00E         	goto	l280
  2017   001D2E                     u4820:
  2018   001D2E                     l279:
  2019                           
  2020                           ; BSR set to: 0
  2021                           ;controlMotores.c: 353:         counter = -1;
  2022   001D2E  6982               	setf	_counter& (0+255),b
  2023   001D30  6983               	setf	(_counter+1)& (0+255),b
  2024   001D32                     
  2025                           ; BSR set to: 0
  2026                           ;controlMotores.c: 354:         counterVC = 0;
  2027   001D32  0E00               	movlw	0
  2028   001D34  6F81               	movwf	(_counterVC+1)& (0+255),b
  2029   001D36  0E00               	movlw	0
  2030   001D38  6F80               	movwf	_counterVC& (0+255),b
  2031                           
  2032                           ;controlMotores.c: 355:         ac=1;
  2033   001D3A  0E00               	movlw	0
  2034   001D3C  6F8F               	movwf	(_ac+1)& (0+255),b
  2035   001D3E  0E01               	movlw	1
  2036   001D40  6F8E               	movwf	_ac& (0+255),b
  2037                           
  2038                           ;controlMotores.c: 356:         des=0;
  2039   001D42  0E00               	movlw	0
  2040   001D44  6F8B               	movwf	(_des+1)& (0+255),b
  2041   001D46  0E00               	movlw	0
  2042   001D48  6F8A               	movwf	_des& (0+255),b
  2043                           
  2044                           ;controlMotores.c: 357:         cru=0;
  2045   001D4A  0E00               	movlw	0
  2046   001D4C  6F8D               	movwf	(_cru+1)& (0+255),b
  2047   001D4E  0E00               	movlw	0
  2048   001D50  6F8C               	movwf	_cru& (0+255),b
  2049   001D52                     
  2050                           ; BSR set to: 0
  2051                           ;controlMotores.c: 359:         precargas();
  2052   001D52  EC79  F010         	call	_precargas	;wreg free
  2053   001D56                     l280:
  2054   001D56  0012               	return		;funcret
  2055   001D58                     __end_of_mover:
  2056                           	callstack 0
  2057                           
  2058 ;; *************** function _precargas *****************
  2059 ;; Defined at:
  2060 ;;		line 239 in file "controlMotores.c"
  2061 ;; Parameters:    Size  Location     Type
  2062 ;;		None
  2063 ;; Auto vars:     Size  Location     Type
  2064 ;;  i               2    0[BANK0 ] int 
  2065 ;; Return value:  Size  Location     Type
  2066 ;;                  1    wreg      void 
  2067 ;; Registers used:
  2068 ;;		wreg, fsr2l, fsr2h, status,2, status,0, prodl, prodh, cstack
  2069 ;; Tracked objects:
  2070 ;;		On entry : 0/0
  2071 ;;		On exit  : 0/0
  2072 ;;		Unchanged: 0/0
  2073 ;; Data sizes:     COMRAM   BANK0   BANK1   BANK2   BANK3   BANK4   BANK5   BANK6   BANK7
  2074 ;;      Params:         0       0       0       0       0       0       0       0       0
  2075 ;;      Locals:         0       2       0       0       0       0       0       0       0
  2076 ;;      Temps:          0       0       0       0       0       0       0       0       0
  2077 ;;      Totals:         0       2       0       0       0       0       0       0       0
  2078 ;;Total ram usage:        2 bytes
  2079 ;; Hardware stack levels used: 1
  2080 ;; Hardware stack levels required when called: 3
  2081 ;; This function calls:
  2082 ;;		___fldiv
  2083 ;;		___flmul
  2084 ;;		___flsub
  2085 ;;		___fltol
  2086 ;;		___xxtofl
  2087 ;; This function is called by:
  2088 ;;		_mover
  2089 ;; This function uses a non-reentrant model
  2090 ;;
  2091                           
  2092                           	psect	text3
  2093   0020F2                     __ptext3:
  2094                           	callstack 0
  2095   0020F2                     _precargas:
  2096                           	callstack 26
  2097   0020F2                     
  2098                           ;controlMotores.c: 240:    int i;;controlMotores.c: 241:    for (i=1;i<21;i++){
  2099   0020F2  0E00               	movlw	0
  2100   0020F4  0100               	movlb	0	; () banked
  2101   0020F6  6FDD               	movwf	(precargas@i+1)& (0+255),b
  2102   0020F8  0E01               	movlw	1
  2103   0020FA  6FDC               	movwf	precargas@i& (0+255),b
  2104   0020FC                     l3676:
  2105                           
  2106                           ; BSR set to: 0
  2107                           ;controlMotores.c: 242:         vInsx = i*v5x;
  2108   0020FC  C0DC  F005         	movff	precargas@i,___xxtofl@val
  2109   002100  C0DD  F006         	movff	precargas@i+1,___xxtofl@val+1
  2110   002104  0E00               	movlw	0
  2111   002106  BE06               	btfsc	(___xxtofl@val+1)^0,7,c
  2112   002108  0EFF               	movlw	-1
  2113   00210A  6E07               	movwf	(___xxtofl@val+2)^0,c
  2114   00210C  6E08               	movwf	(___xxtofl@val+3)^0,c
  2115   00210E  0E01               	movlw	1
  2116   002110  ECAB  F011         	call	___xxtofl
  2117   002114  C005  F013         	movff	?___xxtofl,___flmul@b
  2118   002118  C006  F014         	movff	?___xxtofl+1,___flmul@b+1
  2119   00211C  C007  F015         	movff	?___xxtofl+2,___flmul@b+2
  2120   002120  C008  F016         	movff	?___xxtofl+3,___flmul@b+3
  2121   002124  C068  F017         	movff	_v5x,___flmul@a
  2122   002128  C069  F018         	movff	_v5x+1,___flmul@a+1
  2123   00212C  C06A  F019         	movff	_v5x+2,___flmul@a+2
  2124   002130  C06B  F01A         	movff	_v5x+3,___flmul@a+3
  2125   002134  ECCC  F008         	call	___flmul	;wreg free
  2126   002138  C013  F0A4         	movff	?___flmul,_vInsx
  2127   00213C  C014  F0A5         	movff	?___flmul+1,_vInsx+1
  2128   002140  C015  F0A6         	movff	?___flmul+2,_vInsx+2
  2129   002144  C016  F0A7         	movff	?___flmul+3,_vInsx+3
  2130                           
  2131                           ;controlMotores.c: 243:         vInsy = i*v5y;
  2132   002148  C0DC  F005         	movff	precargas@i,___xxtofl@val
  2133   00214C  C0DD  F006         	movff	precargas@i+1,___xxtofl@val+1
  2134   002150  0E00               	movlw	0
  2135   002152  BE06               	btfsc	(___xxtofl@val+1)^0,7,c
  2136   002154  0EFF               	movlw	-1
  2137   002156  6E07               	movwf	(___xxtofl@val+2)^0,c
  2138   002158  6E08               	movwf	(___xxtofl@val+3)^0,c
  2139   00215A  0E01               	movlw	1
  2140   00215C  ECAB  F011         	call	___xxtofl
  2141   002160  C005  F013         	movff	?___xxtofl,___flmul@b
  2142   002164  C006  F014         	movff	?___xxtofl+1,___flmul@b+1
  2143   002168  C007  F015         	movff	?___xxtofl+2,___flmul@b+2
  2144   00216C  C008  F016         	movff	?___xxtofl+3,___flmul@b+3
  2145   002170  C064  F017         	movff	_v5y,___flmul@a
  2146   002174  C065  F018         	movff	_v5y+1,___flmul@a+1
  2147   002178  C066  F019         	movff	_v5y+2,___flmul@a+2
  2148   00217C  C067  F01A         	movff	_v5y+3,___flmul@a+3
  2149   002180  ECCC  F008         	call	___flmul	;wreg free
  2150   002184  C013  F0A0         	movff	?___flmul,_vInsy
  2151   002188  C014  F0A1         	movff	?___flmul+1,_vInsy+1
  2152   00218C  C015  F0A2         	movff	?___flmul+2,_vInsy+2
  2153   002190  C016  F0A3         	movff	?___flmul+3,_vInsy+3
  2154   002194                     
  2155                           ;controlMotores.c: 244:         TIntx = 0.5/vInsx;
  2156   002194  0E00               	movlw	0
  2157   002196  6E2C               	movwf	___fldiv@b^0,c
  2158   002198  0E00               	movlw	0
  2159   00219A  6E2D               	movwf	(___fldiv@b+1)^0,c
  2160   00219C  0E00               	movlw	0
  2161   00219E  6E2E               	movwf	(___fldiv@b+2)^0,c
  2162   0021A0  0E3F               	movlw	63
  2163   0021A2  6E2F               	movwf	(___fldiv@b+3)^0,c
  2164   0021A4  C0A4  F030         	movff	_vInsx,___fldiv@a
  2165   0021A8  C0A5  F031         	movff	_vInsx+1,___fldiv@a+1
  2166   0021AC  C0A6  F032         	movff	_vInsx+2,___fldiv@a+2
  2167   0021B0  C0A7  F033         	movff	_vInsx+3,___fldiv@a+3
  2168   0021B4  ECAC  F00E         	call	___fldiv	;wreg free
  2169   0021B8  C02C  F070         	movff	?___fldiv,_TIntx
  2170   0021BC  C02D  F071         	movff	?___fldiv+1,_TIntx+1
  2171   0021C0  C02E  F072         	movff	?___fldiv+2,_TIntx+2
  2172   0021C4  C02F  F073         	movff	?___fldiv+3,_TIntx+3
  2173   0021C8                     
  2174                           ;controlMotores.c: 245:         TInty = 0.5/vInsy;
  2175   0021C8  0E00               	movlw	0
  2176   0021CA  6E2C               	movwf	___fldiv@b^0,c
  2177   0021CC  0E00               	movlw	0
  2178   0021CE  6E2D               	movwf	(___fldiv@b+1)^0,c
  2179   0021D0  0E00               	movlw	0
  2180   0021D2  6E2E               	movwf	(___fldiv@b+2)^0,c
  2181   0021D4  0E3F               	movlw	63
  2182   0021D6  6E2F               	movwf	(___fldiv@b+3)^0,c
  2183   0021D8  C0A0  F030         	movff	_vInsy,___fldiv@a
  2184   0021DC  C0A1  F031         	movff	_vInsy+1,___fldiv@a+1
  2185   0021E0  C0A2  F032         	movff	_vInsy+2,___fldiv@a+2
  2186   0021E4  C0A3  F033         	movff	_vInsy+3,___fldiv@a+3
  2187   0021E8  ECAC  F00E         	call	___fldiv	;wreg free
  2188   0021EC  C02C  F06C         	movff	?___fldiv,_TInty
  2189   0021F0  C02D  F06D         	movff	?___fldiv+1,_TInty+1
  2190   0021F4  C02E  F06E         	movff	?___fldiv+2,_TInty+2
  2191   0021F8  C02F  F06F         	movff	?___fldiv+3,_TInty+3
  2192   0021FC                     
  2193                           ;controlMotores.c: 246:         arrayX[i-1] = (unsigned int)(65536 - ((TIntx*2000000)/4)
      +                          );
  2194   0021FC  0E00               	movlw	0
  2195   0021FE  6E30               	movwf	___fldiv@a^0,c
  2196   002200  0E00               	movlw	0
  2197   002202  6E31               	movwf	(___fldiv@a+1)^0,c
  2198   002204  0E80               	movlw	128
  2199   002206  6E32               	movwf	(___fldiv@a+2)^0,c
  2200   002208  0E40               	movlw	64
  2201   00220A  6E33               	movwf	(___fldiv@a+3)^0,c
  2202   00220C  0E00               	movlw	0
  2203   00220E  6E17               	movwf	___flmul@a^0,c
  2204   002210  0E24               	movlw	36
  2205   002212  6E18               	movwf	(___flmul@a+1)^0,c
  2206   002214  0EF4               	movlw	244
  2207   002216  6E19               	movwf	(___flmul@a+2)^0,c
  2208   002218  0E49               	movlw	73
  2209   00221A  6E1A               	movwf	(___flmul@a+3)^0,c
  2210   00221C  C070  F013         	movff	_TIntx,___flmul@b
  2211   002220  C071  F014         	movff	_TIntx+1,___flmul@b+1
  2212   002224  C072  F015         	movff	_TIntx+2,___flmul@b+2
  2213   002228  C073  F016         	movff	_TIntx+3,___flmul@b+3
  2214   00222C  ECCC  F008         	call	___flmul	;wreg free
  2215   002230  C013  F02C         	movff	?___flmul,___fldiv@b
  2216   002234  C014  F02D         	movff	?___flmul+1,___fldiv@b+1
  2217   002238  C015  F02E         	movff	?___flmul+2,___fldiv@b+2
  2218   00223C  C016  F02F         	movff	?___flmul+3,___fldiv@b+3
  2219   002240  ECAC  F00E         	call	___fldiv	;wreg free
  2220   002244  C02C  F049         	movff	?___fldiv,___flsub@a
  2221   002248  C02D  F04A         	movff	?___fldiv+1,___flsub@a+1
  2222   00224C  C02E  F04B         	movff	?___fldiv+2,___flsub@a+2
  2223   002250  C02F  F04C         	movff	?___fldiv+3,___flsub@a+3
  2224   002254  0E00               	movlw	0
  2225   002256  6E45               	movwf	___flsub@b^0,c
  2226   002258  0E00               	movlw	0
  2227   00225A  6E46               	movwf	(___flsub@b+1)^0,c
  2228   00225C  0E80               	movlw	128
  2229   00225E  6E47               	movwf	(___flsub@b+2)^0,c
  2230   002260  0E47               	movlw	71
  2231   002262  6E48               	movwf	(___flsub@b+3)^0,c
  2232   002264  EC47  F014         	call	___flsub	;wreg free
  2233   002268  C045  F04D         	movff	?___flsub,___fltol@f1
  2234   00226C  C046  F04E         	movff	?___flsub+1,___fltol@f1+1
  2235   002270  C047  F04F         	movff	?___flsub+2,___fltol@f1+2
  2236   002274  C048  F050         	movff	?___flsub+3,___fltol@f1+3
  2237   002278  EC4E  F013         	call	___fltol	;wreg free
  2238   00227C  90D8               	bcf	status,0,c
  2239   00227E  0100               	movlb	0	; () banked
  2240   002280  35DC               	rlcf	precargas@i& (0+255),w,b
  2241   002282  6ED9               	movwf	fsr2l,c
  2242   002284  35DD               	rlcf	(precargas@i+1)& (0+255),w,b
  2243   002286  6EDA               	movwf	fsr2h,c
  2244   002288  0E26               	movlw	low (_arrayX+65534)
  2245   00228A  26D9               	addwf	fsr2l,f,c
  2246   00228C  0E01               	movlw	high (_arrayX+65534)
  2247   00228E  22DA               	addwfc	fsr2h,f,c
  2248   002290  C04D  FFDE         	movff	?___fltol,postinc2
  2249   002294  C04E  FFDD         	movff	?___fltol+1,postdec2
  2250   002298                     
  2251                           ; BSR set to: 0
  2252                           ;controlMotores.c: 247:         arrayY[i-1] = (unsigned int)(65536 - ((TInty*2000000)/4)
      +                          );
  2253   002298  0E00               	movlw	0
  2254   00229A  6E30               	movwf	___fldiv@a^0,c
  2255   00229C  0E00               	movlw	0
  2256   00229E  6E31               	movwf	(___fldiv@a+1)^0,c
  2257   0022A0  0E80               	movlw	128
  2258   0022A2  6E32               	movwf	(___fldiv@a+2)^0,c
  2259   0022A4  0E40               	movlw	64
  2260   0022A6  6E33               	movwf	(___fldiv@a+3)^0,c
  2261   0022A8  0E00               	movlw	0
  2262   0022AA  6E17               	movwf	___flmul@a^0,c
  2263   0022AC  0E24               	movlw	36
  2264   0022AE  6E18               	movwf	(___flmul@a+1)^0,c
  2265   0022B0  0EF4               	movlw	244
  2266   0022B2  6E19               	movwf	(___flmul@a+2)^0,c
  2267   0022B4  0E49               	movlw	73
  2268   0022B6  6E1A               	movwf	(___flmul@a+3)^0,c
  2269   0022B8  C06C  F013         	movff	_TInty,___flmul@b
  2270   0022BC  C06D  F014         	movff	_TInty+1,___flmul@b+1
  2271   0022C0  C06E  F015         	movff	_TInty+2,___flmul@b+2
  2272   0022C4  C06F  F016         	movff	_TInty+3,___flmul@b+3
  2273   0022C8  ECCC  F008         	call	___flmul	;wreg free
  2274   0022CC  C013  F02C         	movff	?___flmul,___fldiv@b
  2275   0022D0  C014  F02D         	movff	?___flmul+1,___fldiv@b+1
  2276   0022D4  C015  F02E         	movff	?___flmul+2,___fldiv@b+2
  2277   0022D8  C016  F02F         	movff	?___flmul+3,___fldiv@b+3
  2278   0022DC  ECAC  F00E         	call	___fldiv	;wreg free
  2279   0022E0  C02C  F049         	movff	?___fldiv,___flsub@a
  2280   0022E4  C02D  F04A         	movff	?___fldiv+1,___flsub@a+1
  2281   0022E8  C02E  F04B         	movff	?___fldiv+2,___flsub@a+2
  2282   0022EC  C02F  F04C         	movff	?___fldiv+3,___flsub@a+3
  2283   0022F0  0E00               	movlw	0
  2284   0022F2  6E45               	movwf	___flsub@b^0,c
  2285   0022F4  0E00               	movlw	0
  2286   0022F6  6E46               	movwf	(___flsub@b+1)^0,c
  2287   0022F8  0E80               	movlw	128
  2288   0022FA  6E47               	movwf	(___flsub@b+2)^0,c
  2289   0022FC  0E47               	movlw	71
  2290   0022FE  6E48               	movwf	(___flsub@b+3)^0,c
  2291   002300  EC47  F014         	call	___flsub	;wreg free
  2292   002304  C045  F04D         	movff	?___flsub,___fltol@f1
  2293   002308  C046  F04E         	movff	?___flsub+1,___fltol@f1+1
  2294   00230C  C047  F04F         	movff	?___flsub+2,___fltol@f1+2
  2295   002310  C048  F050         	movff	?___flsub+3,___fltol@f1+3
  2296   002314  EC4E  F013         	call	___fltol	;wreg free
  2297   002318  90D8               	bcf	status,0,c
  2298   00231A  0100               	movlb	0	; () banked
  2299   00231C  35DC               	rlcf	precargas@i& (0+255),w,b
  2300   00231E  6ED9               	movwf	fsr2l,c
  2301   002320  35DD               	rlcf	(precargas@i+1)& (0+255),w,b
  2302   002322  6EDA               	movwf	fsr2h,c
  2303   002324  0EFE               	movlw	low (_arrayY+65534)
  2304   002326  26D9               	addwf	fsr2l,f,c
  2305   002328  0E00               	movlw	high (_arrayY+65534)
  2306   00232A  22DA               	addwfc	fsr2h,f,c
  2307   00232C  C04D  FFDE         	movff	?___fltol,postinc2
  2308   002330  C04E  FFDD         	movff	?___fltol+1,postdec2
  2309   002334                     
  2310                           ; BSR set to: 0
  2311                           ;controlMotores.c: 248:    }
  2312   002334  4BDC               	infsnz	precargas@i& (0+255),f,b
  2313   002336  2BDD               	incf	(precargas@i+1)& (0+255),f,b
  2314   002338                     
  2315                           ; BSR set to: 0
  2316   002338  BFDD               	btfsc	(precargas@i+1)& (0+255),7,b
  2317   00233A  EFA8  F011         	goto	u4711
  2318   00233E  51DD               	movf	(precargas@i+1)& (0+255),w,b
  2319   002340  E109               	bnz	u4710
  2320   002342  0E15               	movlw	21
  2321   002344  5DDC               	subwf	precargas@i& (0+255),w,b
  2322   002346  A0D8               	btfss	status,0,c
  2323   002348  EFA8  F011         	goto	u4711
  2324   00234C  EFAA  F011         	goto	u4710
  2325   002350                     u4711:
  2326   002350  EF7E  F010         	goto	l3676
  2327   002354                     u4710:
  2328   002354                     
  2329                           ; BSR set to: 0
  2330   002354  0012               	return		;funcret
  2331   002356                     __end_of_precargas:
  2332                           	callstack 0
  2333                           
  2334 ;; *************** function ___xxtofl *****************
  2335 ;; Defined at:
  2336 ;;		line 10 in file "C:\Program Files\Microchip\xc8\v2.40\pic\sources\c99\common\xxtofl.c"
  2337 ;; Parameters:    Size  Location     Type
  2338 ;;  sign            1    wreg     unsigned char 
  2339 ;;  val             4    4[COMRAM] long 
  2340 ;; Auto vars:     Size  Location     Type
  2341 ;;  sign            1   12[COMRAM] unsigned char 
  2342 ;;  arg             4   14[COMRAM] unsigned long 
  2343 ;;  exp             1   13[COMRAM] unsigned char 
  2344 ;; Return value:  Size  Location     Type
  2345 ;;                  4    4[COMRAM] unsigned char 
  2346 ;; Registers used:
  2347 ;;		wreg, status,2, status,0
  2348 ;; Tracked objects:
  2349 ;;		On entry : 0/0
  2350 ;;		On exit  : 0/0
  2351 ;;		Unchanged: 0/0
  2352 ;; Data sizes:     COMRAM   BANK0   BANK1   BANK2   BANK3   BANK4   BANK5   BANK6   BANK7
  2353 ;;      Params:         4       0       0       0       0       0       0       0       0
  2354 ;;      Locals:         6       0       0       0       0       0       0       0       0
  2355 ;;      Temps:          4       0       0       0       0       0       0       0       0
  2356 ;;      Totals:        14       0       0       0       0       0       0       0       0
  2357 ;;Total ram usage:       14 bytes
  2358 ;; Hardware stack levels used: 1
  2359 ;; Hardware stack levels required when called: 1
  2360 ;; This function calls:
  2361 ;;		Nothing
  2362 ;; This function is called by:
  2363 ;;		_precargas
  2364 ;;		_mover
  2365 ;; This function uses a non-reentrant model
  2366 ;;
  2367                           
  2368                           	psect	text4
  2369   002356                     __ptext4:
  2370                           	callstack 0
  2371   002356                     ___xxtofl:
  2372                           	callstack 27
  2373                           
  2374                           ; BSR set to: 0
  2375                           ;incstack = 0
  2376                           ;___xxtofl@sign stored from wreg
  2377   002356  6E0D               	movwf	___xxtofl@sign^0,c
  2378   002358  500D               	movf	___xxtofl@sign^0,w,c
  2379   00235A  B4D8               	btfsc	status,2,c
  2380   00235C  EFB2  F011         	goto	u4611
  2381   002360  EFB4  F011         	goto	u4610
  2382   002364                     u4611:
  2383   002364  EFD6  F011         	goto	l982
  2384   002368                     u4610:
  2385   002368  BE08               	btfsc	(___xxtofl@val+3)^0,7,c
  2386   00236A  EFBB  F011         	goto	u4620
  2387   00236E  EFB9  F011         	goto	u4621
  2388   002372                     u4621:
  2389   002372  EFD6  F011         	goto	l982
  2390   002376                     u4620:
  2391   002376  C005  F009         	movff	___xxtofl@val,??___xxtofl
  2392   00237A  C006  F00A         	movff	___xxtofl@val+1,??___xxtofl+1
  2393   00237E  C007  F00B         	movff	___xxtofl@val+2,??___xxtofl+2
  2394   002382  C008  F00C         	movff	___xxtofl@val+3,??___xxtofl+3
  2395   002386  1E09               	comf	??___xxtofl^0,f,c
  2396   002388  1E0A               	comf	(??___xxtofl+1)^0,f,c
  2397   00238A  1E0B               	comf	(??___xxtofl+2)^0,f,c
  2398   00238C  1E0C               	comf	(??___xxtofl+3)^0,f,c
  2399   00238E  2A09               	incf	??___xxtofl^0,f,c
  2400   002390  0E00               	movlw	0
  2401   002392  220A               	addwfc	(??___xxtofl+1)^0,f,c
  2402   002394  220B               	addwfc	(??___xxtofl+2)^0,f,c
  2403   002396  220C               	addwfc	(??___xxtofl+3)^0,f,c
  2404   002398  C009  F00F         	movff	??___xxtofl,___xxtofl@arg
  2405   00239C  C00A  F010         	movff	??___xxtofl+1,___xxtofl@arg+1
  2406   0023A0  C00B  F011         	movff	??___xxtofl+2,___xxtofl@arg+2
  2407   0023A4  C00C  F012         	movff	??___xxtofl+3,___xxtofl@arg+3
  2408   0023A8  EFDE  F011         	goto	l3630
  2409   0023AC                     l982:
  2410   0023AC  C005  F00F         	movff	___xxtofl@val,___xxtofl@arg
  2411   0023B0  C006  F010         	movff	___xxtofl@val+1,___xxtofl@arg+1
  2412   0023B4  C007  F011         	movff	___xxtofl@val+2,___xxtofl@arg+2
  2413   0023B8  C008  F012         	movff	___xxtofl@val+3,___xxtofl@arg+3
  2414   0023BC                     l3630:
  2415   0023BC  5005               	movf	___xxtofl@val^0,w,c
  2416   0023BE  1006               	iorwf	(___xxtofl@val+1)^0,w,c
  2417   0023C0  1007               	iorwf	(___xxtofl@val+2)^0,w,c
  2418   0023C2  1008               	iorwf	(___xxtofl@val+3)^0,w,c
  2419   0023C4  A4D8               	btfss	status,2,c
  2420   0023C6  EFE7  F011         	goto	u4631
  2421   0023CA  EFE9  F011         	goto	u4630
  2422   0023CE                     u4631:
  2423   0023CE  EFF3  F011         	goto	l3636
  2424   0023D2                     u4630:
  2425   0023D2  0E00               	movlw	0
  2426   0023D4  6E05               	movwf	?___xxtofl^0,c
  2427   0023D6  0E00               	movlw	0
  2428   0023D8  6E06               	movwf	(?___xxtofl+1)^0,c
  2429   0023DA  0E00               	movlw	0
  2430   0023DC  6E07               	movwf	(?___xxtofl+2)^0,c
  2431   0023DE  0E00               	movlw	0
  2432   0023E0  6E08               	movwf	(?___xxtofl+3)^0,c
  2433   0023E2  EF84  F012         	goto	l985
  2434   0023E6                     l3636:
  2435   0023E6  0E96               	movlw	150
  2436   0023E8  6E0E               	movwf	___xxtofl@exp^0,c
  2437   0023EA  EFFD  F011         	goto	l3640
  2438   0023EE                     l3638:
  2439   0023EE  2A0E               	incf	___xxtofl@exp^0,f,c
  2440   0023F0  90D8               	bcf	status,0,c
  2441   0023F2  3212               	rrcf	(___xxtofl@arg+3)^0,f,c
  2442   0023F4  3211               	rrcf	(___xxtofl@arg+2)^0,f,c
  2443   0023F6  3210               	rrcf	(___xxtofl@arg+1)^0,f,c
  2444   0023F8  320F               	rrcf	___xxtofl@arg^0,f,c
  2445   0023FA                     l3640:
  2446   0023FA  0E00               	movlw	0
  2447   0023FC  140F               	andwf	___xxtofl@arg^0,w,c
  2448   0023FE  6E09               	movwf	??___xxtofl^0,c
  2449   002400  0E00               	movlw	0
  2450   002402  1410               	andwf	(___xxtofl@arg+1)^0,w,c
  2451   002404  6E0A               	movwf	(??___xxtofl+1)^0,c
  2452   002406  0E00               	movlw	0
  2453   002408  1411               	andwf	(___xxtofl@arg+2)^0,w,c
  2454   00240A  6E0B               	movwf	(??___xxtofl+2)^0,c
  2455   00240C  0EFE               	movlw	254
  2456   00240E  1412               	andwf	(___xxtofl@arg+3)^0,w,c
  2457   002410  6E0C               	movwf	(??___xxtofl+3)^0,c
  2458   002412  5009               	movf	??___xxtofl^0,w,c
  2459   002414  100A               	iorwf	(??___xxtofl+1)^0,w,c
  2460   002416  100B               	iorwf	(??___xxtofl+2)^0,w,c
  2461   002418  100C               	iorwf	(??___xxtofl+3)^0,w,c
  2462   00241A  A4D8               	btfss	status,2,c
  2463   00241C  EF12  F012         	goto	u4641
  2464   002420  EF14  F012         	goto	u4640
  2465   002424                     u4641:
  2466   002424  EFF7  F011         	goto	l3638
  2467   002428                     u4640:
  2468   002428  EF22  F012         	goto	l989
  2469   00242C                     l3642:
  2470   00242C  2A0E               	incf	___xxtofl@exp^0,f,c
  2471   00242E  0E01               	movlw	1
  2472   002430  260F               	addwf	___xxtofl@arg^0,f,c
  2473   002432  0E00               	movlw	0
  2474   002434  2210               	addwfc	(___xxtofl@arg+1)^0,f,c
  2475   002436  2211               	addwfc	(___xxtofl@arg+2)^0,f,c
  2476   002438  2212               	addwfc	(___xxtofl@arg+3)^0,f,c
  2477   00243A  90D8               	bcf	status,0,c
  2478   00243C  3212               	rrcf	(___xxtofl@arg+3)^0,f,c
  2479   00243E  3211               	rrcf	(___xxtofl@arg+2)^0,f,c
  2480   002440  3210               	rrcf	(___xxtofl@arg+1)^0,f,c
  2481   002442  320F               	rrcf	___xxtofl@arg^0,f,c
  2482   002444                     l989:
  2483   002444  0E00               	movlw	0
  2484   002446  140F               	andwf	___xxtofl@arg^0,w,c
  2485   002448  6E09               	movwf	??___xxtofl^0,c
  2486   00244A  0E00               	movlw	0
  2487   00244C  1410               	andwf	(___xxtofl@arg+1)^0,w,c
  2488   00244E  6E0A               	movwf	(??___xxtofl+1)^0,c
  2489   002450  0E00               	movlw	0
  2490   002452  1411               	andwf	(___xxtofl@arg+2)^0,w,c
  2491   002454  6E0B               	movwf	(??___xxtofl+2)^0,c
  2492   002456  0EFF               	movlw	255
  2493   002458  1412               	andwf	(___xxtofl@arg+3)^0,w,c
  2494   00245A  6E0C               	movwf	(??___xxtofl+3)^0,c
  2495   00245C  5009               	movf	??___xxtofl^0,w,c
  2496   00245E  100A               	iorwf	(??___xxtofl+1)^0,w,c
  2497   002460  100B               	iorwf	(??___xxtofl+2)^0,w,c
  2498   002462  100C               	iorwf	(??___xxtofl+3)^0,w,c
  2499   002464  A4D8               	btfss	status,2,c
  2500   002466  EF37  F012         	goto	u4651
  2501   00246A  EF39  F012         	goto	u4650
  2502   00246E                     u4651:
  2503   00246E  EF16  F012         	goto	l3642
  2504   002472                     u4650:
  2505   002472  EF41  F012         	goto	l3650
  2506   002476                     l3648:
  2507   002476  060E               	decf	___xxtofl@exp^0,f,c
  2508   002478  90D8               	bcf	status,0,c
  2509   00247A  360F               	rlcf	___xxtofl@arg^0,f,c
  2510   00247C  3610               	rlcf	(___xxtofl@arg+1)^0,f,c
  2511   00247E  3611               	rlcf	(___xxtofl@arg+2)^0,f,c
  2512   002480  3612               	rlcf	(___xxtofl@arg+3)^0,f,c
  2513   002482                     l3650:
  2514   002482  BE11               	btfsc	(___xxtofl@arg+2)^0,7,c
  2515   002484  EF46  F012         	goto	u4661
  2516   002488  EF48  F012         	goto	u4660
  2517   00248C                     u4661:
  2518   00248C  EF50  F012         	goto	l996
  2519   002490                     u4660:
  2520   002490  0E02               	movlw	2
  2521   002492  600E               	cpfslt	___xxtofl@exp^0,c
  2522   002494  EF4E  F012         	goto	u4671
  2523   002498  EF50  F012         	goto	u4670
  2524   00249C                     u4671:
  2525   00249C  EF3B  F012         	goto	l3648
  2526   0024A0                     u4670:
  2527   0024A0                     l996:
  2528   0024A0  B00E               	btfsc	___xxtofl@exp^0,0,c
  2529   0024A2  EF55  F012         	goto	u4681
  2530   0024A6  EF57  F012         	goto	u4680
  2531   0024AA                     u4681:
  2532   0024AA  EF58  F012         	goto	l3656
  2533   0024AE                     u4680:
  2534   0024AE  9E11               	bcf	(___xxtofl@arg+2)^0,7,c
  2535   0024B0                     l3656:
  2536   0024B0  90D8               	bcf	status,0,c
  2537   0024B2  320E               	rrcf	___xxtofl@exp^0,f,c
  2538   0024B4  C00E  F009         	movff	___xxtofl@exp,??___xxtofl
  2539   0024B8  6A0A               	clrf	(??___xxtofl+1)^0,c
  2540   0024BA  6A0B               	clrf	(??___xxtofl+2)^0,c
  2541   0024BC  6A0C               	clrf	(??___xxtofl+3)^0,c
  2542   0024BE  C009  F00C         	movff	??___xxtofl,??___xxtofl+3
  2543   0024C2  6A0B               	clrf	(??___xxtofl+2)^0,c
  2544   0024C4  6A0A               	clrf	(??___xxtofl+1)^0,c
  2545   0024C6  6A09               	clrf	??___xxtofl^0,c
  2546   0024C8  5009               	movf	??___xxtofl^0,w,c
  2547   0024CA  120F               	iorwf	___xxtofl@arg^0,f,c
  2548   0024CC  500A               	movf	(??___xxtofl+1)^0,w,c
  2549   0024CE  1210               	iorwf	(___xxtofl@arg+1)^0,f,c
  2550   0024D0  500B               	movf	(??___xxtofl+2)^0,w,c
  2551   0024D2  1211               	iorwf	(___xxtofl@arg+2)^0,f,c
  2552   0024D4  500C               	movf	(??___xxtofl+3)^0,w,c
  2553   0024D6  1212               	iorwf	(___xxtofl@arg+3)^0,f,c
  2554   0024D8  500D               	movf	___xxtofl@sign^0,w,c
  2555   0024DA  B4D8               	btfsc	status,2,c
  2556   0024DC  EF72  F012         	goto	u4691
  2557   0024E0  EF74  F012         	goto	u4690
  2558   0024E4                     u4691:
  2559   0024E4  EF7C  F012         	goto	l3666
  2560   0024E8                     u4690:
  2561   0024E8  BE08               	btfsc	(___xxtofl@val+3)^0,7,c
  2562   0024EA  EF7B  F012         	goto	u4700
  2563   0024EE  EF79  F012         	goto	u4701
  2564   0024F2                     u4701:
  2565   0024F2  EF7C  F012         	goto	l3666
  2566   0024F6                     u4700:
  2567   0024F6  8E12               	bsf	(___xxtofl@arg+3)^0,7,c
  2568   0024F8                     l3666:
  2569   0024F8  C00F  F005         	movff	___xxtofl@arg,?___xxtofl
  2570   0024FC  C010  F006         	movff	___xxtofl@arg+1,?___xxtofl+1
  2571   002500  C011  F007         	movff	___xxtofl@arg+2,?___xxtofl+2
  2572   002504  C012  F008         	movff	___xxtofl@arg+3,?___xxtofl+3
  2573   002508                     l985:
  2574   002508  0012               	return		;funcret
  2575   00250A                     __end_of___xxtofl:
  2576                           	callstack 0
  2577                           
  2578 ;; *************** function ___fltol *****************
  2579 ;; Defined at:
  2580 ;;		line 43 in file "C:\Program Files\Microchip\xc8\v2.40\pic\sources\c99\common\fltol.c"
  2581 ;; Parameters:    Size  Location     Type
  2582 ;;  f1              4   76[COMRAM] unsigned char 
  2583 ;; Auto vars:     Size  Location     Type
  2584 ;;  exp1            1   85[COMRAM] unsigned char 
  2585 ;;  sign1           1   84[COMRAM] unsigned char 
  2586 ;; Return value:  Size  Location     Type
  2587 ;;                  4   76[COMRAM] long 
  2588 ;; Registers used:
  2589 ;;		wreg, status,2, status,0
  2590 ;; Tracked objects:
  2591 ;;		On entry : 0/0
  2592 ;;		On exit  : 0/0
  2593 ;;		Unchanged: 0/0
  2594 ;; Data sizes:     COMRAM   BANK0   BANK1   BANK2   BANK3   BANK4   BANK5   BANK6   BANK7
  2595 ;;      Params:         4       0       0       0       0       0       0       0       0
  2596 ;;      Locals:         2       0       0       0       0       0       0       0       0
  2597 ;;      Temps:          4       0       0       0       0       0       0       0       0
  2598 ;;      Totals:        10       0       0       0       0       0       0       0       0
  2599 ;;Total ram usage:       10 bytes
  2600 ;; Hardware stack levels used: 1
  2601 ;; Hardware stack levels required when called: 1
  2602 ;; This function calls:
  2603 ;;		Nothing
  2604 ;; This function is called by:
  2605 ;;		_precargas
  2606 ;; This function uses a non-reentrant model
  2607 ;;
  2608                           
  2609                           	psect	text5
  2610   00269C                     __ptext5:
  2611                           	callstack 0
  2612   00269C                     ___fltol:
  2613                           	callstack 27
  2614   00269C  344F               	rlcf	(___fltol@f1+2)^0,w,c
  2615   00269E  3450               	rlcf	(___fltol@f1+3)^0,w,c
  2616   0026A0  6E56               	movwf	___fltol@exp1^0,c
  2617   0026A2  5056               	movf	___fltol@exp1^0,w,c
  2618   0026A4  A4D8               	btfss	status,2,c
  2619   0026A6  EF57  F013         	goto	u4541
  2620   0026AA  EF59  F013         	goto	u4540
  2621   0026AE                     u4541:
  2622   0026AE  EF63  F013         	goto	l3586
  2623   0026B2                     u4540:
  2624   0026B2                     l3582:
  2625   0026B2  0E00               	movlw	0
  2626   0026B4  6E4D               	movwf	?___fltol^0,c
  2627   0026B6  0E00               	movlw	0
  2628   0026B8  6E4E               	movwf	(?___fltol+1)^0,c
  2629   0026BA  0E00               	movlw	0
  2630   0026BC  6E4F               	movwf	(?___fltol+2)^0,c
  2631   0026BE  0E00               	movlw	0
  2632   0026C0  6E50               	movwf	(?___fltol+3)^0,c
  2633   0026C2  EFD0  F013         	goto	l624
  2634   0026C6                     l3586:
  2635   0026C6  C04D  F051         	movff	___fltol@f1,??___fltol
  2636   0026CA  C04E  F052         	movff	___fltol@f1+1,??___fltol+1
  2637   0026CE  C04F  F053         	movff	___fltol@f1+2,??___fltol+2
  2638   0026D2  C050  F054         	movff	___fltol@f1+3,??___fltol+3
  2639   0026D6  0E20               	movlw	32
  2640   0026D8  EF73  F013         	goto	u4550
  2641   0026DC                     u4555:
  2642   0026DC  90D8               	bcf	status,0,c
  2643   0026DE  3254               	rrcf	(??___fltol+3)^0,f,c
  2644   0026E0  3253               	rrcf	(??___fltol+2)^0,f,c
  2645   0026E2  3252               	rrcf	(??___fltol+1)^0,f,c
  2646   0026E4  3251               	rrcf	??___fltol^0,f,c
  2647   0026E6                     u4550:
  2648   0026E6  2EE8               	decfsz	wreg,f,c
  2649   0026E8  EF6E  F013         	goto	u4555
  2650   0026EC  5051               	movf	??___fltol^0,w,c
  2651   0026EE  6E55               	movwf	___fltol@sign1^0,c
  2652   0026F0  8E4F               	bsf	(___fltol@f1+2)^0,7,c
  2653   0026F2  0EFF               	movlw	255
  2654   0026F4  164D               	andwf	___fltol@f1^0,f,c
  2655   0026F6  0EFF               	movlw	255
  2656   0026F8  164E               	andwf	(___fltol@f1+1)^0,f,c
  2657   0026FA  0EFF               	movlw	255
  2658   0026FC  164F               	andwf	(___fltol@f1+2)^0,f,c
  2659   0026FE  0E00               	movlw	0
  2660   002700  1650               	andwf	(___fltol@f1+3)^0,f,c
  2661   002702  0E96               	movlw	150
  2662   002704  5E56               	subwf	___fltol@exp1^0,f,c
  2663   002706  BE56               	btfsc	___fltol@exp1^0,7,c
  2664   002708  EF8A  F013         	goto	u4560
  2665   00270C  EF88  F013         	goto	u4561
  2666   002710                     u4561:
  2667   002710  EFA0  F013         	goto	l3606
  2668   002714                     u4560:
  2669   002714  5056               	movf	___fltol@exp1^0,w,c
  2670   002716  0A80               	xorlw	128
  2671   002718  0F97               	addlw	151
  2672   00271A  B0D8               	btfsc	status,0,c
  2673   00271C  EF92  F013         	goto	u4571
  2674   002720  EF94  F013         	goto	u4570
  2675   002724                     u4571:
  2676   002724  EF96  F013         	goto	l3602
  2677   002728                     u4570:
  2678   002728  EF59  F013         	goto	l3582
  2679   00272C                     l3602:
  2680   00272C  90D8               	bcf	status,0,c
  2681   00272E  3250               	rrcf	(___fltol@f1+3)^0,f,c
  2682   002730  324F               	rrcf	(___fltol@f1+2)^0,f,c
  2683   002732  324E               	rrcf	(___fltol@f1+1)^0,f,c
  2684   002734  324D               	rrcf	___fltol@f1^0,f,c
  2685   002736  3E56               	incfsz	___fltol@exp1^0,f,c
  2686   002738  EF96  F013         	goto	l3602
  2687   00273C  EFB8  F013         	goto	l3616
  2688   002740                     l3606:
  2689   002740  0E1F               	movlw	31
  2690   002742  6456               	cpfsgt	___fltol@exp1^0,c
  2691   002744  EFA6  F013         	goto	u4581
  2692   002748  EFA8  F013         	goto	u4580
  2693   00274C                     u4581:
  2694   00274C  EFB0  F013         	goto	l3614
  2695   002750                     u4580:
  2696   002750  EF59  F013         	goto	l3582
  2697   002754                     l3612:
  2698   002754  90D8               	bcf	status,0,c
  2699   002756  364D               	rlcf	___fltol@f1^0,f,c
  2700   002758  364E               	rlcf	(___fltol@f1+1)^0,f,c
  2701   00275A  364F               	rlcf	(___fltol@f1+2)^0,f,c
  2702   00275C  3650               	rlcf	(___fltol@f1+3)^0,f,c
  2703   00275E  0656               	decf	___fltol@exp1^0,f,c
  2704   002760                     l3614:
  2705   002760  5056               	movf	___fltol@exp1^0,w,c
  2706   002762  A4D8               	btfss	status,2,c
  2707   002764  EFB6  F013         	goto	u4591
  2708   002768  EFB8  F013         	goto	u4590
  2709   00276C                     u4591:
  2710   00276C  EFAA  F013         	goto	l3612
  2711   002770                     u4590:
  2712   002770                     l3616:
  2713   002770  5055               	movf	___fltol@sign1^0,w,c
  2714   002772  B4D8               	btfsc	status,2,c
  2715   002774  EFBE  F013         	goto	u4601
  2716   002778  EFC0  F013         	goto	u4600
  2717   00277C                     u4601:
  2718   00277C  EFC8  F013         	goto	l3620
  2719   002780                     u4600:
  2720   002780  1E50               	comf	(___fltol@f1+3)^0,f,c
  2721   002782  1E4F               	comf	(___fltol@f1+2)^0,f,c
  2722   002784  1E4E               	comf	(___fltol@f1+1)^0,f,c
  2723   002786  6C4D               	negf	___fltol@f1^0,c
  2724   002788  0E00               	movlw	0
  2725   00278A  224E               	addwfc	(___fltol@f1+1)^0,f,c
  2726   00278C  224F               	addwfc	(___fltol@f1+2)^0,f,c
  2727   00278E  2250               	addwfc	(___fltol@f1+3)^0,f,c
  2728   002790                     l3620:
  2729   002790  C04D  F04D         	movff	___fltol@f1,?___fltol
  2730   002794  C04E  F04E         	movff	___fltol@f1+1,?___fltol+1
  2731   002798  C04F  F04F         	movff	___fltol@f1+2,?___fltol+2
  2732   00279C  C050  F050         	movff	___fltol@f1+3,?___fltol+3
  2733   0027A0                     l624:
  2734   0027A0  0012               	return		;funcret
  2735   0027A2                     __end_of___fltol:
  2736                           	callstack 0
  2737                           
  2738 ;; *************** function ___flsub *****************
  2739 ;; Defined at:
  2740 ;;		line 245 in file "C:\Program Files\Microchip\xc8\v2.40\pic\sources\c99\common\sprcadd.c"
  2741 ;; Parameters:    Size  Location     Type
  2742 ;;  b               4   68[COMRAM] long 
  2743 ;;  a               4   72[COMRAM] long 
  2744 ;; Auto vars:     Size  Location     Type
  2745 ;;		None
  2746 ;; Return value:  Size  Location     Type
  2747 ;;                  4   68[COMRAM] long 
  2748 ;; Registers used:
  2749 ;;		wreg, status,2, status,0, cstack
  2750 ;; Tracked objects:
  2751 ;;		On entry : 0/0
  2752 ;;		On exit  : 0/0
  2753 ;;		Unchanged: 0/0
  2754 ;; Data sizes:     COMRAM   BANK0   BANK1   BANK2   BANK3   BANK4   BANK5   BANK6   BANK7
  2755 ;;      Params:         8       0       0       0       0       0       0       0       0
  2756 ;;      Locals:         0       0       0       0       0       0       0       0       0
  2757 ;;      Temps:          0       0       0       0       0       0       0       0       0
  2758 ;;      Totals:         8       0       0       0       0       0       0       0       0
  2759 ;;Total ram usage:        8 bytes
  2760 ;; Hardware stack levels used: 1
  2761 ;; Hardware stack levels required when called: 2
  2762 ;; This function calls:
  2763 ;;		___fladd
  2764 ;; This function is called by:
  2765 ;;		_precargas
  2766 ;; This function uses a non-reentrant model
  2767 ;;
  2768                           
  2769                           	psect	text6
  2770   00288E                     __ptext6:
  2771                           	callstack 0
  2772   00288E                     ___flsub:
  2773                           	callstack 26
  2774   00288E  0E00               	movlw	0
  2775   002890  1A49               	xorwf	___flsub@a^0,f,c
  2776   002892  0E00               	movlw	0
  2777   002894  1A4A               	xorwf	(___flsub@a+1)^0,f,c
  2778   002896  0E00               	movlw	0
  2779   002898  1A4B               	xorwf	(___flsub@a+2)^0,f,c
  2780   00289A  0E80               	movlw	128
  2781   00289C  1A4C               	xorwf	(___flsub@a+3)^0,f,c
  2782   00289E  C045  F005         	movff	___flsub@b,___fladd@b
  2783   0028A2  C046  F006         	movff	___flsub@b+1,___fladd@b+1
  2784   0028A6  C047  F007         	movff	___flsub@b+2,___fladd@b+2
  2785   0028AA  C048  F008         	movff	___flsub@b+3,___fladd@b+3
  2786   0028AE  C049  F009         	movff	___flsub@a,___fladd@a
  2787   0028B2  C04A  F00A         	movff	___flsub@a+1,___fladd@a+1
  2788   0028B6  C04B  F00B         	movff	___flsub@a+2,___fladd@a+2
  2789   0028BA  C04C  F00C         	movff	___flsub@a+3,___fladd@a+3
  2790   0028BE  EC6C  F006         	call	___fladd	;wreg free
  2791   0028C2  C005  F045         	movff	?___fladd,?___flsub
  2792   0028C6  C006  F046         	movff	?___fladd+1,?___flsub+1
  2793   0028CA  C007  F047         	movff	?___fladd+2,?___flsub+2
  2794   0028CE  C008  F048         	movff	?___fladd+3,?___flsub+3
  2795   0028D2  0012               	return		;funcret
  2796   0028D4                     __end_of___flsub:
  2797                           	callstack 0
  2798                           
  2799 ;; *************** function ___fladd *****************
  2800 ;; Defined at:
  2801 ;;		line 10 in file "C:\Program Files\Microchip\xc8\v2.40\pic\sources\c99\common\sprcadd.c"
  2802 ;; Parameters:    Size  Location     Type
  2803 ;;  b               4    4[COMRAM] long 
  2804 ;;  a               4    8[COMRAM] long 
  2805 ;; Auto vars:     Size  Location     Type
  2806 ;;  grs             1   19[COMRAM] unsigned char 
  2807 ;;  bexp            1   18[COMRAM] unsigned char 
  2808 ;;  aexp            1   17[COMRAM] unsigned char 
  2809 ;;  signs           1   16[COMRAM] unsigned char 
  2810 ;; Return value:  Size  Location     Type
  2811 ;;                  4    4[COMRAM] unsigned char 
  2812 ;; Registers used:
  2813 ;;		wreg, status,2, status,0
  2814 ;; Tracked objects:
  2815 ;;		On entry : 0/0
  2816 ;;		On exit  : 0/0
  2817 ;;		Unchanged: 0/0
  2818 ;; Data sizes:     COMRAM   BANK0   BANK1   BANK2   BANK3   BANK4   BANK5   BANK6   BANK7
  2819 ;;      Params:         8       0       0       0       0       0       0       0       0
  2820 ;;      Locals:         4       0       0       0       0       0       0       0       0
  2821 ;;      Temps:          4       0       0       0       0       0       0       0       0
  2822 ;;      Totals:        16       0       0       0       0       0       0       0       0
  2823 ;;Total ram usage:       16 bytes
  2824 ;; Hardware stack levels used: 1
  2825 ;; Hardware stack levels required when called: 1
  2826 ;; This function calls:
  2827 ;;		Nothing
  2828 ;; This function is called by:
  2829 ;;		___flsub
  2830 ;; This function uses a non-reentrant model
  2831 ;;
  2832                           
  2833                           	psect	text7
  2834   000CD8                     __ptext7:
  2835                           	callstack 0
  2836   000CD8                     ___fladd:
  2837                           	callstack 26
  2838   000CD8  5008               	movf	(___fladd@b+3)^0,w,c
  2839   000CDA  0B80               	andlw	128
  2840   000CDC  6E11               	movwf	___fladd@signs^0,c
  2841   000CDE  5008               	movf	(___fladd@b+3)^0,w,c
  2842   000CE0  2408               	addwf	(___fladd@b+3)^0,w,c
  2843   000CE2  6E13               	movwf	___fladd@bexp^0,c
  2844   000CE4  AE07               	btfss	(___fladd@b+2)^0,7,c
  2845   000CE6  EF77  F006         	goto	u3731
  2846   000CEA  EF79  F006         	goto	u3730
  2847   000CEE                     u3731:
  2848   000CEE  EF7A  F006         	goto	l3110
  2849   000CF2                     u3730:
  2850   000CF2  8013               	bsf	___fladd@bexp^0,0,c
  2851   000CF4                     l3110:
  2852   000CF4  5013               	movf	___fladd@bexp^0,w,c
  2853   000CF6  B4D8               	btfsc	status,2,c
  2854   000CF8  EF80  F006         	goto	u3741
  2855   000CFC  EF82  F006         	goto	u3740
  2856   000D00                     u3741:
  2857   000D00  EF97  F006         	goto	l3120
  2858   000D04                     u3740:
  2859   000D04  2813               	incf	___fladd@bexp^0,w,c
  2860   000D06  A4D8               	btfss	status,2,c
  2861   000D08  EF88  F006         	goto	u3751
  2862   000D0C  EF8A  F006         	goto	u3750
  2863   000D10                     u3751:
  2864   000D10  EF92  F006         	goto	l3116
  2865   000D14                     u3750:
  2866   000D14  0E00               	movlw	0
  2867   000D16  6E05               	movwf	___fladd@b^0,c
  2868   000D18  0E00               	movlw	0
  2869   000D1A  6E06               	movwf	(___fladd@b+1)^0,c
  2870   000D1C  0E00               	movlw	0
  2871   000D1E  6E07               	movwf	(___fladd@b+2)^0,c
  2872   000D20  0E00               	movlw	0
  2873   000D22  6E08               	movwf	(___fladd@b+3)^0,c
  2874   000D24                     l3116:
  2875   000D24  8E07               	bsf	(___fladd@b+2)^0,7,c
  2876   000D26  0E00               	movlw	0
  2877   000D28  6E08               	movwf	(___fladd@b+3)^0,c
  2878   000D2A  EF9F  F006         	goto	l3122
  2879   000D2E                     l3120:
  2880   000D2E  0E00               	movlw	0
  2881   000D30  6E05               	movwf	___fladd@b^0,c
  2882   000D32  0E00               	movlw	0
  2883   000D34  6E06               	movwf	(___fladd@b+1)^0,c
  2884   000D36  0E00               	movlw	0
  2885   000D38  6E07               	movwf	(___fladd@b+2)^0,c
  2886   000D3A  0E00               	movlw	0
  2887   000D3C  6E08               	movwf	(___fladd@b+3)^0,c
  2888   000D3E                     l3122:
  2889   000D3E  500C               	movf	(___fladd@a+3)^0,w,c
  2890   000D40  0B80               	andlw	128
  2891   000D42  6E12               	movwf	___fladd@aexp^0,c
  2892   000D44  5011               	movf	___fladd@signs^0,w,c
  2893   000D46  1812               	xorwf	___fladd@aexp^0,w,c
  2894   000D48  B4D8               	btfsc	status,2,c
  2895   000D4A  EFA9  F006         	goto	u3761
  2896   000D4E  EFAB  F006         	goto	u3760
  2897   000D52                     u3761:
  2898   000D52  EFAC  F006         	goto	l3128
  2899   000D56                     u3760:
  2900   000D56  8C11               	bsf	___fladd@signs^0,6,c
  2901   000D58                     l3128:
  2902   000D58  500C               	movf	(___fladd@a+3)^0,w,c
  2903   000D5A  240C               	addwf	(___fladd@a+3)^0,w,c
  2904   000D5C  6E12               	movwf	___fladd@aexp^0,c
  2905   000D5E  AE0B               	btfss	(___fladd@a+2)^0,7,c
  2906   000D60  EFB4  F006         	goto	u3771
  2907   000D64  EFB6  F006         	goto	u3770
  2908   000D68                     u3771:
  2909   000D68  EFB7  F006         	goto	l3134
  2910   000D6C                     u3770:
  2911   000D6C  8012               	bsf	___fladd@aexp^0,0,c
  2912   000D6E                     l3134:
  2913   000D6E  5012               	movf	___fladd@aexp^0,w,c
  2914   000D70  B4D8               	btfsc	status,2,c
  2915   000D72  EFBD  F006         	goto	u3781
  2916   000D76  EFBF  F006         	goto	u3780
  2917   000D7A                     u3781:
  2918   000D7A  EFD4  F006         	goto	l3144
  2919   000D7E                     u3780:
  2920   000D7E  2812               	incf	___fladd@aexp^0,w,c
  2921   000D80  A4D8               	btfss	status,2,c
  2922   000D82  EFC5  F006         	goto	u3791
  2923   000D86  EFC7  F006         	goto	u3790
  2924   000D8A                     u3791:
  2925   000D8A  EFCF  F006         	goto	l3140
  2926   000D8E                     u3790:
  2927   000D8E  0E00               	movlw	0
  2928   000D90  6E09               	movwf	___fladd@a^0,c
  2929   000D92  0E00               	movlw	0
  2930   000D94  6E0A               	movwf	(___fladd@a+1)^0,c
  2931   000D96  0E00               	movlw	0
  2932   000D98  6E0B               	movwf	(___fladd@a+2)^0,c
  2933   000D9A  0E00               	movlw	0
  2934   000D9C  6E0C               	movwf	(___fladd@a+3)^0,c
  2935   000D9E                     l3140:
  2936   000D9E  8E0B               	bsf	(___fladd@a+2)^0,7,c
  2937   000DA0  0E00               	movlw	0
  2938   000DA2  6E0C               	movwf	(___fladd@a+3)^0,c
  2939   000DA4  EFDC  F006         	goto	l3146
  2940   000DA8                     l3144:
  2941   000DA8  0E00               	movlw	0
  2942   000DAA  6E09               	movwf	___fladd@a^0,c
  2943   000DAC  0E00               	movlw	0
  2944   000DAE  6E0A               	movwf	(___fladd@a+1)^0,c
  2945   000DB0  0E00               	movlw	0
  2946   000DB2  6E0B               	movwf	(___fladd@a+2)^0,c
  2947   000DB4  0E00               	movlw	0
  2948   000DB6  6E0C               	movwf	(___fladd@a+3)^0,c
  2949   000DB8                     l3146:
  2950   000DB8  5013               	movf	___fladd@bexp^0,w,c
  2951   000DBA  5C12               	subwf	___fladd@aexp^0,w,c
  2952   000DBC  B0D8               	btfsc	status,0,c
  2953   000DBE  EFE3  F006         	goto	u3801
  2954   000DC2  EFE5  F006         	goto	u3800
  2955   000DC6                     u3801:
  2956   000DC6  EF0C  F007         	goto	l3182
  2957   000DCA                     u3800:
  2958   000DCA  AC11               	btfss	___fladd@signs^0,6,c
  2959   000DCC  EFEA  F006         	goto	u3811
  2960   000DD0  EFEC  F006         	goto	u3810
  2961   000DD4                     u3811:
  2962   000DD4  EFEE  F006         	goto	l3152
  2963   000DD8                     u3810:
  2964   000DD8  0E80               	movlw	128
  2965   000DDA  1A11               	xorwf	___fladd@signs^0,f,c
  2966   000DDC                     l3152:
  2967   000DDC  C013  F014         	movff	___fladd@bexp,___fladd@grs
  2968   000DE0  C012  F013         	movff	___fladd@aexp,___fladd@bexp
  2969   000DE4  C014  F012         	movff	___fladd@grs,___fladd@aexp
  2970   000DE8  C005  F014         	movff	___fladd@b,___fladd@grs
  2971   000DEC  C009  F005         	movff	___fladd@a,___fladd@b
  2972   000DF0  C014  F009         	movff	___fladd@grs,___fladd@a
  2973   000DF4  C006  F014         	movff	___fladd@b+1,___fladd@grs
  2974   000DF8  C00A  F006         	movff	___fladd@a+1,___fladd@b+1
  2975   000DFC  C014  F00A         	movff	___fladd@grs,___fladd@a+1
  2976   000E00  C007  F014         	movff	___fladd@b+2,___fladd@grs
  2977   000E04  C00B  F007         	movff	___fladd@a+2,___fladd@b+2
  2978   000E08  C014  F00B         	movff	___fladd@grs,___fladd@a+2
  2979   000E0C  C008  F014         	movff	___fladd@b+3,___fladd@grs
  2980   000E10  C00C  F008         	movff	___fladd@a+3,___fladd@b+3
  2981   000E14  C014  F00C         	movff	___fladd@grs,___fladd@a+3
  2982   000E18                     l3182:
  2983   000E18  0E00               	movlw	0
  2984   000E1A  6E14               	movwf	___fladd@grs^0,c
  2985   000E1C  5013               	movf	___fladd@bexp^0,w,c
  2986   000E1E  C012  F00D         	movff	___fladd@aexp,??___fladd
  2987   000E22  6A0E               	clrf	(??___fladd+1)^0,c
  2988   000E24  5E0D               	subwf	??___fladd^0,f,c
  2989   000E26  0E00               	movlw	0
  2990   000E28  5A0E               	subwfb	(??___fladd+1)^0,f,c
  2991   000E2A  BE0E               	btfsc	(??___fladd+1)^0,7,c
  2992   000E2C  EF21  F007         	goto	u3821
  2993   000E30  500E               	movf	(??___fladd+1)^0,w,c
  2994   000E32  E109               	bnz	u3820
  2995   000E34  0E1A               	movlw	26
  2996   000E36  5C0D               	subwf	??___fladd^0,w,c
  2997   000E38  A0D8               	btfss	status,0,c
  2998   000E3A  EF21  F007         	goto	u3821
  2999   000E3E  EF23  F007         	goto	u3820
  3000   000E42                     u3821:
  3001   000E42  EF5A  F007         	goto	l856
  3002   000E46                     u3820:
  3003   000E46  5005               	movf	___fladd@b^0,w,c
  3004   000E48  1006               	iorwf	(___fladd@b+1)^0,w,c
  3005   000E4A  1007               	iorwf	(___fladd@b+2)^0,w,c
  3006   000E4C  1008               	iorwf	(___fladd@b+3)^0,w,c
  3007   000E4E  A4D8               	btfss	status,2,c
  3008   000E50  EF2C  F007         	goto	u3831
  3009   000E54  EF2F  F007         	goto	u3830
  3010   000E58                     u3831:
  3011   000E58  0E01               	movlw	1
  3012   000E5A  EF30  F007         	goto	u3840
  3013   000E5E                     u3830:
  3014   000E5E  0E00               	movlw	0
  3015   000E60                     u3840:
  3016   000E60  6E14               	movwf	___fladd@grs^0,c
  3017   000E62  0E00               	movlw	0
  3018   000E64  6E05               	movwf	___fladd@b^0,c
  3019   000E66  0E00               	movlw	0
  3020   000E68  6E06               	movwf	(___fladd@b+1)^0,c
  3021   000E6A  0E00               	movlw	0
  3022   000E6C  6E07               	movwf	(___fladd@b+2)^0,c
  3023   000E6E  0E00               	movlw	0
  3024   000E70  6E08               	movwf	(___fladd@b+3)^0,c
  3025   000E72  C012  F013         	movff	___fladd@aexp,___fladd@bexp
  3026   000E76  EF63  F007         	goto	l855
  3027   000E7A                     l857:
  3028   000E7A  A014               	btfss	___fladd@grs^0,0,c
  3029   000E7C  EF42  F007         	goto	u3851
  3030   000E80  EF44  F007         	goto	u3850
  3031   000E84                     u3851:
  3032   000E84  EF4A  F007         	goto	l3194
  3033   000E88                     u3850:
  3034   000E88  90D8               	bcf	status,0,c
  3035   000E8A  3014               	rrcf	___fladd@grs^0,w,c
  3036   000E8C  0901               	iorlw	1
  3037   000E8E  6E14               	movwf	___fladd@grs^0,c
  3038   000E90  EF4C  F007         	goto	l3196
  3039   000E94                     l3194:
  3040   000E94  90D8               	bcf	status,0,c
  3041   000E96  3214               	rrcf	___fladd@grs^0,f,c
  3042   000E98                     l3196:
  3043   000E98  A005               	btfss	___fladd@b^0,0,c
  3044   000E9A  EF51  F007         	goto	u3861
  3045   000E9E  EF53  F007         	goto	u3860
  3046   000EA2                     u3861:
  3047   000EA2  EF54  F007         	goto	l3200
  3048   000EA6                     u3860:
  3049   000EA6  8E14               	bsf	___fladd@grs^0,7,c
  3050   000EA8                     l3200:
  3051   000EA8  3408               	rlcf	(___fladd@b+3)^0,w,c
  3052   000EAA  3208               	rrcf	(___fladd@b+3)^0,f,c
  3053   000EAC  3207               	rrcf	(___fladd@b+2)^0,f,c
  3054   000EAE  3206               	rrcf	(___fladd@b+1)^0,f,c
  3055   000EB0  3205               	rrcf	___fladd@b^0,f,c
  3056   000EB2  2A13               	incf	___fladd@bexp^0,f,c
  3057   000EB4                     l856:
  3058   000EB4  5012               	movf	___fladd@aexp^0,w,c
  3059   000EB6  5C13               	subwf	___fladd@bexp^0,w,c
  3060   000EB8  A0D8               	btfss	status,0,c
  3061   000EBA  EF61  F007         	goto	u3871
  3062   000EBE  EF63  F007         	goto	u3870
  3063   000EC2                     u3871:
  3064   000EC2  EF3D  F007         	goto	l857
  3065   000EC6                     u3870:
  3066   000EC6                     l855:
  3067   000EC6  BC11               	btfsc	___fladd@signs^0,6,c
  3068   000EC8  EF68  F007         	goto	u3881
  3069   000ECC  EF6A  F007         	goto	u3880
  3070   000ED0                     u3881:
  3071   000ED0  EFAA  F007         	goto	l3228
  3072   000ED4                     u3880:
  3073   000ED4  5013               	movf	___fladd@bexp^0,w,c
  3074   000ED6  A4D8               	btfss	status,2,c
  3075   000ED8  EF70  F007         	goto	u3891
  3076   000EDC  EF72  F007         	goto	u3890
  3077   000EE0                     u3891:
  3078   000EE0  EF7C  F007         	goto	l3210
  3079   000EE4                     u3890:
  3080   000EE4  0E00               	movlw	0
  3081   000EE6  6E05               	movwf	?___fladd^0,c
  3082   000EE8  0E00               	movlw	0
  3083   000EEA  6E06               	movwf	(?___fladd+1)^0,c
  3084   000EEC  0E00               	movlw	0
  3085   000EEE  6E07               	movwf	(?___fladd+2)^0,c
  3086   000EF0  0E00               	movlw	0
  3087   000EF2  6E08               	movwf	(?___fladd+3)^0,c
  3088   000EF4  EFCB  F008         	goto	l864
  3089   000EF8                     l3210:
  3090   000EF8  5009               	movf	___fladd@a^0,w,c
  3091   000EFA  2605               	addwf	___fladd@b^0,f,c
  3092   000EFC  500A               	movf	(___fladd@a+1)^0,w,c
  3093   000EFE  2206               	addwfc	(___fladd@b+1)^0,f,c
  3094   000F00  500B               	movf	(___fladd@a+2)^0,w,c
  3095   000F02  2207               	addwfc	(___fladd@b+2)^0,f,c
  3096   000F04  500C               	movf	(___fladd@a+3)^0,w,c
  3097   000F06  2208               	addwfc	(___fladd@b+3)^0,f,c
  3098   000F08  A008               	btfss	(___fladd@b+3)^0,0,c
  3099   000F0A  EF89  F007         	goto	u3901
  3100   000F0E  EF8B  F007         	goto	u3900
  3101   000F12                     u3901:
  3102   000F12  EF37  F008         	goto	l3264
  3103   000F16                     u3900:
  3104   000F16  A014               	btfss	___fladd@grs^0,0,c
  3105   000F18  EF90  F007         	goto	u3911
  3106   000F1C  EF92  F007         	goto	u3910
  3107   000F20                     u3911:
  3108   000F20  EF98  F007         	goto	l3218
  3109   000F24                     u3910:
  3110   000F24  90D8               	bcf	status,0,c
  3111   000F26  3014               	rrcf	___fladd@grs^0,w,c
  3112   000F28  0901               	iorlw	1
  3113   000F2A  6E14               	movwf	___fladd@grs^0,c
  3114   000F2C  EF9A  F007         	goto	l3220
  3115   000F30                     l3218:
  3116   000F30  90D8               	bcf	status,0,c
  3117   000F32  3214               	rrcf	___fladd@grs^0,f,c
  3118   000F34                     l3220:
  3119   000F34  A005               	btfss	___fladd@b^0,0,c
  3120   000F36  EF9F  F007         	goto	u3921
  3121   000F3A  EFA1  F007         	goto	u3920
  3122   000F3E                     u3921:
  3123   000F3E  EFA2  F007         	goto	l3224
  3124   000F42                     u3920:
  3125   000F42  8E14               	bsf	___fladd@grs^0,7,c
  3126   000F44                     l3224:
  3127   000F44  3408               	rlcf	(___fladd@b+3)^0,w,c
  3128   000F46  3208               	rrcf	(___fladd@b+3)^0,f,c
  3129   000F48  3207               	rrcf	(___fladd@b+2)^0,f,c
  3130   000F4A  3206               	rrcf	(___fladd@b+1)^0,f,c
  3131   000F4C  3205               	rrcf	___fladd@b^0,f,c
  3132   000F4E  2A13               	incf	___fladd@bexp^0,f,c
  3133   000F50  EF37  F008         	goto	l3264
  3134   000F54                     l3228:
  3135   000F54  5009               	movf	___fladd@a^0,w,c
  3136   000F56  5C05               	subwf	___fladd@b^0,w,c
  3137   000F58  500A               	movf	(___fladd@a+1)^0,w,c
  3138   000F5A  5806               	subwfb	(___fladd@b+1)^0,w,c
  3139   000F5C  500B               	movf	(___fladd@a+2)^0,w,c
  3140   000F5E  5807               	subwfb	(___fladd@b+2)^0,w,c
  3141   000F60  5008               	movf	(___fladd@b+3)^0,w,c
  3142   000F62  0A80               	xorlw	128
  3143   000F64  6E0D               	movwf	??___fladd^0,c
  3144   000F66  500C               	movf	(___fladd@a+3)^0,w,c
  3145   000F68  0A80               	xorlw	128
  3146   000F6A  580D               	subwfb	??___fladd^0,w,c
  3147   000F6C  B0D8               	btfsc	status,0,c
  3148   000F6E  EFBB  F007         	goto	u3931
  3149   000F72  EFBD  F007         	goto	u3930
  3150   000F76                     u3931:
  3151   000F76  EFE8  F007         	goto	l3238
  3152   000F7A                     u3930:
  3153   000F7A  5005               	movf	___fladd@b^0,w,c
  3154   000F7C  5C09               	subwf	___fladd@a^0,w,c
  3155   000F7E  6E0D               	movwf	??___fladd^0,c
  3156   000F80  5006               	movf	(___fladd@b+1)^0,w,c
  3157   000F82  580A               	subwfb	(___fladd@a+1)^0,w,c
  3158   000F84  6E0E               	movwf	(??___fladd+1)^0,c
  3159   000F86  5007               	movf	(___fladd@b+2)^0,w,c
  3160   000F88  580B               	subwfb	(___fladd@a+2)^0,w,c
  3161   000F8A  6E0F               	movwf	(??___fladd+2)^0,c
  3162   000F8C  5008               	movf	(___fladd@b+3)^0,w,c
  3163   000F8E  580C               	subwfb	(___fladd@a+3)^0,w,c
  3164   000F90  6E10               	movwf	(??___fladd+3)^0,c
  3165   000F92  0EFF               	movlw	255
  3166   000F94  240D               	addwf	??___fladd^0,w,c
  3167   000F96  6E05               	movwf	___fladd@b^0,c
  3168   000F98  0EFF               	movlw	255
  3169   000F9A  200E               	addwfc	(??___fladd+1)^0,w,c
  3170   000F9C  6E06               	movwf	(___fladd@b+1)^0,c
  3171   000F9E  0EFF               	movlw	255
  3172   000FA0  200F               	addwfc	(??___fladd+2)^0,w,c
  3173   000FA2  6E07               	movwf	(___fladd@b+2)^0,c
  3174   000FA4  0EFF               	movlw	255
  3175   000FA6  2010               	addwfc	(??___fladd+3)^0,w,c
  3176   000FA8  6E08               	movwf	(___fladd@b+3)^0,c
  3177   000FAA  0E80               	movlw	128
  3178   000FAC  1A11               	xorwf	___fladd@signs^0,f,c
  3179   000FAE  6C14               	negf	___fladd@grs^0,c
  3180   000FB0  5014               	movf	___fladd@grs^0,w,c
  3181   000FB2  A4D8               	btfss	status,2,c
  3182   000FB4  EFDE  F007         	goto	u3941
  3183   000FB8  EFE0  F007         	goto	u3940
  3184   000FBC                     u3941:
  3185   000FBC  EFF0  F007         	goto	l872
  3186   000FC0                     u3940:
  3187   000FC0  0E01               	movlw	1
  3188   000FC2  2605               	addwf	___fladd@b^0,f,c
  3189   000FC4  0E00               	movlw	0
  3190   000FC6  2206               	addwfc	(___fladd@b+1)^0,f,c
  3191   000FC8  2207               	addwfc	(___fladd@b+2)^0,f,c
  3192   000FCA  2208               	addwfc	(___fladd@b+3)^0,f,c
  3193   000FCC  EFF0  F007         	goto	l872
  3194   000FD0                     l3238:
  3195   000FD0  5009               	movf	___fladd@a^0,w,c
  3196   000FD2  5E05               	subwf	___fladd@b^0,f,c
  3197   000FD4  500A               	movf	(___fladd@a+1)^0,w,c
  3198   000FD6  5A06               	subwfb	(___fladd@b+1)^0,f,c
  3199   000FD8  500B               	movf	(___fladd@a+2)^0,w,c
  3200   000FDA  5A07               	subwfb	(___fladd@b+2)^0,f,c
  3201   000FDC  500C               	movf	(___fladd@a+3)^0,w,c
  3202   000FDE  5A08               	subwfb	(___fladd@b+3)^0,f,c
  3203   000FE0                     l872:
  3204   000FE0  5005               	movf	___fladd@b^0,w,c
  3205   000FE2  1006               	iorwf	(___fladd@b+1)^0,w,c
  3206   000FE4  1007               	iorwf	(___fladd@b+2)^0,w,c
  3207   000FE6  1008               	iorwf	(___fladd@b+3)^0,w,c
  3208   000FE8  A4D8               	btfss	status,2,c
  3209   000FEA  EFF9  F007         	goto	u3951
  3210   000FEE  EFFB  F007         	goto	u3950
  3211   000FF2                     u3951:
  3212   000FF2  EF30  F008         	goto	l3262
  3213   000FF6                     u3950:
  3214   000FF6  5014               	movf	___fladd@grs^0,w,c
  3215   000FF8  A4D8               	btfss	status,2,c
  3216   000FFA  EF01  F008         	goto	u3961
  3217   000FFE  EF03  F008         	goto	u3960
  3218   001002                     u3961:
  3219   001002  EF30  F008         	goto	l3262
  3220   001006                     u3960:
  3221   001006  0E00               	movlw	0
  3222   001008  6E05               	movwf	?___fladd^0,c
  3223   00100A  0E00               	movlw	0
  3224   00100C  6E06               	movwf	(?___fladd+1)^0,c
  3225   00100E  0E00               	movlw	0
  3226   001010  6E07               	movwf	(?___fladd+2)^0,c
  3227   001012  0E00               	movlw	0
  3228   001014  6E08               	movwf	(?___fladd+3)^0,c
  3229   001016  EFCB  F008         	goto	l864
  3230   00101A                     l3246:
  3231   00101A  90D8               	bcf	status,0,c
  3232   00101C  3605               	rlcf	___fladd@b^0,f,c
  3233   00101E  3606               	rlcf	(___fladd@b+1)^0,f,c
  3234   001020  3607               	rlcf	(___fladd@b+2)^0,f,c
  3235   001022  3608               	rlcf	(___fladd@b+3)^0,f,c
  3236   001024  AE14               	btfss	___fladd@grs^0,7,c
  3237   001026  EF17  F008         	goto	u3971
  3238   00102A  EF19  F008         	goto	u3970
  3239   00102E                     u3971:
  3240   00102E  EF1A  F008         	goto	l3252
  3241   001032                     u3970:
  3242   001032  8005               	bsf	___fladd@b^0,0,c
  3243   001034                     l3252:
  3244   001034  A014               	btfss	___fladd@grs^0,0,c
  3245   001036  EF1F  F008         	goto	u3981
  3246   00103A  EF21  F008         	goto	u3980
  3247   00103E                     u3981:
  3248   00103E  EF25  F008         	goto	l3256
  3249   001042                     u3980:
  3250   001042  80D8               	bsf	status,0,c
  3251   001044  3614               	rlcf	___fladd@grs^0,f,c
  3252   001046  EF27  F008         	goto	l3258
  3253   00104A                     l3256:
  3254   00104A  90D8               	bcf	status,0,c
  3255   00104C  3614               	rlcf	___fladd@grs^0,f,c
  3256   00104E                     l3258:
  3257   00104E  5013               	movf	___fladd@bexp^0,w,c
  3258   001050  B4D8               	btfsc	status,2,c
  3259   001052  EF2D  F008         	goto	u3991
  3260   001056  EF2F  F008         	goto	u3990
  3261   00105A                     u3991:
  3262   00105A  EF30  F008         	goto	l3262
  3263   00105E                     u3990:
  3264   00105E  0613               	decf	___fladd@bexp^0,f,c
  3265   001060                     l3262:
  3266   001060  AE07               	btfss	(___fladd@b+2)^0,7,c
  3267   001062  EF35  F008         	goto	u4001
  3268   001066  EF37  F008         	goto	u4000
  3269   00106A                     u4001:
  3270   00106A  EF0D  F008         	goto	l3246
  3271   00106E                     u4000:
  3272   00106E                     l3264:
  3273   00106E  0E00               	movlw	0
  3274   001070  6E12               	movwf	___fladd@aexp^0,c
  3275   001072  AE14               	btfss	___fladd@grs^0,7,c
  3276   001074  EF3E  F008         	goto	u4011
  3277   001078  EF40  F008         	goto	u4010
  3278   00107C                     u4011:
  3279   00107C  EF58  F008         	goto	l881
  3280   001080                     u4010:
  3281   001080  C014  F00D         	movff	___fladd@grs,??___fladd
  3282   001084  0E7F               	movlw	127
  3283   001086  160D               	andwf	??___fladd^0,f,c
  3284   001088  B4D8               	btfsc	status,2,c
  3285   00108A  EF49  F008         	goto	u4021
  3286   00108E  EF4B  F008         	goto	u4020
  3287   001092                     u4021:
  3288   001092  EF4F  F008         	goto	l882
  3289   001096                     u4020:
  3290   001096                     l3270:
  3291   001096  0E01               	movlw	1
  3292   001098  6E12               	movwf	___fladd@aexp^0,c
  3293   00109A  EF58  F008         	goto	l881
  3294   00109E                     l882:
  3295   00109E  A005               	btfss	___fladd@b^0,0,c
  3296   0010A0  EF54  F008         	goto	u4031
  3297   0010A4  EF56  F008         	goto	u4030
  3298   0010A8                     u4031:
  3299   0010A8  EF58  F008         	goto	l881
  3300   0010AC                     u4030:
  3301   0010AC  EF4B  F008         	goto	l3270
  3302   0010B0                     l881:
  3303   0010B0  5012               	movf	___fladd@aexp^0,w,c
  3304   0010B2  B4D8               	btfsc	status,2,c
  3305   0010B4  EF5E  F008         	goto	u4041
  3306   0010B8  EF60  F008         	goto	u4040
  3307   0010BC                     u4041:
  3308   0010BC  EF8B  F008         	goto	l3282
  3309   0010C0                     u4040:
  3310   0010C0  0E01               	movlw	1
  3311   0010C2  2605               	addwf	___fladd@b^0,f,c
  3312   0010C4  0E00               	movlw	0
  3313   0010C6  2206               	addwfc	(___fladd@b+1)^0,f,c
  3314   0010C8  2207               	addwfc	(___fladd@b+2)^0,f,c
  3315   0010CA  2208               	addwfc	(___fladd@b+3)^0,f,c
  3316   0010CC  A008               	btfss	(___fladd@b+3)^0,0,c
  3317   0010CE  EF6B  F008         	goto	u4051
  3318   0010D2  EF6D  F008         	goto	u4050
  3319   0010D6                     u4051:
  3320   0010D6  EF8B  F008         	goto	l3282
  3321   0010DA                     u4050:
  3322   0010DA  C005  F00D         	movff	___fladd@b,??___fladd
  3323   0010DE  C006  F00E         	movff	___fladd@b+1,??___fladd+1
  3324   0010E2  C007  F00F         	movff	___fladd@b+2,??___fladd+2
  3325   0010E6  C008  F010         	movff	___fladd@b+3,??___fladd+3
  3326   0010EA  3410               	rlcf	(??___fladd+3)^0,w,c
  3327   0010EC  3210               	rrcf	(??___fladd+3)^0,f,c
  3328   0010EE  320F               	rrcf	(??___fladd+2)^0,f,c
  3329   0010F0  320E               	rrcf	(??___fladd+1)^0,f,c
  3330   0010F2  320D               	rrcf	??___fladd^0,f,c
  3331   0010F4  C00D  F005         	movff	??___fladd,___fladd@b
  3332   0010F8  C00E  F006         	movff	??___fladd+1,___fladd@b+1
  3333   0010FC  C00F  F007         	movff	??___fladd+2,___fladd@b+2
  3334   001100  C010  F008         	movff	??___fladd+3,___fladd@b+3
  3335   001104  2813               	incf	___fladd@bexp^0,w,c
  3336   001106  B4D8               	btfsc	status,2,c
  3337   001108  EF88  F008         	goto	u4061
  3338   00110C  EF8A  F008         	goto	u4060
  3339   001110                     u4061:
  3340   001110  EF8B  F008         	goto	l3282
  3341   001114                     u4060:
  3342   001114  2A13               	incf	___fladd@bexp^0,f,c
  3343   001116                     l3282:
  3344   001116  2813               	incf	___fladd@bexp^0,w,c
  3345   001118  B4D8               	btfsc	status,2,c
  3346   00111A  EF91  F008         	goto	u4071
  3347   00111E  EF93  F008         	goto	u4070
  3348   001122                     u4071:
  3349   001122  EF9B  F008         	goto	l3286
  3350   001126                     u4070:
  3351   001126  5013               	movf	___fladd@bexp^0,w,c
  3352   001128  A4D8               	btfss	status,2,c
  3353   00112A  EF99  F008         	goto	u4081
  3354   00112E  EF9B  F008         	goto	u4080
  3355   001132                     u4081:
  3356   001132  EFAD  F008         	goto	l3290
  3357   001136                     u4080:
  3358   001136                     l3286:
  3359   001136  0E00               	movlw	0
  3360   001138  6E05               	movwf	___fladd@b^0,c
  3361   00113A  0E00               	movlw	0
  3362   00113C  6E06               	movwf	(___fladd@b+1)^0,c
  3363   00113E  0E00               	movlw	0
  3364   001140  6E07               	movwf	(___fladd@b+2)^0,c
  3365   001142  0E00               	movlw	0
  3366   001144  6E08               	movwf	(___fladd@b+3)^0,c
  3367   001146  5013               	movf	___fladd@bexp^0,w,c
  3368   001148  A4D8               	btfss	status,2,c
  3369   00114A  EFA9  F008         	goto	u4091
  3370   00114E  EFAB  F008         	goto	u4090
  3371   001152                     u4091:
  3372   001152  EFAD  F008         	goto	l3290
  3373   001156                     u4090:
  3374   001156  0E00               	movlw	0
  3375   001158  6E11               	movwf	___fladd@signs^0,c
  3376   00115A                     l3290:
  3377   00115A  A013               	btfss	___fladd@bexp^0,0,c
  3378   00115C  EFB2  F008         	goto	u4101
  3379   001160  EFB4  F008         	goto	u4100
  3380   001164                     u4101:
  3381   001164  EFB7  F008         	goto	l3294
  3382   001168                     u4100:
  3383   001168  8E07               	bsf	(___fladd@b+2)^0,7,c
  3384   00116A  EFB8  F008         	goto	l3296
  3385   00116E                     l3294:
  3386   00116E  9E07               	bcf	(___fladd@b+2)^0,7,c
  3387   001170                     l3296:
  3388   001170  90D8               	bcf	status,0,c
  3389   001172  3013               	rrcf	___fladd@bexp^0,w,c
  3390   001174  6E08               	movwf	(___fladd@b+3)^0,c
  3391   001176  AE11               	btfss	___fladd@signs^0,7,c
  3392   001178  EFC0  F008         	goto	u4111
  3393   00117C  EFC2  F008         	goto	u4110
  3394   001180                     u4111:
  3395   001180  EFC3  F008         	goto	l3302
  3396   001184                     u4110:
  3397   001184  8E08               	bsf	(___fladd@b+3)^0,7,c
  3398   001186                     l3302:
  3399   001186  C005  F005         	movff	___fladd@b,?___fladd
  3400   00118A  C006  F006         	movff	___fladd@b+1,?___fladd+1
  3401   00118E  C007  F007         	movff	___fladd@b+2,?___fladd+2
  3402   001192  C008  F008         	movff	___fladd@b+3,?___fladd+3
  3403   001196                     l864:
  3404   001196  0012               	return		;funcret
  3405   001198                     __end_of___fladd:
  3406                           	callstack 0
  3407                           
  3408 ;; *************** function ___flmul *****************
  3409 ;; Defined at:
  3410 ;;		line 8 in file "C:\Program Files\Microchip\xc8\v2.40\pic\sources\c99\common\sprcmul.c"
  3411 ;; Parameters:    Size  Location     Type
  3412 ;;  b               4   18[COMRAM] unsigned char 
  3413 ;;  a               4   22[COMRAM] unsigned char 
  3414 ;; Auto vars:     Size  Location     Type
  3415 ;;  prod            4   37[COMRAM] struct .
  3416 ;;  grs             4   32[COMRAM] unsigned long 
  3417 ;;  temp            2   41[COMRAM] struct .
  3418 ;;  bexp            1   36[COMRAM] unsigned char 
  3419 ;;  aexp            1   31[COMRAM] unsigned char 
  3420 ;;  sign            1   30[COMRAM] unsigned char 
  3421 ;; Return value:  Size  Location     Type
  3422 ;;                  4   18[COMRAM] unsigned char 
  3423 ;; Registers used:
  3424 ;;		wreg, status,2, status,0, prodl, prodh
  3425 ;; Tracked objects:
  3426 ;;		On entry : 0/0
  3427 ;;		On exit  : 0/0
  3428 ;;		Unchanged: 0/0
  3429 ;; Data sizes:     COMRAM   BANK0   BANK1   BANK2   BANK3   BANK4   BANK5   BANK6   BANK7
  3430 ;;      Params:         8       0       0       0       0       0       0       0       0
  3431 ;;      Locals:        13       0       0       0       0       0       0       0       0
  3432 ;;      Temps:          4       0       0       0       0       0       0       0       0
  3433 ;;      Totals:        25       0       0       0       0       0       0       0       0
  3434 ;;Total ram usage:       25 bytes
  3435 ;; Hardware stack levels used: 1
  3436 ;; Hardware stack levels required when called: 1
  3437 ;; This function calls:
  3438 ;;		Nothing
  3439 ;; This function is called by:
  3440 ;;		_precargas
  3441 ;;		_mover
  3442 ;; This function uses a non-reentrant model
  3443 ;;
  3444                           
  3445                           	psect	text8
  3446   001198                     __ptext8:
  3447                           	callstack 0
  3448   001198                     ___flmul:
  3449                           	callstack 27
  3450   001198  5016               	movf	(___flmul@b+3)^0,w,c
  3451   00119A  0B80               	andlw	128
  3452   00119C  6E1F               	movwf	___flmul@sign^0,c
  3453   00119E  5016               	movf	(___flmul@b+3)^0,w,c
  3454   0011A0  2416               	addwf	(___flmul@b+3)^0,w,c
  3455   0011A2  6E25               	movwf	___flmul@bexp^0,c
  3456   0011A4  AE15               	btfss	(___flmul@b+2)^0,7,c
  3457   0011A6  EFD7  F008         	goto	u4351
  3458   0011AA  EFD9  F008         	goto	u4350
  3459   0011AE                     u4351:
  3460   0011AE  EFDA  F008         	goto	l3450
  3461   0011B2                     u4350:
  3462   0011B2  8025               	bsf	___flmul@bexp^0,0,c
  3463   0011B4                     l3450:
  3464   0011B4  5025               	movf	___flmul@bexp^0,w,c
  3465   0011B6  B4D8               	btfsc	status,2,c
  3466   0011B8  EFE0  F008         	goto	u4361
  3467   0011BC  EFE2  F008         	goto	u4360
  3468   0011C0                     u4361:
  3469   0011C0  EFF5  F008         	goto	l3458
  3470   0011C4                     u4360:
  3471   0011C4  2825               	incf	___flmul@bexp^0,w,c
  3472   0011C6  A4D8               	btfss	status,2,c
  3473   0011C8  EFE8  F008         	goto	u4371
  3474   0011CC  EFEA  F008         	goto	u4370
  3475   0011D0                     u4371:
  3476   0011D0  EFF2  F008         	goto	l3456
  3477   0011D4                     u4370:
  3478   0011D4  0E00               	movlw	0
  3479   0011D6  6E13               	movwf	___flmul@b^0,c
  3480   0011D8  0E00               	movlw	0
  3481   0011DA  6E14               	movwf	(___flmul@b+1)^0,c
  3482   0011DC  0E00               	movlw	0
  3483   0011DE  6E15               	movwf	(___flmul@b+2)^0,c
  3484   0011E0  0E00               	movlw	0
  3485   0011E2  6E16               	movwf	(___flmul@b+3)^0,c
  3486   0011E4                     l3456:
  3487   0011E4  8E15               	bsf	(___flmul@b+2)^0,7,c
  3488   0011E6  EFFD  F008         	goto	l3460
  3489   0011EA                     l3458:
  3490   0011EA  0E00               	movlw	0
  3491   0011EC  6E13               	movwf	___flmul@b^0,c
  3492   0011EE  0E00               	movlw	0
  3493   0011F0  6E14               	movwf	(___flmul@b+1)^0,c
  3494   0011F2  0E00               	movlw	0
  3495   0011F4  6E15               	movwf	(___flmul@b+2)^0,c
  3496   0011F6  0E00               	movlw	0
  3497   0011F8  6E16               	movwf	(___flmul@b+3)^0,c
  3498   0011FA                     l3460:
  3499   0011FA  501A               	movf	(___flmul@a+3)^0,w,c
  3500   0011FC  0B80               	andlw	128
  3501   0011FE  1A1F               	xorwf	___flmul@sign^0,f,c
  3502   001200  501A               	movf	(___flmul@a+3)^0,w,c
  3503   001202  241A               	addwf	(___flmul@a+3)^0,w,c
  3504   001204  6E20               	movwf	___flmul@aexp^0,c
  3505   001206  AE19               	btfss	(___flmul@a+2)^0,7,c
  3506   001208  EF08  F009         	goto	u4381
  3507   00120C  EF0A  F009         	goto	u4380
  3508   001210                     u4381:
  3509   001210  EF0B  F009         	goto	l3468
  3510   001214                     u4380:
  3511   001214  8020               	bsf	___flmul@aexp^0,0,c
  3512   001216                     l3468:
  3513   001216  5020               	movf	___flmul@aexp^0,w,c
  3514   001218  B4D8               	btfsc	status,2,c
  3515   00121A  EF11  F009         	goto	u4391
  3516   00121E  EF13  F009         	goto	u4390
  3517   001222                     u4391:
  3518   001222  EF26  F009         	goto	l3476
  3519   001226                     u4390:
  3520   001226  2820               	incf	___flmul@aexp^0,w,c
  3521   001228  A4D8               	btfss	status,2,c
  3522   00122A  EF19  F009         	goto	u4401
  3523   00122E  EF1B  F009         	goto	u4400
  3524   001232                     u4401:
  3525   001232  EF23  F009         	goto	l3474
  3526   001236                     u4400:
  3527   001236  0E00               	movlw	0
  3528   001238  6E17               	movwf	___flmul@a^0,c
  3529   00123A  0E00               	movlw	0
  3530   00123C  6E18               	movwf	(___flmul@a+1)^0,c
  3531   00123E  0E00               	movlw	0
  3532   001240  6E19               	movwf	(___flmul@a+2)^0,c
  3533   001242  0E00               	movlw	0
  3534   001244  6E1A               	movwf	(___flmul@a+3)^0,c
  3535   001246                     l3474:
  3536   001246  8E19               	bsf	(___flmul@a+2)^0,7,c
  3537   001248  EF2E  F009         	goto	l941
  3538   00124C                     l3476:
  3539   00124C  0E00               	movlw	0
  3540   00124E  6E17               	movwf	___flmul@a^0,c
  3541   001250  0E00               	movlw	0
  3542   001252  6E18               	movwf	(___flmul@a+1)^0,c
  3543   001254  0E00               	movlw	0
  3544   001256  6E19               	movwf	(___flmul@a+2)^0,c
  3545   001258  0E00               	movlw	0
  3546   00125A  6E1A               	movwf	(___flmul@a+3)^0,c
  3547   00125C                     l941:
  3548   00125C  5020               	movf	___flmul@aexp^0,w,c
  3549   00125E  B4D8               	btfsc	status,2,c
  3550   001260  EF34  F009         	goto	u4411
  3551   001264  EF36  F009         	goto	u4410
  3552   001268                     u4411:
  3553   001268  EF3E  F009         	goto	l3480
  3554   00126C                     u4410:
  3555   00126C  5025               	movf	___flmul@bexp^0,w,c
  3556   00126E  A4D8               	btfss	status,2,c
  3557   001270  EF3C  F009         	goto	u4421
  3558   001274  EF3E  F009         	goto	u4420
  3559   001278                     u4421:
  3560   001278  EF48  F009         	goto	l3484
  3561   00127C                     u4420:
  3562   00127C                     l3480:
  3563   00127C  0E00               	movlw	0
  3564   00127E  6E13               	movwf	?___flmul^0,c
  3565   001280  0E00               	movlw	0
  3566   001282  6E14               	movwf	(?___flmul+1)^0,c
  3567   001284  0E00               	movlw	0
  3568   001286  6E15               	movwf	(?___flmul+2)^0,c
  3569   001288  0E00               	movlw	0
  3570   00128A  6E16               	movwf	(?___flmul+3)^0,c
  3571   00128C  EFE0  F00A         	goto	l945
  3572   001290                     l3484:
  3573   001290  5019               	movf	(___flmul@a+2)^0,w,c
  3574   001292  0213               	mulwf	___flmul@b^0,c
  3575   001294  CFF3 F02A          	movff	prodl,___flmul@temp
  3576   001298  CFF4 F02B          	movff	prodh,___flmul@temp+1
  3577   00129C  502A               	movf	___flmul@temp^0,w,c
  3578   00129E  6E21               	movwf	___flmul@grs^0,c
  3579   0012A0  6A22               	clrf	(___flmul@grs+1)^0,c
  3580   0012A2  6A23               	clrf	(___flmul@grs+2)^0,c
  3581   0012A4  6A24               	clrf	(___flmul@grs+3)^0,c
  3582   0012A6  502B               	movf	(___flmul@temp+1)^0,w,c
  3583   0012A8  6E26               	movwf	___flmul@prod^0,c
  3584   0012AA  6A27               	clrf	(___flmul@prod+1)^0,c
  3585   0012AC  6A28               	clrf	(___flmul@prod+2)^0,c
  3586   0012AE  6A29               	clrf	(___flmul@prod+3)^0,c
  3587   0012B0  5018               	movf	(___flmul@a+1)^0,w,c
  3588   0012B2  0214               	mulwf	(___flmul@b+1)^0,c
  3589   0012B4  CFF3 F02A          	movff	prodl,___flmul@temp
  3590   0012B8  CFF4 F02B          	movff	prodh,___flmul@temp+1
  3591   0012BC  502A               	movf	___flmul@temp^0,w,c
  3592   0012BE  2621               	addwf	___flmul@grs^0,f,c
  3593   0012C0  0E00               	movlw	0
  3594   0012C2  2222               	addwfc	(___flmul@grs+1)^0,f,c
  3595   0012C4  2223               	addwfc	(___flmul@grs+2)^0,f,c
  3596   0012C6  2224               	addwfc	(___flmul@grs+3)^0,f,c
  3597   0012C8  502B               	movf	(___flmul@temp+1)^0,w,c
  3598   0012CA  2626               	addwf	___flmul@prod^0,f,c
  3599   0012CC  0E00               	movlw	0
  3600   0012CE  2227               	addwfc	(___flmul@prod+1)^0,f,c
  3601   0012D0  2228               	addwfc	(___flmul@prod+2)^0,f,c
  3602   0012D2  2229               	addwfc	(___flmul@prod+3)^0,f,c
  3603   0012D4  5017               	movf	___flmul@a^0,w,c
  3604   0012D6  0215               	mulwf	(___flmul@b+2)^0,c
  3605   0012D8  CFF3 F02A          	movff	prodl,___flmul@temp
  3606   0012DC  CFF4 F02B          	movff	prodh,___flmul@temp+1
  3607   0012E0  502A               	movf	___flmul@temp^0,w,c
  3608   0012E2  2621               	addwf	___flmul@grs^0,f,c
  3609   0012E4  0E00               	movlw	0
  3610   0012E6  2222               	addwfc	(___flmul@grs+1)^0,f,c
  3611   0012E8  2223               	addwfc	(___flmul@grs+2)^0,f,c
  3612   0012EA  2224               	addwfc	(___flmul@grs+3)^0,f,c
  3613   0012EC  502B               	movf	(___flmul@temp+1)^0,w,c
  3614   0012EE  2626               	addwf	___flmul@prod^0,f,c
  3615   0012F0  0E00               	movlw	0
  3616   0012F2  2227               	addwfc	(___flmul@prod+1)^0,f,c
  3617   0012F4  2228               	addwfc	(___flmul@prod+2)^0,f,c
  3618   0012F6  2229               	addwfc	(___flmul@prod+3)^0,f,c
  3619   0012F8  C023  F024         	movff	___flmul@grs+2,___flmul@grs+3
  3620   0012FC  C022  F023         	movff	___flmul@grs+1,___flmul@grs+2
  3621   001300  C021  F022         	movff	___flmul@grs,___flmul@grs+1
  3622   001304  6A21               	clrf	___flmul@grs^0,c
  3623   001306  5017               	movf	___flmul@a^0,w,c
  3624   001308  0214               	mulwf	(___flmul@b+1)^0,c
  3625   00130A  CFF3 F02A          	movff	prodl,___flmul@temp
  3626   00130E  CFF4 F02B          	movff	prodh,___flmul@temp+1
  3627   001312  502A               	movf	___flmul@temp^0,w,c
  3628   001314  2621               	addwf	___flmul@grs^0,f,c
  3629   001316  502B               	movf	(___flmul@temp+1)^0,w,c
  3630   001318  2222               	addwfc	(___flmul@grs+1)^0,f,c
  3631   00131A  0E00               	movlw	0
  3632   00131C  2223               	addwfc	(___flmul@grs+2)^0,f,c
  3633   00131E  0E00               	movlw	0
  3634   001320  2224               	addwfc	(___flmul@grs+3)^0,f,c
  3635   001322  5018               	movf	(___flmul@a+1)^0,w,c
  3636   001324  0213               	mulwf	___flmul@b^0,c
  3637   001326  CFF3 F02A          	movff	prodl,___flmul@temp
  3638   00132A  CFF4 F02B          	movff	prodh,___flmul@temp+1
  3639   00132E  502A               	movf	___flmul@temp^0,w,c
  3640   001330  2621               	addwf	___flmul@grs^0,f,c
  3641   001332  502B               	movf	(___flmul@temp+1)^0,w,c
  3642   001334  2222               	addwfc	(___flmul@grs+1)^0,f,c
  3643   001336  0E00               	movlw	0
  3644   001338  2223               	addwfc	(___flmul@grs+2)^0,f,c
  3645   00133A  0E00               	movlw	0
  3646   00133C  2224               	addwfc	(___flmul@grs+3)^0,f,c
  3647   00133E  C023  F024         	movff	___flmul@grs+2,___flmul@grs+3
  3648   001342  C022  F023         	movff	___flmul@grs+1,___flmul@grs+2
  3649   001346  C021  F022         	movff	___flmul@grs,___flmul@grs+1
  3650   00134A  6A21               	clrf	___flmul@grs^0,c
  3651   00134C  5017               	movf	___flmul@a^0,w,c
  3652   00134E  0213               	mulwf	___flmul@b^0,c
  3653   001350  CFF3 F02A          	movff	prodl,___flmul@temp
  3654   001354  CFF4 F02B          	movff	prodh,___flmul@temp+1
  3655   001358  502A               	movf	___flmul@temp^0,w,c
  3656   00135A  2621               	addwf	___flmul@grs^0,f,c
  3657   00135C  502B               	movf	(___flmul@temp+1)^0,w,c
  3658   00135E  2222               	addwfc	(___flmul@grs+1)^0,f,c
  3659   001360  0E00               	movlw	0
  3660   001362  2223               	addwfc	(___flmul@grs+2)^0,f,c
  3661   001364  0E00               	movlw	0
  3662   001366  2224               	addwfc	(___flmul@grs+3)^0,f,c
  3663   001368  5019               	movf	(___flmul@a+2)^0,w,c
  3664   00136A  0214               	mulwf	(___flmul@b+1)^0,c
  3665   00136C  CFF3 F02A          	movff	prodl,___flmul@temp
  3666   001370  CFF4 F02B          	movff	prodh,___flmul@temp+1
  3667   001374  502A               	movf	___flmul@temp^0,w,c
  3668   001376  2626               	addwf	___flmul@prod^0,f,c
  3669   001378  502B               	movf	(___flmul@temp+1)^0,w,c
  3670   00137A  2227               	addwfc	(___flmul@prod+1)^0,f,c
  3671   00137C  0E00               	movlw	0
  3672   00137E  2228               	addwfc	(___flmul@prod+2)^0,f,c
  3673   001380  0E00               	movlw	0
  3674   001382  2229               	addwfc	(___flmul@prod+3)^0,f,c
  3675   001384  5018               	movf	(___flmul@a+1)^0,w,c
  3676   001386  0215               	mulwf	(___flmul@b+2)^0,c
  3677   001388  CFF3 F02A          	movff	prodl,___flmul@temp
  3678   00138C  CFF4 F02B          	movff	prodh,___flmul@temp+1
  3679   001390  502A               	movf	___flmul@temp^0,w,c
  3680   001392  2626               	addwf	___flmul@prod^0,f,c
  3681   001394  502B               	movf	(___flmul@temp+1)^0,w,c
  3682   001396  2227               	addwfc	(___flmul@prod+1)^0,f,c
  3683   001398  0E00               	movlw	0
  3684   00139A  2228               	addwfc	(___flmul@prod+2)^0,f,c
  3685   00139C  0E00               	movlw	0
  3686   00139E  2229               	addwfc	(___flmul@prod+3)^0,f,c
  3687   0013A0  5019               	movf	(___flmul@a+2)^0,w,c
  3688   0013A2  0215               	mulwf	(___flmul@b+2)^0,c
  3689   0013A4  CFF3 F02A          	movff	prodl,___flmul@temp
  3690   0013A8  CFF4 F02B          	movff	prodh,___flmul@temp+1
  3691   0013AC  502A               	movf	___flmul@temp^0,w,c
  3692   0013AE  6E1B               	movwf	??___flmul^0,c
  3693   0013B0  502B               	movf	(___flmul@temp+1)^0,w,c
  3694   0013B2  6E1C               	movwf	(??___flmul+1)^0,c
  3695   0013B4  6A1D               	clrf	(??___flmul+2)^0,c
  3696   0013B6  6A1E               	clrf	(??___flmul+3)^0,c
  3697   0013B8  C01D  F01E         	movff	??___flmul+2,??___flmul+3
  3698   0013BC  C01C  F01D         	movff	??___flmul+1,??___flmul+2
  3699   0013C0  C01B  F01C         	movff	??___flmul,??___flmul+1
  3700   0013C4  6A1B               	clrf	??___flmul^0,c
  3701   0013C6  501B               	movf	??___flmul^0,w,c
  3702   0013C8  2626               	addwf	___flmul@prod^0,f,c
  3703   0013CA  501C               	movf	(??___flmul+1)^0,w,c
  3704   0013CC  2227               	addwfc	(___flmul@prod+1)^0,f,c
  3705   0013CE  501D               	movf	(??___flmul+2)^0,w,c
  3706   0013D0  2228               	addwfc	(___flmul@prod+2)^0,f,c
  3707   0013D2  501E               	movf	(??___flmul+3)^0,w,c
  3708   0013D4  2229               	addwfc	(___flmul@prod+3)^0,f,c
  3709   0013D6  C021  F01B         	movff	___flmul@grs,??___flmul
  3710   0013DA  C022  F01C         	movff	___flmul@grs+1,??___flmul+1
  3711   0013DE  C023  F01D         	movff	___flmul@grs+2,??___flmul+2
  3712   0013E2  C024  F01E         	movff	___flmul@grs+3,??___flmul+3
  3713   0013E6  0E19               	movlw	25
  3714   0013E8  EFFB  F009         	goto	u4430
  3715   0013EC                     u4435:
  3716   0013EC  90D8               	bcf	status,0,c
  3717   0013EE  321E               	rrcf	(??___flmul+3)^0,f,c
  3718   0013F0  321D               	rrcf	(??___flmul+2)^0,f,c
  3719   0013F2  321C               	rrcf	(??___flmul+1)^0,f,c
  3720   0013F4  321B               	rrcf	??___flmul^0,f,c
  3721   0013F6                     u4430:
  3722   0013F6  2EE8               	decfsz	wreg,f,c
  3723   0013F8  EFF6  F009         	goto	u4435
  3724   0013FC  501B               	movf	??___flmul^0,w,c
  3725   0013FE  2626               	addwf	___flmul@prod^0,f,c
  3726   001400  501C               	movf	(??___flmul+1)^0,w,c
  3727   001402  2227               	addwfc	(___flmul@prod+1)^0,f,c
  3728   001404  501D               	movf	(??___flmul+2)^0,w,c
  3729   001406  2228               	addwfc	(___flmul@prod+2)^0,f,c
  3730   001408  501E               	movf	(??___flmul+3)^0,w,c
  3731   00140A  2229               	addwfc	(___flmul@prod+3)^0,f,c
  3732   00140C  C023  F024         	movff	___flmul@grs+2,___flmul@grs+3
  3733   001410  C022  F023         	movff	___flmul@grs+1,___flmul@grs+2
  3734   001414  C021  F022         	movff	___flmul@grs,___flmul@grs+1
  3735   001418  6A21               	clrf	___flmul@grs^0,c
  3736   00141A  5020               	movf	___flmul@aexp^0,w,c
  3737   00141C  C025  F01B         	movff	___flmul@bexp,??___flmul
  3738   001420  6A1C               	clrf	(??___flmul+1)^0,c
  3739   001422  261B               	addwf	??___flmul^0,f,c
  3740   001424  0E00               	movlw	0
  3741   001426  221C               	addwfc	(??___flmul+1)^0,f,c
  3742   001428  0E82               	movlw	130
  3743   00142A  241B               	addwf	??___flmul^0,w,c
  3744   00142C  6E2A               	movwf	___flmul@temp^0,c
  3745   00142E  0EFF               	movlw	255
  3746   001430  201C               	addwfc	(??___flmul+1)^0,w,c
  3747   001432  6E2B               	movwf	(___flmul@temp+1)^0,c
  3748   001434  EF31  F00A         	goto	l3532
  3749   001438                     l3526:
  3750   001438  90D8               	bcf	status,0,c
  3751   00143A  3626               	rlcf	___flmul@prod^0,f,c
  3752   00143C  3627               	rlcf	(___flmul@prod+1)^0,f,c
  3753   00143E  3628               	rlcf	(___flmul@prod+2)^0,f,c
  3754   001440  3629               	rlcf	(___flmul@prod+3)^0,f,c
  3755   001442  AE24               	btfss	(___flmul@grs+3)^0,7,c
  3756   001444  EF26  F00A         	goto	u4441
  3757   001448  EF28  F00A         	goto	u4440
  3758   00144C                     u4441:
  3759   00144C  EF29  F00A         	goto	l948
  3760   001450                     u4440:
  3761   001450  8026               	bsf	___flmul@prod^0,0,c
  3762   001452                     l948:
  3763   001452  90D8               	bcf	status,0,c
  3764   001454  3621               	rlcf	___flmul@grs^0,f,c
  3765   001456  3622               	rlcf	(___flmul@grs+1)^0,f,c
  3766   001458  3623               	rlcf	(___flmul@grs+2)^0,f,c
  3767   00145A  3624               	rlcf	(___flmul@grs+3)^0,f,c
  3768   00145C  062A               	decf	___flmul@temp^0,f,c
  3769   00145E  A0D8               	btfss	status,0,c
  3770   001460  062B               	decf	(___flmul@temp+1)^0,f,c
  3771   001462                     l3532:
  3772   001462  AE28               	btfss	(___flmul@prod+2)^0,7,c
  3773   001464  EF36  F00A         	goto	u4451
  3774   001468  EF38  F00A         	goto	u4450
  3775   00146C                     u4451:
  3776   00146C  EF1C  F00A         	goto	l3526
  3777   001470                     u4450:
  3778   001470  0E00               	movlw	0
  3779   001472  6E20               	movwf	___flmul@aexp^0,c
  3780   001474  AE24               	btfss	(___flmul@grs+3)^0,7,c
  3781   001476  EF3F  F00A         	goto	u4461
  3782   00147A  EF41  F00A         	goto	u4460
  3783   00147E                     u4461:
  3784   00147E  EF65  F00A         	goto	l950
  3785   001482                     u4460:
  3786   001482  0EFF               	movlw	255
  3787   001484  1421               	andwf	___flmul@grs^0,w,c
  3788   001486  6E1B               	movwf	??___flmul^0,c
  3789   001488  0EFF               	movlw	255
  3790   00148A  1422               	andwf	(___flmul@grs+1)^0,w,c
  3791   00148C  6E1C               	movwf	(??___flmul+1)^0,c
  3792   00148E  0EFF               	movlw	255
  3793   001490  1423               	andwf	(___flmul@grs+2)^0,w,c
  3794   001492  6E1D               	movwf	(??___flmul+2)^0,c
  3795   001494  0E7F               	movlw	127
  3796   001496  1424               	andwf	(___flmul@grs+3)^0,w,c
  3797   001498  6E1E               	movwf	(??___flmul+3)^0,c
  3798   00149A  501B               	movf	??___flmul^0,w,c
  3799   00149C  101C               	iorwf	(??___flmul+1)^0,w,c
  3800   00149E  101D               	iorwf	(??___flmul+2)^0,w,c
  3801   0014A0  101E               	iorwf	(??___flmul+3)^0,w,c
  3802   0014A2  B4D8               	btfsc	status,2,c
  3803   0014A4  EF56  F00A         	goto	u4471
  3804   0014A8  EF58  F00A         	goto	u4470
  3805   0014AC                     u4471:
  3806   0014AC  EF5C  F00A         	goto	l951
  3807   0014B0                     u4470:
  3808   0014B0                     l3540:
  3809   0014B0  0E01               	movlw	1
  3810   0014B2  6E20               	movwf	___flmul@aexp^0,c
  3811   0014B4  EF65  F00A         	goto	l950
  3812   0014B8                     l951:
  3813   0014B8  A026               	btfss	___flmul@prod^0,0,c
  3814   0014BA  EF61  F00A         	goto	u4481
  3815   0014BE  EF63  F00A         	goto	u4480
  3816   0014C2                     u4481:
  3817   0014C2  EF65  F00A         	goto	l950
  3818   0014C6                     u4480:
  3819   0014C6  EF58  F00A         	goto	l3540
  3820   0014CA                     l950:
  3821   0014CA  5020               	movf	___flmul@aexp^0,w,c
  3822   0014CC  B4D8               	btfsc	status,2,c
  3823   0014CE  EF6B  F00A         	goto	u4491
  3824   0014D2  EF6D  F00A         	goto	u4490
  3825   0014D6                     u4491:
  3826   0014D6  EF91  F00A         	goto	l3552
  3827   0014DA                     u4490:
  3828   0014DA  0E01               	movlw	1
  3829   0014DC  2626               	addwf	___flmul@prod^0,f,c
  3830   0014DE  0E00               	movlw	0
  3831   0014E0  2227               	addwfc	(___flmul@prod+1)^0,f,c
  3832   0014E2  2228               	addwfc	(___flmul@prod+2)^0,f,c
  3833   0014E4  2229               	addwfc	(___flmul@prod+3)^0,f,c
  3834   0014E6  A029               	btfss	(___flmul@prod+3)^0,0,c
  3835   0014E8  EF78  F00A         	goto	u4501
  3836   0014EC  EF7A  F00A         	goto	u4500
  3837   0014F0                     u4501:
  3838   0014F0  EF91  F00A         	goto	l3552
  3839   0014F4                     u4500:
  3840   0014F4  C026  F01B         	movff	___flmul@prod,??___flmul
  3841   0014F8  C027  F01C         	movff	___flmul@prod+1,??___flmul+1
  3842   0014FC  C028  F01D         	movff	___flmul@prod+2,??___flmul+2
  3843   001500  C029  F01E         	movff	___flmul@prod+3,??___flmul+3
  3844   001504  341E               	rlcf	(??___flmul+3)^0,w,c
  3845   001506  321E               	rrcf	(??___flmul+3)^0,f,c
  3846   001508  321D               	rrcf	(??___flmul+2)^0,f,c
  3847   00150A  321C               	rrcf	(??___flmul+1)^0,f,c
  3848   00150C  321B               	rrcf	??___flmul^0,f,c
  3849   00150E  C01B  F026         	movff	??___flmul,___flmul@prod
  3850   001512  C01C  F027         	movff	??___flmul+1,___flmul@prod+1
  3851   001516  C01D  F028         	movff	??___flmul+2,___flmul@prod+2
  3852   00151A  C01E  F029         	movff	??___flmul+3,___flmul@prod+3
  3853   00151E  4A2A               	infsnz	___flmul@temp^0,f,c
  3854   001520  2A2B               	incf	(___flmul@temp+1)^0,f,c
  3855   001522                     l3552:
  3856   001522  BE2B               	btfsc	(___flmul@temp+1)^0,7,c
  3857   001524  EF9C  F00A         	goto	u4511
  3858   001528  502B               	movf	(___flmul@temp+1)^0,w,c
  3859   00152A  E108               	bnz	u4510
  3860   00152C  282A               	incf	___flmul@temp^0,w,c
  3861   00152E  A0D8               	btfss	status,0,c
  3862   001530  EF9C  F00A         	goto	u4511
  3863   001534  EF9E  F00A         	goto	u4510
  3864   001538                     u4511:
  3865   001538  EFA8  F00A         	goto	l3556
  3866   00153C                     u4510:
  3867   00153C  0E00               	movlw	0
  3868   00153E  6E26               	movwf	___flmul@prod^0,c
  3869   001540  0E00               	movlw	0
  3870   001542  6E27               	movwf	(___flmul@prod+1)^0,c
  3871   001544  0E80               	movlw	128
  3872   001546  6E28               	movwf	(___flmul@prod+2)^0,c
  3873   001548  0E7F               	movlw	127
  3874   00154A  6E29               	movwf	(___flmul@prod+3)^0,c
  3875   00154C  EFD6  F00A         	goto	l3568
  3876   001550                     l3556:
  3877   001550  BE2B               	btfsc	(___flmul@temp+1)^0,7,c
  3878   001552  EFB5  F00A         	goto	u4520
  3879   001556  502B               	movf	(___flmul@temp+1)^0,w,c
  3880   001558  E106               	bnz	u4521
  3881   00155A  042A               	decf	___flmul@temp^0,w,c
  3882   00155C  B0D8               	btfsc	status,0,c
  3883   00155E  EFB3  F00A         	goto	u4521
  3884   001562  EFB5  F00A         	goto	u4520
  3885   001566                     u4521:
  3886   001566  EFC1  F00A         	goto	l958
  3887   00156A                     u4520:
  3888   00156A  0E00               	movlw	0
  3889   00156C  6E26               	movwf	___flmul@prod^0,c
  3890   00156E  0E00               	movlw	0
  3891   001570  6E27               	movwf	(___flmul@prod+1)^0,c
  3892   001572  0E00               	movlw	0
  3893   001574  6E28               	movwf	(___flmul@prod+2)^0,c
  3894   001576  0E00               	movlw	0
  3895   001578  6E29               	movwf	(___flmul@prod+3)^0,c
  3896   00157A  0E00               	movlw	0
  3897   00157C  6E1F               	movwf	___flmul@sign^0,c
  3898   00157E  EFD6  F00A         	goto	l3568
  3899   001582                     l958:
  3900   001582  C02A  F025         	movff	___flmul@temp,___flmul@bexp
  3901   001586  0EFF               	movlw	255
  3902   001588  1626               	andwf	___flmul@prod^0,f,c
  3903   00158A  0EFF               	movlw	255
  3904   00158C  1627               	andwf	(___flmul@prod+1)^0,f,c
  3905   00158E  0E7F               	movlw	127
  3906   001590  1628               	andwf	(___flmul@prod+2)^0,f,c
  3907   001592  0E00               	movlw	0
  3908   001594  1629               	andwf	(___flmul@prod+3)^0,f,c
  3909   001596  A025               	btfss	___flmul@bexp^0,0,c
  3910   001598  EFD0  F00A         	goto	u4531
  3911   00159C  EFD2  F00A         	goto	u4530
  3912   0015A0                     u4531:
  3913   0015A0  EFD3  F00A         	goto	l3566
  3914   0015A4                     u4530:
  3915   0015A4  8E28               	bsf	(___flmul@prod+2)^0,7,c
  3916   0015A6                     l3566:
  3917   0015A6  90D8               	bcf	status,0,c
  3918   0015A8  3025               	rrcf	___flmul@bexp^0,w,c
  3919   0015AA  6E29               	movwf	(___flmul@prod+3)^0,c
  3920   0015AC                     l3568:
  3921   0015AC  501F               	movf	___flmul@sign^0,w,c
  3922   0015AE  1229               	iorwf	(___flmul@prod+3)^0,f,c
  3923   0015B0  C026  F013         	movff	___flmul@prod,?___flmul
  3924   0015B4  C027  F014         	movff	___flmul@prod+1,?___flmul+1
  3925   0015B8  C028  F015         	movff	___flmul@prod+2,?___flmul+2
  3926   0015BC  C029  F016         	movff	___flmul@prod+3,?___flmul+3
  3927   0015C0                     l945:
  3928   0015C0  0012               	return		;funcret
  3929   0015C2                     __end_of___flmul:
  3930                           	callstack 0
  3931                           
  3932 ;; *************** function ___fldiv *****************
  3933 ;; Defined at:
  3934 ;;		line 11 in file "C:\Program Files\Microchip\xc8\v2.40\pic\sources\c99\common\sprcdiv.c"
  3935 ;; Parameters:    Size  Location     Type
  3936 ;;  b               4   43[COMRAM] unsigned char 
  3937 ;;  a               4   47[COMRAM] unsigned char 
  3938 ;; Auto vars:     Size  Location     Type
  3939 ;;  grs             4   62[COMRAM] unsigned long 
  3940 ;;  rem             4   55[COMRAM] unsigned long 
  3941 ;;  new_exp         2   60[COMRAM] short 
  3942 ;;  aexp            1   67[COMRAM] unsigned char 
  3943 ;;  bexp            1   66[COMRAM] unsigned char 
  3944 ;;  sign            1   59[COMRAM] unsigned char 
  3945 ;; Return value:  Size  Location     Type
  3946 ;;                  4   43[COMRAM] unsigned char 
  3947 ;; Registers used:
  3948 ;;		wreg, status,2, status,0
  3949 ;; Tracked objects:
  3950 ;;		On entry : 0/0
  3951 ;;		On exit  : 0/0
  3952 ;;		Unchanged: 0/0
  3953 ;; Data sizes:     COMRAM   BANK0   BANK1   BANK2   BANK3   BANK4   BANK5   BANK6   BANK7
  3954 ;;      Params:         8       0       0       0       0       0       0       0       0
  3955 ;;      Locals:        13       0       0       0       0       0       0       0       0
  3956 ;;      Temps:          4       0       0       0       0       0       0       0       0
  3957 ;;      Totals:        25       0       0       0       0       0       0       0       0
  3958 ;;Total ram usage:       25 bytes
  3959 ;; Hardware stack levels used: 1
  3960 ;; Hardware stack levels required when called: 1
  3961 ;; This function calls:
  3962 ;;		Nothing
  3963 ;; This function is called by:
  3964 ;;		_main
  3965 ;;		_precargas
  3966 ;;		_mover
  3967 ;; This function uses a non-reentrant model
  3968 ;;
  3969                           
  3970                           	psect	text9
  3971   001D58                     __ptext9:
  3972                           	callstack 0
  3973   001D58                     ___fldiv:
  3974                           	callstack 27
  3975   001D58  502F               	movf	(___fldiv@b+3)^0,w,c
  3976   001D5A  0B80               	andlw	128
  3977   001D5C  6E3C               	movwf	___fldiv@sign^0,c
  3978   001D5E  502F               	movf	(___fldiv@b+3)^0,w,c
  3979   001D60  242F               	addwf	(___fldiv@b+3)^0,w,c
  3980   001D62  6E43               	movwf	___fldiv@bexp^0,c
  3981   001D64  AE2E               	btfss	(___fldiv@b+2)^0,7,c
  3982   001D66  EFB7  F00E         	goto	u4121
  3983   001D6A  EFB9  F00E         	goto	u4120
  3984   001D6E                     u4121:
  3985   001D6E  EFBA  F00E         	goto	l3312
  3986   001D72                     u4120:
  3987   001D72  8043               	bsf	___fldiv@bexp^0,0,c
  3988   001D74                     l3312:
  3989   001D74  5043               	movf	___fldiv@bexp^0,w,c
  3990   001D76  B4D8               	btfsc	status,2,c
  3991   001D78  EFC0  F00E         	goto	u4131
  3992   001D7C  EFC2  F00E         	goto	u4130
  3993   001D80                     u4131:
  3994   001D80  EFD7  F00E         	goto	l3322
  3995   001D84                     u4130:
  3996   001D84  2843               	incf	___fldiv@bexp^0,w,c
  3997   001D86  A4D8               	btfss	status,2,c
  3998   001D88  EFC8  F00E         	goto	u4141
  3999   001D8C  EFCA  F00E         	goto	u4140
  4000   001D90                     u4141:
  4001   001D90  EFD2  F00E         	goto	l3318
  4002   001D94                     u4140:
  4003   001D94  0E00               	movlw	0
  4004   001D96  6E2C               	movwf	___fldiv@b^0,c
  4005   001D98  0E00               	movlw	0
  4006   001D9A  6E2D               	movwf	(___fldiv@b+1)^0,c
  4007   001D9C  0E00               	movlw	0
  4008   001D9E  6E2E               	movwf	(___fldiv@b+2)^0,c
  4009   001DA0  0E00               	movlw	0
  4010   001DA2  6E2F               	movwf	(___fldiv@b+3)^0,c
  4011   001DA4                     l3318:
  4012   001DA4  8E2E               	bsf	(___fldiv@b+2)^0,7,c
  4013   001DA6  0E00               	movlw	0
  4014   001DA8  6E2F               	movwf	(___fldiv@b+3)^0,c
  4015   001DAA  EFDF  F00E         	goto	l3324
  4016   001DAE                     l3322:
  4017   001DAE  0E00               	movlw	0
  4018   001DB0  6E2C               	movwf	___fldiv@b^0,c
  4019   001DB2  0E00               	movlw	0
  4020   001DB4  6E2D               	movwf	(___fldiv@b+1)^0,c
  4021   001DB6  0E00               	movlw	0
  4022   001DB8  6E2E               	movwf	(___fldiv@b+2)^0,c
  4023   001DBA  0E00               	movlw	0
  4024   001DBC  6E2F               	movwf	(___fldiv@b+3)^0,c
  4025   001DBE                     l3324:
  4026   001DBE  5033               	movf	(___fldiv@a+3)^0,w,c
  4027   001DC0  0B80               	andlw	128
  4028   001DC2  1A3C               	xorwf	___fldiv@sign^0,f,c
  4029   001DC4  5033               	movf	(___fldiv@a+3)^0,w,c
  4030   001DC6  2433               	addwf	(___fldiv@a+3)^0,w,c
  4031   001DC8  6E44               	movwf	___fldiv@aexp^0,c
  4032   001DCA  AE32               	btfss	(___fldiv@a+2)^0,7,c
  4033   001DCC  EFEA  F00E         	goto	u4151
  4034   001DD0  EFEC  F00E         	goto	u4150
  4035   001DD4                     u4151:
  4036   001DD4  EFED  F00E         	goto	l3332
  4037   001DD8                     u4150:
  4038   001DD8  8044               	bsf	___fldiv@aexp^0,0,c
  4039   001DDA                     l3332:
  4040   001DDA  5044               	movf	___fldiv@aexp^0,w,c
  4041   001DDC  B4D8               	btfsc	status,2,c
  4042   001DDE  EFF3  F00E         	goto	u4161
  4043   001DE2  EFF5  F00E         	goto	u4160
  4044   001DE6                     u4161:
  4045   001DE6  EF0A  F00F         	goto	l3342
  4046   001DEA                     u4160:
  4047   001DEA  2844               	incf	___fldiv@aexp^0,w,c
  4048   001DEC  A4D8               	btfss	status,2,c
  4049   001DEE  EFFB  F00E         	goto	u4171
  4050   001DF2  EFFD  F00E         	goto	u4170
  4051   001DF6                     u4171:
  4052   001DF6  EF05  F00F         	goto	l3338
  4053   001DFA                     u4170:
  4054   001DFA  0E00               	movlw	0
  4055   001DFC  6E30               	movwf	___fldiv@a^0,c
  4056   001DFE  0E00               	movlw	0
  4057   001E00  6E31               	movwf	(___fldiv@a+1)^0,c
  4058   001E02  0E00               	movlw	0
  4059   001E04  6E32               	movwf	(___fldiv@a+2)^0,c
  4060   001E06  0E00               	movlw	0
  4061   001E08  6E33               	movwf	(___fldiv@a+3)^0,c
  4062   001E0A                     l3338:
  4063   001E0A  8E32               	bsf	(___fldiv@a+2)^0,7,c
  4064   001E0C  0E00               	movlw	0
  4065   001E0E  6E33               	movwf	(___fldiv@a+3)^0,c
  4066   001E10  EF12  F00F         	goto	l3344
  4067   001E14                     l3342:
  4068   001E14  0E00               	movlw	0
  4069   001E16  6E30               	movwf	___fldiv@a^0,c
  4070   001E18  0E00               	movlw	0
  4071   001E1A  6E31               	movwf	(___fldiv@a+1)^0,c
  4072   001E1C  0E00               	movlw	0
  4073   001E1E  6E32               	movwf	(___fldiv@a+2)^0,c
  4074   001E20  0E00               	movlw	0
  4075   001E22  6E33               	movwf	(___fldiv@a+3)^0,c
  4076   001E24                     l3344:
  4077   001E24  5030               	movf	___fldiv@a^0,w,c
  4078   001E26  1031               	iorwf	(___fldiv@a+1)^0,w,c
  4079   001E28  1032               	iorwf	(___fldiv@a+2)^0,w,c
  4080   001E2A  1033               	iorwf	(___fldiv@a+3)^0,w,c
  4081   001E2C  A4D8               	btfss	status,2,c
  4082   001E2E  EF1B  F00F         	goto	u4181
  4083   001E32  EF1D  F00F         	goto	u4180
  4084   001E36                     u4181:
  4085   001E36  EF35  F00F         	goto	l3356
  4086   001E3A                     u4180:
  4087   001E3A  0E00               	movlw	0
  4088   001E3C  6E2C               	movwf	___fldiv@b^0,c
  4089   001E3E  0E00               	movlw	0
  4090   001E40  6E2D               	movwf	(___fldiv@b+1)^0,c
  4091   001E42  0E00               	movlw	0
  4092   001E44  6E2E               	movwf	(___fldiv@b+2)^0,c
  4093   001E46  0E00               	movlw	0
  4094   001E48  6E2F               	movwf	(___fldiv@b+3)^0,c
  4095   001E4A  0E80               	movlw	128
  4096   001E4C  122E               	iorwf	(___fldiv@b+2)^0,f,c
  4097   001E4E  0E7F               	movlw	127
  4098   001E50  122F               	iorwf	(___fldiv@b+3)^0,f,c
  4099   001E52                     l3350:
  4100   001E52  503C               	movf	___fldiv@sign^0,w,c
  4101   001E54  122F               	iorwf	(___fldiv@b+3)^0,f,c
  4102   001E56  C02C  F02C         	movff	___fldiv@b,?___fldiv
  4103   001E5A  C02D  F02D         	movff	___fldiv@b+1,?___fldiv+1
  4104   001E5E  C02E  F02E         	movff	___fldiv@b+2,?___fldiv+2
  4105   001E62  C02F  F02F         	movff	___fldiv@b+3,?___fldiv+3
  4106   001E66  EF78  F010         	goto	l909
  4107   001E6A                     l3356:
  4108   001E6A  5043               	movf	___fldiv@bexp^0,w,c
  4109   001E6C  A4D8               	btfss	status,2,c
  4110   001E6E  EF3B  F00F         	goto	u4191
  4111   001E72  EF3D  F00F         	goto	u4190
  4112   001E76                     u4191:
  4113   001E76  EF47  F00F         	goto	l3364
  4114   001E7A                     u4190:
  4115   001E7A  0E00               	movlw	0
  4116   001E7C  6E2C               	movwf	?___fldiv^0,c
  4117   001E7E  0E00               	movlw	0
  4118   001E80  6E2D               	movwf	(?___fldiv+1)^0,c
  4119   001E82  0E00               	movlw	0
  4120   001E84  6E2E               	movwf	(?___fldiv+2)^0,c
  4121   001E86  0E00               	movlw	0
  4122   001E88  6E2F               	movwf	(?___fldiv+3)^0,c
  4123   001E8A  EF78  F010         	goto	l909
  4124   001E8E                     l3364:
  4125   001E8E  5044               	movf	___fldiv@aexp^0,w,c
  4126   001E90  C043  F034         	movff	___fldiv@bexp,??___fldiv
  4127   001E94  6A35               	clrf	(??___fldiv+1)^0,c
  4128   001E96  5E34               	subwf	??___fldiv^0,f,c
  4129   001E98  0E00               	movlw	0
  4130   001E9A  5A35               	subwfb	(??___fldiv+1)^0,f,c
  4131   001E9C  0E7F               	movlw	127
  4132   001E9E  2434               	addwf	??___fldiv^0,w,c
  4133   001EA0  6E3D               	movwf	___fldiv@new_exp^0,c
  4134   001EA2  0E00               	movlw	0
  4135   001EA4  2035               	addwfc	(??___fldiv+1)^0,w,c
  4136   001EA6  6E3E               	movwf	(___fldiv@new_exp+1)^0,c
  4137   001EA8  C02C  F038         	movff	___fldiv@b,___fldiv@rem
  4138   001EAC  C02D  F039         	movff	___fldiv@b+1,___fldiv@rem+1
  4139   001EB0  C02E  F03A         	movff	___fldiv@b+2,___fldiv@rem+2
  4140   001EB4  C02F  F03B         	movff	___fldiv@b+3,___fldiv@rem+3
  4141   001EB8  0E00               	movlw	0
  4142   001EBA  6E2C               	movwf	___fldiv@b^0,c
  4143   001EBC  0E00               	movlw	0
  4144   001EBE  6E2D               	movwf	(___fldiv@b+1)^0,c
  4145   001EC0  0E00               	movlw	0
  4146   001EC2  6E2E               	movwf	(___fldiv@b+2)^0,c
  4147   001EC4  0E00               	movlw	0
  4148   001EC6  6E2F               	movwf	(___fldiv@b+3)^0,c
  4149   001EC8  0E00               	movlw	0
  4150   001ECA  6E3F               	movwf	___fldiv@grs^0,c
  4151   001ECC  0E00               	movlw	0
  4152   001ECE  6E40               	movwf	(___fldiv@grs+1)^0,c
  4153   001ED0  0E00               	movlw	0
  4154   001ED2  6E41               	movwf	(___fldiv@grs+2)^0,c
  4155   001ED4  0E00               	movlw	0
  4156   001ED6  6E42               	movwf	(___fldiv@grs+3)^0,c
  4157   001ED8  0E00               	movlw	0
  4158   001EDA  6E44               	movwf	___fldiv@aexp^0,c
  4159   001EDC  EFA8  F00F         	goto	l911
  4160   001EE0                     l3374:
  4161   001EE0  5044               	movf	___fldiv@aexp^0,w,c
  4162   001EE2  B4D8               	btfsc	status,2,c
  4163   001EE4  EF76  F00F         	goto	u4201
  4164   001EE8  EF78  F00F         	goto	u4200
  4165   001EEC                     u4201:
  4166   001EEC  EF8F  F00F         	goto	l3382
  4167   001EF0                     u4200:
  4168   001EF0  90D8               	bcf	status,0,c
  4169   001EF2  3638               	rlcf	___fldiv@rem^0,f,c
  4170   001EF4  3639               	rlcf	(___fldiv@rem+1)^0,f,c
  4171   001EF6  363A               	rlcf	(___fldiv@rem+2)^0,f,c
  4172   001EF8  363B               	rlcf	(___fldiv@rem+3)^0,f,c
  4173   001EFA  90D8               	bcf	status,0,c
  4174   001EFC  362C               	rlcf	___fldiv@b^0,f,c
  4175   001EFE  362D               	rlcf	(___fldiv@b+1)^0,f,c
  4176   001F00  362E               	rlcf	(___fldiv@b+2)^0,f,c
  4177   001F02  362F               	rlcf	(___fldiv@b+3)^0,f,c
  4178   001F04  AE42               	btfss	(___fldiv@grs+3)^0,7,c
  4179   001F06  EF87  F00F         	goto	u4211
  4180   001F0A  EF89  F00F         	goto	u4210
  4181   001F0E                     u4211:
  4182   001F0E  EF8A  F00F         	goto	l914
  4183   001F12                     u4210:
  4184   001F12  802C               	bsf	___fldiv@b^0,0,c
  4185   001F14                     l914:
  4186   001F14  90D8               	bcf	status,0,c
  4187   001F16  363F               	rlcf	___fldiv@grs^0,f,c
  4188   001F18  3640               	rlcf	(___fldiv@grs+1)^0,f,c
  4189   001F1A  3641               	rlcf	(___fldiv@grs+2)^0,f,c
  4190   001F1C  3642               	rlcf	(___fldiv@grs+3)^0,f,c
  4191   001F1E                     l3382:
  4192   001F1E  5030               	movf	___fldiv@a^0,w,c
  4193   001F20  5C38               	subwf	___fldiv@rem^0,w,c
  4194   001F22  5031               	movf	(___fldiv@a+1)^0,w,c
  4195   001F24  5839               	subwfb	(___fldiv@rem+1)^0,w,c
  4196   001F26  5032               	movf	(___fldiv@a+2)^0,w,c
  4197   001F28  583A               	subwfb	(___fldiv@rem+2)^0,w,c
  4198   001F2A  5033               	movf	(___fldiv@a+3)^0,w,c
  4199   001F2C  583B               	subwfb	(___fldiv@rem+3)^0,w,c
  4200   001F2E  A0D8               	btfss	status,0,c
  4201   001F30  EF9C  F00F         	goto	u4221
  4202   001F34  EF9E  F00F         	goto	u4220
  4203   001F38                     u4221:
  4204   001F38  EFA7  F00F         	goto	l3388
  4205   001F3C                     u4220:
  4206   001F3C  8C42               	bsf	(___fldiv@grs+3)^0,6,c
  4207   001F3E  5030               	movf	___fldiv@a^0,w,c
  4208   001F40  5E38               	subwf	___fldiv@rem^0,f,c
  4209   001F42  5031               	movf	(___fldiv@a+1)^0,w,c
  4210   001F44  5A39               	subwfb	(___fldiv@rem+1)^0,f,c
  4211   001F46  5032               	movf	(___fldiv@a+2)^0,w,c
  4212   001F48  5A3A               	subwfb	(___fldiv@rem+2)^0,f,c
  4213   001F4A  5033               	movf	(___fldiv@a+3)^0,w,c
  4214   001F4C  5A3B               	subwfb	(___fldiv@rem+3)^0,f,c
  4215   001F4E                     l3388:
  4216   001F4E  2A44               	incf	___fldiv@aexp^0,f,c
  4217   001F50                     l911:
  4218   001F50  0E19               	movlw	25
  4219   001F52  6444               	cpfsgt	___fldiv@aexp^0,c
  4220   001F54  EFAE  F00F         	goto	u4231
  4221   001F58  EFB0  F00F         	goto	u4230
  4222   001F5C                     u4231:
  4223   001F5C  EF70  F00F         	goto	l3374
  4224   001F60                     u4230:
  4225   001F60  5038               	movf	___fldiv@rem^0,w,c
  4226   001F62  1039               	iorwf	(___fldiv@rem+1)^0,w,c
  4227   001F64  103A               	iorwf	(___fldiv@rem+2)^0,w,c
  4228   001F66  103B               	iorwf	(___fldiv@rem+3)^0,w,c
  4229   001F68  B4D8               	btfsc	status,2,c
  4230   001F6A  EFB9  F00F         	goto	u4241
  4231   001F6E  EFBB  F00F         	goto	u4240
  4232   001F72                     u4241:
  4233   001F72  EFD3  F00F         	goto	l3400
  4234   001F76                     u4240:
  4235   001F76  803F               	bsf	___fldiv@grs^0,0,c
  4236   001F78  EFD3  F00F         	goto	l3400
  4237   001F7C                     l3394:
  4238   001F7C  90D8               	bcf	status,0,c
  4239   001F7E  362C               	rlcf	___fldiv@b^0,f,c
  4240   001F80  362D               	rlcf	(___fldiv@b+1)^0,f,c
  4241   001F82  362E               	rlcf	(___fldiv@b+2)^0,f,c
  4242   001F84  362F               	rlcf	(___fldiv@b+3)^0,f,c
  4243   001F86  AE42               	btfss	(___fldiv@grs+3)^0,7,c
  4244   001F88  EFC8  F00F         	goto	u4251
  4245   001F8C  EFCA  F00F         	goto	u4250
  4246   001F90                     u4251:
  4247   001F90  EFCB  F00F         	goto	l920
  4248   001F94                     u4250:
  4249   001F94  802C               	bsf	___fldiv@b^0,0,c
  4250   001F96                     l920:
  4251   001F96  90D8               	bcf	status,0,c
  4252   001F98  363F               	rlcf	___fldiv@grs^0,f,c
  4253   001F9A  3640               	rlcf	(___fldiv@grs+1)^0,f,c
  4254   001F9C  3641               	rlcf	(___fldiv@grs+2)^0,f,c
  4255   001F9E  3642               	rlcf	(___fldiv@grs+3)^0,f,c
  4256   001FA0  063D               	decf	___fldiv@new_exp^0,f,c
  4257   001FA2  A0D8               	btfss	status,0,c
  4258   001FA4  063E               	decf	(___fldiv@new_exp+1)^0,f,c
  4259   001FA6                     l3400:
  4260   001FA6  AE2E               	btfss	(___fldiv@b+2)^0,7,c
  4261   001FA8  EFD8  F00F         	goto	u4261
  4262   001FAC  EFDA  F00F         	goto	u4260
  4263   001FB0                     u4261:
  4264   001FB0  EFBE  F00F         	goto	l3394
  4265   001FB4                     u4260:
  4266   001FB4  0E00               	movlw	0
  4267   001FB6  6E44               	movwf	___fldiv@aexp^0,c
  4268   001FB8  AE42               	btfss	(___fldiv@grs+3)^0,7,c
  4269   001FBA  EFE1  F00F         	goto	u4271
  4270   001FBE  EFE3  F00F         	goto	u4270
  4271   001FC2                     u4271:
  4272   001FC2  EF07  F010         	goto	l922
  4273   001FC6                     u4270:
  4274   001FC6  0EFF               	movlw	255
  4275   001FC8  143F               	andwf	___fldiv@grs^0,w,c
  4276   001FCA  6E34               	movwf	??___fldiv^0,c
  4277   001FCC  0EFF               	movlw	255
  4278   001FCE  1440               	andwf	(___fldiv@grs+1)^0,w,c
  4279   001FD0  6E35               	movwf	(??___fldiv+1)^0,c
  4280   001FD2  0EFF               	movlw	255
  4281   001FD4  1441               	andwf	(___fldiv@grs+2)^0,w,c
  4282   001FD6  6E36               	movwf	(??___fldiv+2)^0,c
  4283   001FD8  0E7F               	movlw	127
  4284   001FDA  1442               	andwf	(___fldiv@grs+3)^0,w,c
  4285   001FDC  6E37               	movwf	(??___fldiv+3)^0,c
  4286   001FDE  5034               	movf	??___fldiv^0,w,c
  4287   001FE0  1035               	iorwf	(??___fldiv+1)^0,w,c
  4288   001FE2  1036               	iorwf	(??___fldiv+2)^0,w,c
  4289   001FE4  1037               	iorwf	(??___fldiv+3)^0,w,c
  4290   001FE6  B4D8               	btfsc	status,2,c
  4291   001FE8  EFF8  F00F         	goto	u4281
  4292   001FEC  EFFA  F00F         	goto	u4280
  4293   001FF0                     u4281:
  4294   001FF0  EFFE  F00F         	goto	l923
  4295   001FF4                     u4280:
  4296   001FF4                     l3408:
  4297   001FF4  0E01               	movlw	1
  4298   001FF6  6E44               	movwf	___fldiv@aexp^0,c
  4299   001FF8  EF07  F010         	goto	l922
  4300   001FFC                     l923:
  4301   001FFC  A02C               	btfss	___fldiv@b^0,0,c
  4302   001FFE  EF03  F010         	goto	u4291
  4303   002002  EF05  F010         	goto	u4290
  4304   002006                     u4291:
  4305   002006  EF07  F010         	goto	l922
  4306   00200A                     u4290:
  4307   00200A  EFFA  F00F         	goto	l3408
  4308   00200E                     l922:
  4309   00200E  5044               	movf	___fldiv@aexp^0,w,c
  4310   002010  B4D8               	btfsc	status,2,c
  4311   002012  EF0D  F010         	goto	u4301
  4312   002016  EF0F  F010         	goto	u4300
  4313   00201A                     u4301:
  4314   00201A  EF33  F010         	goto	l3420
  4315   00201E                     u4300:
  4316   00201E  0E01               	movlw	1
  4317   002020  262C               	addwf	___fldiv@b^0,f,c
  4318   002022  0E00               	movlw	0
  4319   002024  222D               	addwfc	(___fldiv@b+1)^0,f,c
  4320   002026  222E               	addwfc	(___fldiv@b+2)^0,f,c
  4321   002028  222F               	addwfc	(___fldiv@b+3)^0,f,c
  4322   00202A  A02F               	btfss	(___fldiv@b+3)^0,0,c
  4323   00202C  EF1A  F010         	goto	u4311
  4324   002030  EF1C  F010         	goto	u4310
  4325   002034                     u4311:
  4326   002034  EF33  F010         	goto	l3420
  4327   002038                     u4310:
  4328   002038  C02C  F034         	movff	___fldiv@b,??___fldiv
  4329   00203C  C02D  F035         	movff	___fldiv@b+1,??___fldiv+1
  4330   002040  C02E  F036         	movff	___fldiv@b+2,??___fldiv+2
  4331   002044  C02F  F037         	movff	___fldiv@b+3,??___fldiv+3
  4332   002048  3437               	rlcf	(??___fldiv+3)^0,w,c
  4333   00204A  3237               	rrcf	(??___fldiv+3)^0,f,c
  4334   00204C  3236               	rrcf	(??___fldiv+2)^0,f,c
  4335   00204E  3235               	rrcf	(??___fldiv+1)^0,f,c
  4336   002050  3234               	rrcf	??___fldiv^0,f,c
  4337   002052  C034  F02C         	movff	??___fldiv,___fldiv@b
  4338   002056  C035  F02D         	movff	??___fldiv+1,___fldiv@b+1
  4339   00205A  C036  F02E         	movff	??___fldiv+2,___fldiv@b+2
  4340   00205E  C037  F02F         	movff	??___fldiv+3,___fldiv@b+3
  4341   002062  4A3D               	infsnz	___fldiv@new_exp^0,f,c
  4342   002064  2A3E               	incf	(___fldiv@new_exp+1)^0,f,c
  4343   002066                     l3420:
  4344   002066  BE3E               	btfsc	(___fldiv@new_exp+1)^0,7,c
  4345   002068  EF3E  F010         	goto	u4321
  4346   00206C  503E               	movf	(___fldiv@new_exp+1)^0,w,c
  4347   00206E  E108               	bnz	u4320
  4348   002070  283D               	incf	___fldiv@new_exp^0,w,c
  4349   002072  A0D8               	btfss	status,0,c
  4350   002074  EF3E  F010         	goto	u4321
  4351   002078  EF40  F010         	goto	u4320
  4352   00207C                     u4321:
  4353   00207C  EF4B  F010         	goto	l3424
  4354   002080                     u4320:
  4355   002080  0E00               	movlw	0
  4356   002082  6E3E               	movwf	(___fldiv@new_exp+1)^0,c
  4357   002084  683D               	setf	___fldiv@new_exp^0,c
  4358   002086  0E00               	movlw	0
  4359   002088  6E2C               	movwf	___fldiv@b^0,c
  4360   00208A  0E00               	movlw	0
  4361   00208C  6E2D               	movwf	(___fldiv@b+1)^0,c
  4362   00208E  0E00               	movlw	0
  4363   002090  6E2E               	movwf	(___fldiv@b+2)^0,c
  4364   002092  0E00               	movlw	0
  4365   002094  6E2F               	movwf	(___fldiv@b+3)^0,c
  4366   002096                     l3424:
  4367   002096  BE3E               	btfsc	(___fldiv@new_exp+1)^0,7,c
  4368   002098  EF58  F010         	goto	u4330
  4369   00209C  503E               	movf	(___fldiv@new_exp+1)^0,w,c
  4370   00209E  E106               	bnz	u4331
  4371   0020A0  043D               	decf	___fldiv@new_exp^0,w,c
  4372   0020A2  B0D8               	btfsc	status,0,c
  4373   0020A4  EF56  F010         	goto	u4331
  4374   0020A8  EF58  F010         	goto	u4330
  4375   0020AC                     u4331:
  4376   0020AC  EF66  F010         	goto	l3428
  4377   0020B0                     u4330:
  4378   0020B0  0E00               	movlw	0
  4379   0020B2  6E3E               	movwf	(___fldiv@new_exp+1)^0,c
  4380   0020B4  0E00               	movlw	0
  4381   0020B6  6E3D               	movwf	___fldiv@new_exp^0,c
  4382   0020B8  0E00               	movlw	0
  4383   0020BA  6E2C               	movwf	___fldiv@b^0,c
  4384   0020BC  0E00               	movlw	0
  4385   0020BE  6E2D               	movwf	(___fldiv@b+1)^0,c
  4386   0020C0  0E00               	movlw	0
  4387   0020C2  6E2E               	movwf	(___fldiv@b+2)^0,c
  4388   0020C4  0E00               	movlw	0
  4389   0020C6  6E2F               	movwf	(___fldiv@b+3)^0,c
  4390   0020C8  0E00               	movlw	0
  4391   0020CA  6E3C               	movwf	___fldiv@sign^0,c
  4392   0020CC                     l3428:
  4393   0020CC  C03D  F043         	movff	___fldiv@new_exp,___fldiv@bexp
  4394   0020D0  A043               	btfss	___fldiv@bexp^0,0,c
  4395   0020D2  EF6D  F010         	goto	u4341
  4396   0020D6  EF6F  F010         	goto	u4340
  4397   0020DA                     u4341:
  4398   0020DA  EF72  F010         	goto	l3434
  4399   0020DE                     u4340:
  4400   0020DE  8E2E               	bsf	(___fldiv@b+2)^0,7,c
  4401   0020E0  EF73  F010         	goto	l3436
  4402   0020E4                     l3434:
  4403   0020E4  9E2E               	bcf	(___fldiv@b+2)^0,7,c
  4404   0020E6                     l3436:
  4405   0020E6  90D8               	bcf	status,0,c
  4406   0020E8  3043               	rrcf	___fldiv@bexp^0,w,c
  4407   0020EA  6E2F               	movwf	(___fldiv@b+3)^0,c
  4408   0020EC  EF29  F00F         	goto	l3350
  4409   0020F0                     l909:
  4410   0020F0  0012               	return		;funcret
  4411   0020F2                     __end_of___fldiv:
  4412                           	callstack 0
  4413                           
  4414 ;; *************** function _Transmitir *****************
  4415 ;; Defined at:
  4416 ;;		line 234 in file "controlMotores.c"
  4417 ;; Parameters:    Size  Location     Type
  4418 ;;  dato            1    wreg     unsigned char 
  4419 ;; Auto vars:     Size  Location     Type
  4420 ;;  dato            1    4[COMRAM] unsigned char 
  4421 ;; Return value:  Size  Location     Type
  4422 ;;                  1    wreg      void 
  4423 ;; Registers used:
  4424 ;;		wreg
  4425 ;; Tracked objects:
  4426 ;;		On entry : 0/0
  4427 ;;		On exit  : 0/0
  4428 ;;		Unchanged: 0/0
  4429 ;; Data sizes:     COMRAM   BANK0   BANK1   BANK2   BANK3   BANK4   BANK5   BANK6   BANK7
  4430 ;;      Params:         0       0       0       0       0       0       0       0       0
  4431 ;;      Locals:         1       0       0       0       0       0       0       0       0
  4432 ;;      Temps:          0       0       0       0       0       0       0       0       0
  4433 ;;      Totals:         1       0       0       0       0       0       0       0       0
  4434 ;;Total ram usage:        1 bytes
  4435 ;; Hardware stack levels used: 1
  4436 ;; Hardware stack levels required when called: 1
  4437 ;; This function calls:
  4438 ;;		Nothing
  4439 ;; This function is called by:
  4440 ;;		_main
  4441 ;;		_guardarV
  4442 ;;		_sacarV
  4443 ;; This function uses a non-reentrant model
  4444 ;;
  4445                           
  4446                           	psect	text10
  4447   002900                     __ptext10:
  4448                           	callstack 0
  4449   002900                     _Transmitir:
  4450                           	callstack 28
  4451                           
  4452                           ;incstack = 0
  4453                           ;Transmitir@dato stored from wreg
  4454   002900  6E05               	movwf	Transmitir@dato^0,c
  4455   002902                     l239:
  4456   002902  A2AC               	btfss	4012,1,c	;volatile
  4457   002904  EF86  F014         	goto	u2971
  4458   002908  EF88  F014         	goto	u2970
  4459   00290C                     u2971:
  4460   00290C  EF81  F014         	goto	l239
  4461   002910                     u2970:
  4462   002910                     
  4463                           ;controlMotores.c: 237:     TXREG=dato;
  4464   002910  C005  FFAD         	movff	Transmitir@dato,4013	;volatile
  4465   002914  0012               	return		;funcret
  4466   002916                     __end_of_Transmitir:
  4467                           	callstack 0
  4468                           
  4469 ;; *************** function _goHome *****************
  4470 ;; Defined at:
  4471 ;;		line 251 in file "controlMotores.c"
  4472 ;; Parameters:    Size  Location     Type
  4473 ;;		None
  4474 ;; Auto vars:     Size  Location     Type
  4475 ;;		None
  4476 ;; Return value:  Size  Location     Type
  4477 ;;                  1    wreg      void 
  4478 ;; Registers used:
  4479 ;;		wreg, status,2
  4480 ;; Tracked objects:
  4481 ;;		On entry : 0/0
  4482 ;;		On exit  : 0/0
  4483 ;;		Unchanged: 0/0
  4484 ;; Data sizes:     COMRAM   BANK0   BANK1   BANK2   BANK3   BANK4   BANK5   BANK6   BANK7
  4485 ;;      Params:         0       0       0       0       0       0       0       0       0
  4486 ;;      Locals:         0       0       0       0       0       0       0       0       0
  4487 ;;      Temps:          0       0       0       0       0       0       0       0       0
  4488 ;;      Totals:         0       0       0       0       0       0       0       0       0
  4489 ;;Total ram usage:        0 bytes
  4490 ;; Hardware stack levels used: 1
  4491 ;; Hardware stack levels required when called: 1
  4492 ;; This function calls:
  4493 ;;		Nothing
  4494 ;; This function is called by:
  4495 ;;		_main
  4496 ;; This function uses a non-reentrant model
  4497 ;;
  4498                           
  4499                           	psect	text11
  4500   0027A2                     __ptext11:
  4501                           	callstack 0
  4502   0027A2                     _goHome:
  4503                           	callstack 29
  4504   0027A2                     
  4505                           ;controlMotores.c: 253:     LATD2 = 0;
  4506   0027A2  948C               	bcf	3980,2,c	;volatile
  4507                           
  4508                           ;controlMotores.c: 254:     LATD3 = 0;
  4509   0027A4  968C               	bcf	3980,3,c	;volatile
  4510                           
  4511                           ;controlMotores.c: 255:     LATD4 = 0;
  4512   0027A6  988C               	bcf	3980,4,c	;volatile
  4513                           
  4514                           ;controlMotores.c: 259:     while(RB2==0){
  4515   0027A8  EFE0  F013         	goto	l2712
  4516   0027AC                     l251:
  4517                           
  4518                           ;controlMotores.c: 260:         LATD5=1;
  4519   0027AC  8A8C               	bsf	3980,5,c	;volatile
  4520   0027AE                     
  4521                           ;controlMotores.c: 261:         _delay((unsigned long)((tDelay)*(8000000/4000000.0)));
  4522   0027AE  0EA0               	movlw	160
  4523   0027B0                     u5077:
  4524   0027B0  D000               	nop2	
  4525   0027B2  2EE8               	decfsz	wreg,f,c
  4526   0027B4  D7FD               	bra	u5077
  4527   0027B6                     
  4528                           ;controlMotores.c: 262:         LATD5=0;
  4529   0027B6  9A8C               	bcf	3980,5,c	;volatile
  4530                           
  4531                           ;controlMotores.c: 263:         _delay((unsigned long)((tDelay)*(8000000/4000000.0)));
  4532   0027B8  0EA0               	movlw	160
  4533   0027BA                     u5087:
  4534   0027BA  D000               	nop2	
  4535   0027BC  2EE8               	decfsz	wreg,f,c
  4536   0027BE  D7FD               	bra	u5087
  4537   0027C0                     l2712:
  4538                           
  4539                           ;controlMotores.c: 259:     while(RB2==0){
  4540   0027C0  A481               	btfss	3969,2,c	;volatile
  4541   0027C2  EFE5  F013         	goto	u2981
  4542   0027C6  EFE7  F013         	goto	u2980
  4543   0027CA                     u2981:
  4544   0027CA  EFD6  F013         	goto	l251
  4545   0027CE                     u2980:
  4546   0027CE  EF03  F014         	goto	l2724
  4547   0027D2                     l254:
  4548                           
  4549                           ;controlMotores.c: 267:         if(RB0==0){
  4550   0027D2  B081               	btfsc	3969,0,c	;volatile
  4551   0027D4  EFEE  F013         	goto	u2991
  4552   0027D8  EFF0  F013         	goto	u2990
  4553   0027DC                     u2991:
  4554   0027DC  EFF1  F013         	goto	l255
  4555   0027E0                     u2990:
  4556   0027E0                     
  4557                           ;controlMotores.c: 268:             LATD0=1;
  4558   0027E0  808C               	bsf	3980,0,c	;volatile
  4559   0027E2                     l255:
  4560                           
  4561                           ;controlMotores.c: 271:         if(RB1==0){
  4562   0027E2  B281               	btfsc	3969,1,c	;volatile
  4563   0027E4  EFF6  F013         	goto	u3001
  4564   0027E8  EFF8  F013         	goto	u3000
  4565   0027EC                     u3001:
  4566   0027EC  EFF9  F013         	goto	l2718
  4567   0027F0                     u3000:
  4568   0027F0                     
  4569                           ;controlMotores.c: 272:             LATD1=1;
  4570   0027F0  828C               	bsf	3980,1,c	;volatile
  4571   0027F2                     l2718:
  4572                           
  4573                           ;controlMotores.c: 275:         _delay((unsigned long)((tDelay)*(8000000/4000000.0)));
  4574   0027F2  0EA0               	movlw	160
  4575   0027F4                     u5097:
  4576   0027F4  D000               	nop2	
  4577   0027F6  2EE8               	decfsz	wreg,f,c
  4578   0027F8  D7FD               	bra	u5097
  4579   0027FA                     
  4580                           ;controlMotores.c: 277:         LATD0=0;
  4581   0027FA  908C               	bcf	3980,0,c	;volatile
  4582   0027FC                     
  4583                           ;controlMotores.c: 278:         LATD1=0;
  4584   0027FC  928C               	bcf	3980,1,c	;volatile
  4585                           
  4586                           ;controlMotores.c: 280:         _delay((unsigned long)((tDelay)*(8000000/4000000.0)));
  4587   0027FE  0EA0               	movlw	160
  4588   002800                     u5107:
  4589   002800  D000               	nop2	
  4590   002802  2EE8               	decfsz	wreg,f,c
  4591   002804  D7FD               	bra	u5107
  4592   002806                     l2724:
  4593                           
  4594                           ;controlMotores.c: 266:     while(RB0==0 || RB1==0){
  4595   002806  A081               	btfss	3969,0,c	;volatile
  4596   002808  EF08  F014         	goto	u3011
  4597   00280C  EF0A  F014         	goto	u3010
  4598   002810                     u3011:
  4599   002810  EFE9  F013         	goto	l254
  4600   002814                     u3010:
  4601   002814  A281               	btfss	3969,1,c	;volatile
  4602   002816  EF0F  F014         	goto	u3021
  4603   00281A  EF11  F014         	goto	u3020
  4604   00281E                     u3021:
  4605   00281E  EFE9  F013         	goto	l254
  4606   002822                     u3020:
  4607   002822                     
  4608                           ;controlMotores.c: 283:     posX=0;
  4609   002822  0E00               	movlw	0
  4610   002824  0100               	movlb	0	; () banked
  4611   002826  6F7F               	movwf	(_posX+1)& (0+255),b
  4612   002828  0E00               	movlw	0
  4613   00282A  6F7E               	movwf	_posX& (0+255),b
  4614                           
  4615                           ;controlMotores.c: 284:     posY=0;
  4616   00282C  0E00               	movlw	0
  4617   00282E  6F7D               	movwf	(_posY+1)& (0+255),b
  4618   002830  0E00               	movlw	0
  4619   002832  6F7C               	movwf	_posY& (0+255),b
  4620                           
  4621                           ;controlMotores.c: 285:     posZ=0;
  4622   002834  0E00               	movlw	0
  4623   002836  6F7B               	movwf	(_posZ+1)& (0+255),b
  4624   002838  0E00               	movlw	0
  4625   00283A  6F7A               	movwf	_posZ& (0+255),b
  4626   00283C                     
  4627                           ; BSR set to: 0
  4628   00283C  0012               	return		;funcret
  4629   00283E                     __end_of_goHome:
  4630                           	callstack 0
  4631                           
  4632 ;; *************** function _ISR *****************
  4633 ;; Defined at:
  4634 ;;		line 143 in file "controlMotores.c"
  4635 ;; Parameters:    Size  Location     Type
  4636 ;;		None
  4637 ;; Auto vars:     Size  Location     Type
  4638 ;;		None
  4639 ;; Return value:  Size  Location     Type
  4640 ;;                  1    wreg      void 
  4641 ;; Registers used:
  4642 ;;		wreg, fsr2l, fsr2h, status,2, status,0
  4643 ;; Tracked objects:
  4644 ;;		On entry : 0/0
  4645 ;;		On exit  : 0/0
  4646 ;;		Unchanged: 0/0
  4647 ;; Data sizes:     COMRAM   BANK0   BANK1   BANK2   BANK3   BANK4   BANK5   BANK6   BANK7
  4648 ;;      Params:         0       0       0       0       0       0       0       0       0
  4649 ;;      Locals:         0       0       0       0       0       0       0       0       0
  4650 ;;      Temps:          4       0       0       0       0       0       0       0       0
  4651 ;;      Totals:         4       0       0       0       0       0       0       0       0
  4652 ;;Total ram usage:        4 bytes
  4653 ;; Hardware stack levels used: 1
  4654 ;; This function calls:
  4655 ;;		Nothing
  4656 ;; This function is called by:
  4657 ;;		Interrupt level 2
  4658 ;; This function uses a non-reentrant model
  4659 ;;
  4660                           
  4661                           	psect	intcode
  4662   000008                     __pintcode:
  4663                           	callstack 0
  4664   000008                     _ISR:
  4665                           	callstack 25
  4666                           
  4667                           ; BSR set to: 0
  4668                           ;incstack = 0
  4669   000008  825A               	bsf	int$flags,1,c	;set compiler interrupt flag (level 2)
  4670   00000A  ED07  F004         	call	int_func,f	;refresh shadow registers
  4671                           
  4672                           	psect	intcode_body
  4673   00080E                     __pintcode_body:
  4674                           	callstack 25
  4675   00080E                     int_func:
  4676                           	callstack 25
  4677   00080E  0006               	pop		; remove dummy address from shadow register refresh
  4678   000810  CFD9 F003          	movff	fsr2l,??_ISR+2
  4679   000814  CFDA F004          	movff	fsr2h,??_ISR+3
  4680   000818                     
  4681                           ;controlMotores.c: 144:     if(RCIF==1){
  4682   000818  AA9E               	btfss	3998,5,c	;volatile
  4683   00081A  EF11  F004         	goto	i2u317_41
  4684   00081E  EF13  F004         	goto	i2u317_40
  4685   000822                     i2u317_41:
  4686   000822  EFD7  F004         	goto	i2l2936
  4687   000826                     i2u317_40:
  4688   000826                     
  4689                           ;controlMotores.c: 145:         orden=RCREG;
  4690   000826  CFAE F059          	movff	4014,_orden	;volatile
  4691   00082A                     
  4692                           ;controlMotores.c: 146:        if(estado=="e"){
  4693   00082A  0100               	movlb	0	; () banked
  4694   00082C  519F               	movf	_estado& (0+255),w,b
  4695   00082E  6E01               	movwf	??_ISR^0,c
  4696   000830  6A02               	clrf	(??_ISR+1)^0,c
  4697   000832  0E0B               	movlw	low STR_6
  4698   000834  1801               	xorwf	??_ISR^0,w,c
  4699   000836  E107               	bnz	i2u318_41
  4700   000838  0E08               	movlw	high STR_6
  4701   00083A  1802               	xorwf	(??_ISR+1)^0,w,c
  4702   00083C  A4D8               	btfss	status,2,c
  4703   00083E  EF23  F004         	goto	i2u318_41
  4704   000842  EF25  F004         	goto	i2u318_40
  4705   000846                     i2u318_41:
  4706   000846  EFD6  F004         	goto	i2l2934
  4707   00084A                     i2u318_40:
  4708   00084A                     
  4709                           ; BSR set to: 0
  4710                           ;controlMotores.c: 147:             if(orden=='1')carro=1;
  4711   00084A  0E31               	movlw	49
  4712   00084C  1859               	xorwf	_orden^0,w,c
  4713   00084E  A4D8               	btfss	status,2,c
  4714   000850  EF2C  F004         	goto	i2u319_41
  4715   000854  EF2E  F004         	goto	i2u319_40
  4716   000858                     i2u319_41:
  4717   000858  EF32  F004         	goto	i2l2884
  4718   00085C                     i2u319_40:
  4719   00085C                     
  4720                           ; BSR set to: 0
  4721   00085C  0E00               	movlw	0
  4722   00085E  6F79               	movwf	(_carro+1)& (0+255),b
  4723   000860  0E01               	movlw	1
  4724   000862  6F78               	movwf	_carro& (0+255),b
  4725   000864                     i2l2884:
  4726                           
  4727                           ; BSR set to: 0
  4728                           ;controlMotores.c: 148:             if(orden=='2')carro=2;
  4729   000864  0E32               	movlw	50
  4730   000866  1859               	xorwf	_orden^0,w,c
  4731   000868  A4D8               	btfss	status,2,c
  4732   00086A  EF39  F004         	goto	i2u320_41
  4733   00086E  EF3B  F004         	goto	i2u320_40
  4734   000872                     i2u320_41:
  4735   000872  EF3F  F004         	goto	i2l2888
  4736   000876                     i2u320_40:
  4737   000876                     
  4738                           ; BSR set to: 0
  4739   000876  0E00               	movlw	0
  4740   000878  6F79               	movwf	(_carro+1)& (0+255),b
  4741   00087A  0E02               	movlw	2
  4742   00087C  6F78               	movwf	_carro& (0+255),b
  4743   00087E                     i2l2888:
  4744                           
  4745                           ; BSR set to: 0
  4746                           ;controlMotores.c: 149:             if(orden=='3')carro=3;
  4747   00087E  0E33               	movlw	51
  4748   000880  1859               	xorwf	_orden^0,w,c
  4749   000882  A4D8               	btfss	status,2,c
  4750   000884  EF46  F004         	goto	i2u321_41
  4751   000888  EF48  F004         	goto	i2u321_40
  4752   00088C                     i2u321_41:
  4753   00088C  EF4C  F004         	goto	i2l2892
  4754   000890                     i2u321_40:
  4755   000890                     
  4756                           ; BSR set to: 0
  4757   000890  0E00               	movlw	0
  4758   000892  6F79               	movwf	(_carro+1)& (0+255),b
  4759   000894  0E03               	movlw	3
  4760   000896  6F78               	movwf	_carro& (0+255),b
  4761   000898                     i2l2892:
  4762                           
  4763                           ; BSR set to: 0
  4764                           ;controlMotores.c: 150:             if(orden=='4')carro=4;
  4765   000898  0E34               	movlw	52
  4766   00089A  1859               	xorwf	_orden^0,w,c
  4767   00089C  A4D8               	btfss	status,2,c
  4768   00089E  EF53  F004         	goto	i2u322_41
  4769   0008A2  EF55  F004         	goto	i2u322_40
  4770   0008A6                     i2u322_41:
  4771   0008A6  EF59  F004         	goto	i2l2896
  4772   0008AA                     i2u322_40:
  4773   0008AA                     
  4774                           ; BSR set to: 0
  4775   0008AA  0E00               	movlw	0
  4776   0008AC  6F79               	movwf	(_carro+1)& (0+255),b
  4777   0008AE  0E04               	movlw	4
  4778   0008B0  6F78               	movwf	_carro& (0+255),b
  4779   0008B2                     i2l2896:
  4780                           
  4781                           ; BSR set to: 0
  4782                           ;controlMotores.c: 151:             if(orden=='5')carro=5;
  4783   0008B2  0E35               	movlw	53
  4784   0008B4  1859               	xorwf	_orden^0,w,c
  4785   0008B6  A4D8               	btfss	status,2,c
  4786   0008B8  EF60  F004         	goto	i2u323_41
  4787   0008BC  EF62  F004         	goto	i2u323_40
  4788   0008C0                     i2u323_41:
  4789   0008C0  EF66  F004         	goto	i2l2900
  4790   0008C4                     i2u323_40:
  4791   0008C4                     
  4792                           ; BSR set to: 0
  4793   0008C4  0E00               	movlw	0
  4794   0008C6  6F79               	movwf	(_carro+1)& (0+255),b
  4795   0008C8  0E05               	movlw	5
  4796   0008CA  6F78               	movwf	_carro& (0+255),b
  4797   0008CC                     i2l2900:
  4798                           
  4799                           ; BSR set to: 0
  4800                           ;controlMotores.c: 152:             if(orden=='6')carro=6;
  4801   0008CC  0E36               	movlw	54
  4802   0008CE  1859               	xorwf	_orden^0,w,c
  4803   0008D0  A4D8               	btfss	status,2,c
  4804   0008D2  EF6D  F004         	goto	i2u324_41
  4805   0008D6  EF6F  F004         	goto	i2u324_40
  4806   0008DA                     i2u324_41:
  4807   0008DA  EF73  F004         	goto	i2l2904
  4808   0008DE                     i2u324_40:
  4809   0008DE                     
  4810                           ; BSR set to: 0
  4811   0008DE  0E00               	movlw	0
  4812   0008E0  6F79               	movwf	(_carro+1)& (0+255),b
  4813   0008E2  0E06               	movlw	6
  4814   0008E4  6F78               	movwf	_carro& (0+255),b
  4815   0008E6                     i2l2904:
  4816                           
  4817                           ; BSR set to: 0
  4818                           ;controlMotores.c: 153:             if(orden=='7')carro=7;
  4819   0008E6  0E37               	movlw	55
  4820   0008E8  1859               	xorwf	_orden^0,w,c
  4821   0008EA  A4D8               	btfss	status,2,c
  4822   0008EC  EF7A  F004         	goto	i2u325_41
  4823   0008F0  EF7C  F004         	goto	i2u325_40
  4824   0008F4                     i2u325_41:
  4825   0008F4  EF80  F004         	goto	i2l2908
  4826   0008F8                     i2u325_40:
  4827   0008F8                     
  4828                           ; BSR set to: 0
  4829   0008F8  0E00               	movlw	0
  4830   0008FA  6F79               	movwf	(_carro+1)& (0+255),b
  4831   0008FC  0E07               	movlw	7
  4832   0008FE  6F78               	movwf	_carro& (0+255),b
  4833   000900                     i2l2908:
  4834                           
  4835                           ; BSR set to: 0
  4836                           ;controlMotores.c: 154:             if(orden=='8')carro=8;
  4837   000900  0E38               	movlw	56
  4838   000902  1859               	xorwf	_orden^0,w,c
  4839   000904  A4D8               	btfss	status,2,c
  4840   000906  EF87  F004         	goto	i2u326_41
  4841   00090A  EF89  F004         	goto	i2u326_40
  4842   00090E                     i2u326_41:
  4843   00090E  EF8D  F004         	goto	i2l2912
  4844   000912                     i2u326_40:
  4845   000912                     
  4846                           ; BSR set to: 0
  4847   000912  0E00               	movlw	0
  4848   000914  6F79               	movwf	(_carro+1)& (0+255),b
  4849   000916  0E08               	movlw	8
  4850   000918  6F78               	movwf	_carro& (0+255),b
  4851   00091A                     i2l2912:
  4852                           
  4853                           ; BSR set to: 0
  4854                           ;controlMotores.c: 155:             if(orden=='9')carro=9;
  4855   00091A  0E39               	movlw	57
  4856   00091C  1859               	xorwf	_orden^0,w,c
  4857   00091E  A4D8               	btfss	status,2,c
  4858   000920  EF94  F004         	goto	i2u327_41
  4859   000924  EF96  F004         	goto	i2u327_40
  4860   000928                     i2u327_41:
  4861   000928  EF9A  F004         	goto	i2l2916
  4862   00092C                     i2u327_40:
  4863   00092C                     
  4864                           ; BSR set to: 0
  4865   00092C  0E00               	movlw	0
  4866   00092E  6F79               	movwf	(_carro+1)& (0+255),b
  4867   000930  0E09               	movlw	9
  4868   000932  6F78               	movwf	_carro& (0+255),b
  4869   000934                     i2l2916:
  4870                           
  4871                           ; BSR set to: 0
  4872                           ;controlMotores.c: 156:             if(orden=='G'||orden=='g')ope="G";
  4873   000934  0E47               	movlw	71
  4874   000936  1859               	xorwf	_orden^0,w,c
  4875   000938  B4D8               	btfsc	status,2,c
  4876   00093A  EFA1  F004         	goto	i2u328_41
  4877   00093E  EFA3  F004         	goto	i2u328_40
  4878   000942                     i2u328_41:
  4879   000942  EFAC  F004         	goto	i2l2920
  4880   000946                     i2u328_40:
  4881   000946                     
  4882                           ; BSR set to: 0
  4883   000946  0E67               	movlw	103
  4884   000948  1859               	xorwf	_orden^0,w,c
  4885   00094A  A4D8               	btfss	status,2,c
  4886   00094C  EFAA  F004         	goto	i2u329_41
  4887   000950  EFAC  F004         	goto	i2u329_40
  4888   000954                     i2u329_41:
  4889   000954  EFAE  F004         	goto	i2l2922
  4890   000958                     i2u329_40:
  4891   000958                     i2l2920:
  4892                           
  4893                           ; BSR set to: 0
  4894   000958  0E05               	movlw	low (low STR_2)
  4895   00095A  6F9E               	movwf	_ope& (0+255),b
  4896   00095C                     i2l2922:
  4897                           
  4898                           ; BSR set to: 0
  4899                           ;controlMotores.c: 157:             if(orden=='S'||orden=='s')ope="S";
  4900   00095C  0E53               	movlw	83
  4901   00095E  1859               	xorwf	_orden^0,w,c
  4902   000960  B4D8               	btfsc	status,2,c
  4903   000962  EFB5  F004         	goto	i2u330_41
  4904   000966  EFB7  F004         	goto	i2u330_40
  4905   00096A                     i2u330_41:
  4906   00096A  EFC0  F004         	goto	i2l2926
  4907   00096E                     i2u330_40:
  4908   00096E                     
  4909                           ; BSR set to: 0
  4910   00096E  0E73               	movlw	115
  4911   000970  1859               	xorwf	_orden^0,w,c
  4912   000972  A4D8               	btfss	status,2,c
  4913   000974  EFBE  F004         	goto	i2u331_41
  4914   000978  EFC0  F004         	goto	i2u331_40
  4915   00097C                     i2u331_41:
  4916   00097C  EFC2  F004         	goto	i2l2928
  4917   000980                     i2u331_40:
  4918   000980                     i2l2926:
  4919                           
  4920                           ; BSR set to: 0
  4921   000980  0E09               	movlw	low (low STR_4)
  4922   000982  6F9E               	movwf	_ope& (0+255),b
  4923   000984                     i2l2928:
  4924                           
  4925                           ; BSR set to: 0
  4926                           ;controlMotores.c: 158:             if(orden=='H'||orden=='h')ope="H";
  4927   000984  0E48               	movlw	72
  4928   000986  1859               	xorwf	_orden^0,w,c
  4929   000988  B4D8               	btfsc	status,2,c
  4930   00098A  EFC9  F004         	goto	i2u332_41
  4931   00098E  EFCB  F004         	goto	i2u332_40
  4932   000992                     i2u332_41:
  4933   000992  EFD4  F004         	goto	i2l2932
  4934   000996                     i2u332_40:
  4935   000996                     
  4936                           ; BSR set to: 0
  4937   000996  0E68               	movlw	104
  4938   000998  1859               	xorwf	_orden^0,w,c
  4939   00099A  A4D8               	btfss	status,2,c
  4940   00099C  EFD2  F004         	goto	i2u333_41
  4941   0009A0  EFD4  F004         	goto	i2u333_40
  4942   0009A4                     i2u333_41:
  4943   0009A4  EFD6  F004         	goto	i2l2934
  4944   0009A8                     i2u333_40:
  4945   0009A8                     i2l2932:
  4946                           
  4947                           ; BSR set to: 0
  4948   0009A8  0E07               	movlw	low (low STR_1)
  4949   0009AA  6F9E               	movwf	_ope& (0+255),b
  4950   0009AC                     i2l2934:
  4951                           
  4952                           ; BSR set to: 0
  4953                           ;controlMotores.c: 160:        RCIF=0;
  4954   0009AC  9A9E               	bcf	3998,5,c	;volatile
  4955   0009AE                     i2l2936:
  4956                           
  4957                           ;controlMotores.c: 162:     if(TMR0IF==1){
  4958   0009AE  A4F2               	btfss	4082,2,c	;volatile
  4959   0009B0  EFDC  F004         	goto	i2u334_41
  4960   0009B4  EFDE  F004         	goto	i2u334_40
  4961   0009B8                     i2u334_41:
  4962   0009B8  EFCC  F005         	goto	i2l209
  4963   0009BC                     i2u334_40:
  4964   0009BC                     
  4965                           ;controlMotores.c: 163:         TMR0IF=0;
  4966   0009BC  94F2               	bcf	4082,2,c	;volatile
  4967   0009BE                     
  4968                           ;controlMotores.c: 164:         TMR0 = 9286;
  4969   0009BE  0E24               	movlw	36
  4970   0009C0  6ED7               	movwf	215,c	;volatile
  4971   0009C2  0E46               	movlw	70
  4972   0009C4  6ED6               	movwf	214,c	;volatile
  4973   0009C6                     
  4974                           ;controlMotores.c: 165:         if (ac==1){
  4975   0009C6  0100               	movlb	0	; () banked
  4976   0009C8  058E               	decf	_ac& (0+255),w,b
  4977   0009CA  118F               	iorwf	(_ac+1)& (0+255),w,b
  4978   0009CC  A4D8               	btfss	status,2,c
  4979   0009CE  EFEB  F004         	goto	i2u335_41
  4980   0009D2  EFED  F004         	goto	i2u335_40
  4981   0009D6                     i2u335_41:
  4982   0009D6  EFF1  F004         	goto	i2l2946
  4983   0009DA                     i2u335_40:
  4984   0009DA                     
  4985                           ; BSR set to: 0
  4986                           ;controlMotores.c: 166:             counter++;
  4987   0009DA  4B82               	infsnz	_counter& (0+255),f,b
  4988   0009DC  2B83               	incf	(_counter+1)& (0+255),f,b
  4989                           
  4990                           ;controlMotores.c: 167:         } else if (des==1){
  4991   0009DE  EF0A  F005         	goto	i2l2954
  4992   0009E2                     i2l2946:
  4993                           
  4994                           ; BSR set to: 0
  4995   0009E2  058A               	decf	_des& (0+255),w,b
  4996   0009E4  118B               	iorwf	(_des+1)& (0+255),w,b
  4997   0009E6  A4D8               	btfss	status,2,c
  4998   0009E8  EFF8  F004         	goto	i2u336_41
  4999   0009EC  EFFA  F004         	goto	i2u336_40
  5000   0009F0                     i2u336_41:
  5001   0009F0  EFFF  F004         	goto	i2l2950
  5002   0009F4                     i2u336_40:
  5003   0009F4                     
  5004                           ; BSR set to: 0
  5005                           ;controlMotores.c: 168:             counter--;
  5006   0009F4  0782               	decf	_counter& (0+255),f,b
  5007   0009F6  A0D8               	btfss	status,0,c
  5008   0009F8  0783               	decf	(_counter+1)& (0+255),f,b
  5009                           
  5010                           ;controlMotores.c: 169:         } else if (cru==1){
  5011   0009FA  EF0A  F005         	goto	i2l2954
  5012   0009FE                     i2l2950:
  5013                           
  5014                           ; BSR set to: 0
  5015   0009FE  058C               	decf	_cru& (0+255),w,b
  5016   000A00  118D               	iorwf	(_cru+1)& (0+255),w,b
  5017   000A02  A4D8               	btfss	status,2,c
  5018   000A04  EF06  F005         	goto	i2u337_41
  5019   000A08  EF08  F005         	goto	i2u337_40
  5020   000A0C                     i2u337_41:
  5021   000A0C  EF0A  F005         	goto	i2l2954
  5022   000A10                     i2u337_40:
  5023   000A10                     
  5024                           ; BSR set to: 0
  5025                           ;controlMotores.c: 170:             counterVC++;
  5026   000A10  4B80               	infsnz	_counterVC& (0+255),f,b
  5027   000A12  2B81               	incf	(_counterVC+1)& (0+255),f,b
  5028   000A14                     i2l2954:
  5029                           
  5030                           ; BSR set to: 0
  5031                           ;controlMotores.c: 173:         if(counter>=19 && ac==1){
  5032   000A14  BF83               	btfsc	(_counter+1)& (0+255),7,b
  5033   000A16  EF16  F005         	goto	i2u338_41
  5034   000A1A  5183               	movf	(_counter+1)& (0+255),w,b
  5035   000A1C  E109               	bnz	i2u338_40
  5036   000A1E  0E13               	movlw	19
  5037   000A20  5D82               	subwf	_counter& (0+255),w,b
  5038   000A22  A0D8               	btfss	status,0,c
  5039   000A24  EF16  F005         	goto	i2u338_41
  5040   000A28  EF18  F005         	goto	i2u338_40
  5041   000A2C                     i2u338_41:
  5042   000A2C  EF2B  F005         	goto	i2l2960
  5043   000A30                     i2u338_40:
  5044   000A30                     
  5045                           ; BSR set to: 0
  5046   000A30  058E               	decf	_ac& (0+255),w,b
  5047   000A32  118F               	iorwf	(_ac+1)& (0+255),w,b
  5048   000A34  A4D8               	btfss	status,2,c
  5049   000A36  EF1F  F005         	goto	i2u339_41
  5050   000A3A  EF21  F005         	goto	i2u339_40
  5051   000A3E                     i2u339_41:
  5052   000A3E  EF2B  F005         	goto	i2l2960
  5053   000A42                     i2u339_40:
  5054   000A42                     
  5055                           ; BSR set to: 0
  5056                           ;controlMotores.c: 174:             ac=0;
  5057   000A42  0E00               	movlw	0
  5058   000A44  6F8F               	movwf	(_ac+1)& (0+255),b
  5059   000A46  0E00               	movlw	0
  5060   000A48  6F8E               	movwf	_ac& (0+255),b
  5061                           
  5062                           ;controlMotores.c: 175:             cru=1;
  5063   000A4A  0E00               	movlw	0
  5064   000A4C  6F8D               	movwf	(_cru+1)& (0+255),b
  5065   000A4E  0E01               	movlw	1
  5066   000A50  6F8C               	movwf	_cru& (0+255),b
  5067                           
  5068                           ;controlMotores.c: 176:         }else if(counter>=19 && cru==1 && counterVC>=20){
  5069   000A52  EF6E  F005         	goto	i2l2974
  5070   000A56                     i2l2960:
  5071                           
  5072                           ; BSR set to: 0
  5073   000A56  BF83               	btfsc	(_counter+1)& (0+255),7,b
  5074   000A58  EF37  F005         	goto	i2u340_41
  5075   000A5C  5183               	movf	(_counter+1)& (0+255),w,b
  5076   000A5E  E109               	bnz	i2u340_40
  5077   000A60  0E13               	movlw	19
  5078   000A62  5D82               	subwf	_counter& (0+255),w,b
  5079   000A64  A0D8               	btfss	status,0,c
  5080   000A66  EF37  F005         	goto	i2u340_41
  5081   000A6A  EF39  F005         	goto	i2u340_40
  5082   000A6E                     i2u340_41:
  5083   000A6E  EF5A  F005         	goto	i2l2968
  5084   000A72                     i2u340_40:
  5085   000A72                     
  5086                           ; BSR set to: 0
  5087   000A72  058C               	decf	_cru& (0+255),w,b
  5088   000A74  118D               	iorwf	(_cru+1)& (0+255),w,b
  5089   000A76  A4D8               	btfss	status,2,c
  5090   000A78  EF40  F005         	goto	i2u341_41
  5091   000A7C  EF42  F005         	goto	i2u341_40
  5092   000A80                     i2u341_41:
  5093   000A80  EF5A  F005         	goto	i2l2968
  5094   000A84                     i2u341_40:
  5095   000A84                     
  5096                           ; BSR set to: 0
  5097   000A84  BF81               	btfsc	(_counterVC+1)& (0+255),7,b
  5098   000A86  EF4E  F005         	goto	i2u342_41
  5099   000A8A  5181               	movf	(_counterVC+1)& (0+255),w,b
  5100   000A8C  E109               	bnz	i2u342_40
  5101   000A8E  0E14               	movlw	20
  5102   000A90  5D80               	subwf	_counterVC& (0+255),w,b
  5103   000A92  A0D8               	btfss	status,0,c
  5104   000A94  EF4E  F005         	goto	i2u342_41
  5105   000A98  EF50  F005         	goto	i2u342_40
  5106   000A9C                     i2u342_41:
  5107   000A9C  EF5A  F005         	goto	i2l2968
  5108   000AA0                     i2u342_40:
  5109   000AA0                     
  5110                           ; BSR set to: 0
  5111                           ;controlMotores.c: 177:             cru=0;
  5112   000AA0  0E00               	movlw	0
  5113   000AA2  6F8D               	movwf	(_cru+1)& (0+255),b
  5114   000AA4  0E00               	movlw	0
  5115   000AA6  6F8C               	movwf	_cru& (0+255),b
  5116                           
  5117                           ;controlMotores.c: 178:             des=1;
  5118   000AA8  0E00               	movlw	0
  5119   000AAA  6F8B               	movwf	(_des+1)& (0+255),b
  5120   000AAC  0E01               	movlw	1
  5121   000AAE  6F8A               	movwf	_des& (0+255),b
  5122                           
  5123                           ;controlMotores.c: 179:         }else if(counter<0 && des==1){
  5124   000AB0  EF6E  F005         	goto	i2l2974
  5125   000AB4                     i2l2968:
  5126                           
  5127                           ; BSR set to: 0
  5128   000AB4  BF83               	btfsc	(_counter+1)& (0+255),7,b
  5129   000AB6  EF61  F005         	goto	i2u343_40
  5130   000ABA  EF5F  F005         	goto	i2u343_41
  5131   000ABE                     i2u343_41:
  5132   000ABE  EF6E  F005         	goto	i2l2974
  5133   000AC2                     i2u343_40:
  5134   000AC2                     
  5135                           ; BSR set to: 0
  5136   000AC2  058A               	decf	_des& (0+255),w,b
  5137   000AC4  118B               	iorwf	(_des+1)& (0+255),w,b
  5138   000AC6  A4D8               	btfss	status,2,c
  5139   000AC8  EF68  F005         	goto	i2u344_41
  5140   000ACC  EF6A  F005         	goto	i2u344_40
  5141   000AD0                     i2u344_41:
  5142   000AD0  EF6E  F005         	goto	i2l2974
  5143   000AD4                     i2u344_40:
  5144   000AD4                     
  5145                           ; BSR set to: 0
  5146                           ;controlMotores.c: 180:             des=0;
  5147   000AD4  0E00               	movlw	0
  5148   000AD6  6F8B               	movwf	(_des+1)& (0+255),b
  5149   000AD8  0E00               	movlw	0
  5150   000ADA  6F8A               	movwf	_des& (0+255),b
  5151   000ADC                     i2l2974:
  5152                           
  5153                           ; BSR set to: 0
  5154                           ;controlMotores.c: 183:         if(counter>=0 && counter<=19){
  5155   000ADC  BF83               	btfsc	(_counter+1)& (0+255),7,b
  5156   000ADE  EF73  F005         	goto	i2u345_41
  5157   000AE2  EF75  F005         	goto	i2u345_40
  5158   000AE6                     i2u345_41:
  5159   000AE6  EF9D  F005         	goto	i2l2980
  5160   000AEA                     i2u345_40:
  5161   000AEA                     
  5162                           ; BSR set to: 0
  5163   000AEA  BF83               	btfsc	(_counter+1)& (0+255),7,b
  5164   000AEC  EF83  F005         	goto	i2u346_40
  5165   000AF0  5183               	movf	(_counter+1)& (0+255),w,b
  5166   000AF2  E107               	bnz	i2u346_41
  5167   000AF4  0E14               	movlw	20
  5168   000AF6  5D82               	subwf	_counter& (0+255),w,b
  5169   000AF8  B0D8               	btfsc	status,0,c
  5170   000AFA  EF81  F005         	goto	i2u346_41
  5171   000AFE  EF83  F005         	goto	i2u346_40
  5172   000B02                     i2u346_41:
  5173   000B02  EF9D  F005         	goto	i2l2980
  5174   000B06                     i2u346_40:
  5175   000B06                     
  5176                           ; BSR set to: 0
  5177                           ;controlMotores.c: 184:             precargaX=arrayX[counter];
  5178   000B06  90D8               	bcf	status,0,c
  5179   000B08  3582               	rlcf	_counter& (0+255),w,b
  5180   000B0A  6ED9               	movwf	fsr2l,c
  5181   000B0C  3583               	rlcf	(_counter+1)& (0+255),w,b
  5182   000B0E  6EDA               	movwf	fsr2h,c
  5183   000B10  0E28               	movlw	low _arrayX
  5184   000B12  26D9               	addwf	fsr2l,f,c
  5185   000B14  0E01               	movlw	high _arrayX
  5186   000B16  22DA               	addwfc	fsr2h,f,c
  5187   000B18  CFDE F057          	movff	postinc2,_precargaX
  5188   000B1C  CFDD F058          	movff	postdec2,_precargaX+1
  5189                           
  5190                           ;controlMotores.c: 185:             precargaY=arrayY[counter];
  5191   000B20  90D8               	bcf	status,0,c
  5192   000B22  3582               	rlcf	_counter& (0+255),w,b
  5193   000B24  6ED9               	movwf	fsr2l,c
  5194   000B26  3583               	rlcf	(_counter+1)& (0+255),w,b
  5195   000B28  6EDA               	movwf	fsr2h,c
  5196   000B2A  0E00               	movlw	low _arrayY
  5197   000B2C  26D9               	addwf	fsr2l,f,c
  5198   000B2E  0E01               	movlw	high _arrayY
  5199   000B30  22DA               	addwfc	fsr2h,f,c
  5200   000B32  CFDE F090          	movff	postinc2,_precargaY
  5201   000B36  CFDD F091          	movff	postdec2,_precargaY+1
  5202   000B3A                     i2l2980:
  5203                           
  5204                           ; BSR set to: 0
  5205                           ;controlMotores.c: 188:         if(finX==0){
  5206   000B3A  5188               	movf	_finX& (0+255),w,b
  5207   000B3C  1189               	iorwf	(_finX+1)& (0+255),w,b
  5208   000B3E  A4D8               	btfss	status,2,c
  5209   000B40  EFA4  F005         	goto	i2u347_41
  5210   000B44  EFA6  F005         	goto	i2u347_40
  5211   000B48                     i2u347_41:
  5212   000B48  EFAA  F005         	goto	i2l2984
  5213   000B4C                     i2u347_40:
  5214   000B4C                     
  5215                           ; BSR set to: 0
  5216                           ;controlMotores.c: 189:             TMR1 = precargaX;
  5217   000B4C  C057  FFCE         	movff	_precargaX,4046	;volatile
  5218   000B50  C058  FFCF         	movff	_precargaX+1,4047	;volatile
  5219   000B54                     i2l2984:
  5220                           
  5221                           ; BSR set to: 0
  5222                           ;controlMotores.c: 192:         if(finY==0){
  5223   000B54  5186               	movf	_finY& (0+255),w,b
  5224   000B56  1187               	iorwf	(_finY+1)& (0+255),w,b
  5225   000B58  A4D8               	btfss	status,2,c
  5226   000B5A  EFB1  F005         	goto	i2u348_41
  5227   000B5E  EFB3  F005         	goto	i2u348_40
  5228   000B62                     i2u348_41:
  5229   000B62  EFB7  F005         	goto	i2l2988
  5230   000B66                     i2u348_40:
  5231   000B66                     
  5232                           ; BSR set to: 0
  5233                           ;controlMotores.c: 193:             TMR3 = precargaY;
  5234   000B66  C090  FFB2         	movff	_precargaY,4018	;volatile
  5235   000B6A  C091  FFB3         	movff	_precargaY+1,4019	;volatile
  5236   000B6E                     i2l2988:
  5237                           
  5238                           ; BSR set to: 0
  5239                           ;controlMotores.c: 196:         if(finY==1 && finX==1){
  5240   000B6E  0586               	decf	_finY& (0+255),w,b
  5241   000B70  1187               	iorwf	(_finY+1)& (0+255),w,b
  5242   000B72  A4D8               	btfss	status,2,c
  5243   000B74  EFBE  F005         	goto	i2u349_41
  5244   000B78  EFC0  F005         	goto	i2u349_40
  5245   000B7C                     i2u349_41:
  5246   000B7C  EFCC  F005         	goto	i2l209
  5247   000B80                     i2u349_40:
  5248   000B80                     
  5249                           ; BSR set to: 0
  5250   000B80  0588               	decf	_finX& (0+255),w,b
  5251   000B82  1189               	iorwf	(_finX+1)& (0+255),w,b
  5252   000B84  A4D8               	btfss	status,2,c
  5253   000B86  EFC7  F005         	goto	i2u350_41
  5254   000B8A  EFC9  F005         	goto	i2u350_40
  5255   000B8E                     i2u350_41:
  5256   000B8E  EFCC  F005         	goto	i2l209
  5257   000B92                     i2u350_40:
  5258   000B92                     
  5259                           ; BSR set to: 0
  5260                           ;controlMotores.c: 197:             TMR0ON = 0;
  5261   000B92  9ED5               	bcf	4053,7,c	;volatile
  5262                           
  5263                           ;controlMotores.c: 198:             TMR1ON = 0;
  5264   000B94  90CD               	bcf	4045,0,c	;volatile
  5265                           
  5266                           ;controlMotores.c: 199:             TMR3ON = 0;
  5267   000B96  90B1               	bcf	4017,0,c	;volatile
  5268   000B98                     i2l209:
  5269                           
  5270                           ;controlMotores.c: 203:     if(TMR1IF==1){
  5271   000B98  A09E               	btfss	3998,0,c	;volatile
  5272   000B9A  EFD1  F005         	goto	i2u351_41
  5273   000B9E  EFD3  F005         	goto	i2u351_40
  5274   000BA2                     i2u351_41:
  5275   000BA2  EF19  F006         	goto	i2l3012
  5276   000BA6                     i2u351_40:
  5277   000BA6                     
  5278                           ;controlMotores.c: 204:         TMR1IF=0;
  5279   000BA6  909E               	bcf	3998,0,c	;volatile
  5280                           
  5281                           ;controlMotores.c: 205:         TMR1 = precargaX;
  5282   000BA8  C057  FFCE         	movff	_precargaX,4046	;volatile
  5283   000BAC  C058  FFCF         	movff	_precargaX+1,4047	;volatile
  5284                           
  5285                           ;controlMotores.c: 207:         if(LATD0==1 && pasosXDados<pasosX){
  5286   000BB0  A08C               	btfss	3980,0,c	;volatile
  5287   000BB2  EFDD  F005         	goto	i2u352_41
  5288   000BB6  EFDF  F005         	goto	i2u352_40
  5289   000BBA                     i2u352_41:
  5290   000BBA  EFF0  F005         	goto	i2l225
  5291   000BBE                     i2u352_40:
  5292   000BBE  0100               	movlb	0	; () banked
  5293   000BC0  519C               	movf	_pasosX& (0+255),w,b
  5294   000BC2  5D96               	subwf	_pasosXDados& (0+255),w,b
  5295   000BC4  519D               	movf	(_pasosX+1)& (0+255),w,b
  5296   000BC6  5997               	subwfb	(_pasosXDados+1)& (0+255),w,b
  5297   000BC8  B0D8               	btfsc	status,0,c
  5298   000BCA  EFE9  F005         	goto	i2u353_41
  5299   000BCE  EFEB  F005         	goto	i2u353_40
  5300   000BD2                     i2u353_41:
  5301   000BD2  EFF0  F005         	goto	i2l225
  5302   000BD6                     i2u353_40:
  5303   000BD6                     
  5304                           ; BSR set to: 0
  5305                           ;controlMotores.c: 208:             pasosXDados++;
  5306   000BD6  4B96               	infsnz	_pasosXDados& (0+255),f,b
  5307   000BD8  2B97               	incf	(_pasosXDados+1)& (0+255),f,b
  5308   000BDA                     
  5309                           ; BSR set to: 0
  5310                           ;controlMotores.c: 209:             LATD0=0;
  5311   000BDA  908C               	bcf	3980,0,c	;volatile
  5312                           
  5313                           ;controlMotores.c: 210:         } else if(LATD0==0 && pasosXDados<pasosX){
  5314   000BDC  EF19  F006         	goto	i2l3012
  5315   000BE0                     i2l225:
  5316   000BE0  B08C               	btfsc	3980,0,c	;volatile
  5317   000BE2  EFF5  F005         	goto	i2u354_41
  5318   000BE6  EFF7  F005         	goto	i2u354_40
  5319   000BEA                     i2u354_41:
  5320   000BEA  EF06  F006         	goto	i2l3006
  5321   000BEE                     i2u354_40:
  5322   000BEE  0100               	movlb	0	; () banked
  5323   000BF0  519C               	movf	_pasosX& (0+255),w,b
  5324   000BF2  5D96               	subwf	_pasosXDados& (0+255),w,b
  5325   000BF4  519D               	movf	(_pasosX+1)& (0+255),w,b
  5326   000BF6  5997               	subwfb	(_pasosXDados+1)& (0+255),w,b
  5327   000BF8  B0D8               	btfsc	status,0,c
  5328   000BFA  EF01  F006         	goto	i2u355_41
  5329   000BFE  EF03  F006         	goto	i2u355_40
  5330   000C02                     i2u355_41:
  5331   000C02  EF06  F006         	goto	i2l3006
  5332   000C06                     i2u355_40:
  5333   000C06                     
  5334                           ; BSR set to: 0
  5335                           ;controlMotores.c: 211:             LATD0=1;
  5336   000C06  808C               	bsf	3980,0,c	;volatile
  5337                           
  5338                           ;controlMotores.c: 212:         } else if(pasosXDados>=pasosX){
  5339   000C08  EF19  F006         	goto	i2l3012
  5340   000C0C                     i2l3006:
  5341   000C0C  0100               	movlb	0	; () banked
  5342   000C0E  519C               	movf	_pasosX& (0+255),w,b
  5343   000C10  5D96               	subwf	_pasosXDados& (0+255),w,b
  5344   000C12  519D               	movf	(_pasosX+1)& (0+255),w,b
  5345   000C14  5997               	subwfb	(_pasosXDados+1)& (0+255),w,b
  5346   000C16  A0D8               	btfss	status,0,c
  5347   000C18  EF10  F006         	goto	i2u356_41
  5348   000C1C  EF12  F006         	goto	i2u356_40
  5349   000C20                     i2u356_41:
  5350   000C20  EF19  F006         	goto	i2l226
  5351   000C24                     i2u356_40:
  5352   000C24                     
  5353                           ; BSR set to: 0
  5354                           ;controlMotores.c: 213:             finX = 1;
  5355   000C24  0E00               	movlw	0
  5356   000C26  6F89               	movwf	(_finX+1)& (0+255),b
  5357   000C28  0E01               	movlw	1
  5358   000C2A  6F88               	movwf	_finX& (0+255),b
  5359   000C2C                     
  5360                           ; BSR set to: 0
  5361                           ;controlMotores.c: 214:             TMR1ON = 0;
  5362   000C2C  90CD               	bcf	4045,0,c	;volatile
  5363   000C2E  EF19  F006         	goto	i2l3012
  5364   000C32                     i2l226:
  5365   000C32                     i2l3012:
  5366                           
  5367                           ;controlMotores.c: 219:     if(TMR3IF==1){
  5368   000C32  A2A1               	btfss	4001,1,c	;volatile
  5369   000C34  EF1E  F006         	goto	i2u357_41
  5370   000C38  EF20  F006         	goto	i2u357_40
  5371   000C3C                     i2u357_41:
  5372   000C3C  EF66  F006         	goto	i2l236
  5373   000C40                     i2u357_40:
  5374   000C40                     
  5375                           ;controlMotores.c: 220:         TMR3IF=0;
  5376   000C40  92A1               	bcf	4001,1,c	;volatile
  5377                           
  5378                           ;controlMotores.c: 221:         TMR3 = precargaY;
  5379   000C42  C090  FFB2         	movff	_precargaY,4018	;volatile
  5380   000C46  C091  FFB3         	movff	_precargaY+1,4019	;volatile
  5381                           
  5382                           ;controlMotores.c: 223:         if(LATD1==1 && pasosYDados<pasosY){
  5383   000C4A  A28C               	btfss	3980,1,c	;volatile
  5384   000C4C  EF2A  F006         	goto	i2u358_41
  5385   000C50  EF2C  F006         	goto	i2u358_40
  5386   000C54                     i2u358_41:
  5387   000C54  EF3D  F006         	goto	i2l231
  5388   000C58                     i2u358_40:
  5389   000C58  0100               	movlb	0	; () banked
  5390   000C5A  519A               	movf	_pasosY& (0+255),w,b
  5391   000C5C  5D94               	subwf	_pasosYDados& (0+255),w,b
  5392   000C5E  519B               	movf	(_pasosY+1)& (0+255),w,b
  5393   000C60  5995               	subwfb	(_pasosYDados+1)& (0+255),w,b
  5394   000C62  B0D8               	btfsc	status,0,c
  5395   000C64  EF36  F006         	goto	i2u359_41
  5396   000C68  EF38  F006         	goto	i2u359_40
  5397   000C6C                     i2u359_41:
  5398   000C6C  EF3D  F006         	goto	i2l231
  5399   000C70                     i2u359_40:
  5400   000C70                     
  5401                           ; BSR set to: 0
  5402                           ;controlMotores.c: 224:             pasosYDados++;
  5403   000C70  4B94               	infsnz	_pasosYDados& (0+255),f,b
  5404   000C72  2B95               	incf	(_pasosYDados+1)& (0+255),f,b
  5405   000C74                     
  5406                           ; BSR set to: 0
  5407                           ;controlMotores.c: 225:             LATD1 = 0;
  5408   000C74  928C               	bcf	3980,1,c	;volatile
  5409                           
  5410                           ;controlMotores.c: 226:         } else if(LATD1==0 && pasosYDados<pasosY){
  5411   000C76  EF66  F006         	goto	i2l236
  5412   000C7A                     i2l231:
  5413   000C7A  B28C               	btfsc	3980,1,c	;volatile
  5414   000C7C  EF42  F006         	goto	i2u360_41
  5415   000C80  EF44  F006         	goto	i2u360_40
  5416   000C84                     i2u360_41:
  5417   000C84  EF53  F006         	goto	i2l3026
  5418   000C88                     i2u360_40:
  5419   000C88  0100               	movlb	0	; () banked
  5420   000C8A  519A               	movf	_pasosY& (0+255),w,b
  5421   000C8C  5D94               	subwf	_pasosYDados& (0+255),w,b
  5422   000C8E  519B               	movf	(_pasosY+1)& (0+255),w,b
  5423   000C90  5995               	subwfb	(_pasosYDados+1)& (0+255),w,b
  5424   000C92  B0D8               	btfsc	status,0,c
  5425   000C94  EF4E  F006         	goto	i2u361_41
  5426   000C98  EF50  F006         	goto	i2u361_40
  5427   000C9C                     i2u361_41:
  5428   000C9C  EF53  F006         	goto	i2l3026
  5429   000CA0                     i2u361_40:
  5430   000CA0                     
  5431                           ; BSR set to: 0
  5432                           ;controlMotores.c: 227:             LATD1 = 1;
  5433   000CA0  828C               	bsf	3980,1,c	;volatile
  5434                           
  5435                           ;controlMotores.c: 228:         } else if(pasosYDados>=pasosY){
  5436   000CA2  EF66  F006         	goto	i2l236
  5437   000CA6                     i2l3026:
  5438   000CA6  0100               	movlb	0	; () banked
  5439   000CA8  519A               	movf	_pasosY& (0+255),w,b
  5440   000CAA  5D94               	subwf	_pasosYDados& (0+255),w,b
  5441   000CAC  519B               	movf	(_pasosY+1)& (0+255),w,b
  5442   000CAE  5995               	subwfb	(_pasosYDados+1)& (0+255),w,b
  5443   000CB0  A0D8               	btfss	status,0,c
  5444   000CB2  EF5D  F006         	goto	i2u362_41
  5445   000CB6  EF5F  F006         	goto	i2u362_40
  5446   000CBA                     i2u362_41:
  5447   000CBA  EF66  F006         	goto	i2l232
  5448   000CBE                     i2u362_40:
  5449   000CBE                     
  5450                           ; BSR set to: 0
  5451                           ;controlMotores.c: 229:             finY = 1;
  5452   000CBE  0E00               	movlw	0
  5453   000CC0  6F87               	movwf	(_finY+1)& (0+255),b
  5454   000CC2  0E01               	movlw	1
  5455   000CC4  6F86               	movwf	_finY& (0+255),b
  5456   000CC6                     
  5457                           ; BSR set to: 0
  5458                           ;controlMotores.c: 230:             TMR3ON = 0;
  5459   000CC6  90B1               	bcf	4017,0,c	;volatile
  5460   000CC8  EF66  F006         	goto	i2l236
  5461   000CCC                     i2l232:
  5462   000CCC                     i2l236:
  5463   000CCC  C004  FFDA         	movff	??_ISR+3,fsr2h
  5464   000CD0  C003  FFD9         	movff	??_ISR+2,fsr2l
  5465   000CD4  925A               	bcf	int$flags,1,c	;clear compiler interrupt flag (level 2)
  5466   000CD6  0011               	retfie		f
  5467   000CD8                     __end_of_ISR:
  5468                           	callstack 0
  5469                           
  5470                           	psect	rparam
  5471   000000                     
  5472                           	psect	temp
  5473   00005A                     btemp:
  5474                           	callstack 0
  5475   00005A                     	ds	1
  5476   000000                     int$flags	set	btemp
  5477   000000                     wtemp8	set	btemp+1
  5478   000000                     ttemp5	set	btemp+1
  5479   000000                     ttemp6	set	btemp+4
  5480   000000                     ttemp7	set	btemp+8
  5481                           
  5482                           	psect	idloc
  5483                           
  5484                           ;Config register IDLOC0 @ 0x200000
  5485                           ;	unspecified, using default values
  5486   200000                     	org	2097152
  5487   200000  FF                 	db	255
  5488                           
  5489                           ;Config register IDLOC1 @ 0x200001
  5490                           ;	unspecified, using default values
  5491   200001                     	org	2097153
  5492   200001  FF                 	db	255
  5493                           
  5494                           ;Config register IDLOC2 @ 0x200002
  5495                           ;	unspecified, using default values
  5496   200002                     	org	2097154
  5497   200002  FF                 	db	255
  5498                           
  5499                           ;Config register IDLOC3 @ 0x200003
  5500                           ;	unspecified, using default values
  5501   200003                     	org	2097155
  5502   200003  FF                 	db	255
  5503                           
  5504                           ;Config register IDLOC4 @ 0x200004
  5505                           ;	unspecified, using default values
  5506   200004                     	org	2097156
  5507   200004  FF                 	db	255
  5508                           
  5509                           ;Config register IDLOC5 @ 0x200005
  5510                           ;	unspecified, using default values
  5511   200005                     	org	2097157
  5512   200005  FF                 	db	255
  5513                           
  5514                           ;Config register IDLOC6 @ 0x200006
  5515                           ;	unspecified, using default values
  5516   200006                     	org	2097158
  5517   200006  FF                 	db	255
  5518                           
  5519                           ;Config register IDLOC7 @ 0x200007
  5520                           ;	unspecified, using default values
  5521   200007                     	org	2097159
  5522   200007  FF                 	db	255
  5523                           
  5524                           	psect	config
  5525                           
  5526                           ;Config register CONFIG1L @ 0x300000
  5527                           ;	unspecified, using default values
  5528                           ;	PLL Prescaler Selection bits
  5529                           ;	PLLDIV = 0x0, unprogrammed default
  5530                           ;	System Clock Postscaler Selection bits
  5531                           ;	CPUDIV = 0x0, unprogrammed default
  5532                           ;	USB Clock Selection bit (used in Full-Speed USB mode only; UCFG:FSEN = 1)
  5533                           ;	USBDIV = 0x0, unprogrammed default
  5534   300000                     	org	3145728
  5535   300000  00                 	db	0
  5536                           
  5537                           ;Config register CONFIG1H @ 0x300001
  5538                           ;	Oscillator Selection bits
  5539                           ;	FOSC = INTOSC_EC, Internal oscillator, CLKO function on RA6, EC used by USB (INTCKO)
  5540                           ;	Fail-Safe Clock Monitor Enable bit
  5541                           ;	FCMEN = 0x0, unprogrammed default
  5542                           ;	Internal/External Oscillator Switchover bit
  5543                           ;	IESO = 0x0, unprogrammed default
  5544   300001                     	org	3145729
  5545   300001  09                 	db	9
  5546                           
  5547                           ;Config register CONFIG2L @ 0x300002
  5548                           ;	unspecified, using default values
  5549                           ;	Power-up Timer Enable bit
  5550                           ;	PWRT = 0x1, unprogrammed default
  5551                           ;	Brown-out Reset Enable bits
  5552                           ;	BOR = 0x3, unprogrammed default
  5553                           ;	Brown-out Reset Voltage bits
  5554                           ;	BORV = 0x3, unprogrammed default
  5555                           ;	USB Voltage Regulator Enable bit
  5556                           ;	VREGEN = 0x0, unprogrammed default
  5557   300002                     	org	3145730
  5558   300002  1F                 	db	31
  5559                           
  5560                           ;Config register CONFIG2H @ 0x300003
  5561                           ;	Watchdog Timer Enable bit
  5562                           ;	WDT = OFF, WDT disabled (control is placed on the SWDTEN bit)
  5563                           ;	Watchdog Timer Postscale Select bits
  5564                           ;	WDTPS = 0xF, unprogrammed default
  5565   300003                     	org	3145731
  5566   300003  1E                 	db	30
  5567                           
  5568                           ; Padding undefined space
  5569   300004                     	org	3145732
  5570   300004  FF                 	db	255
  5571                           
  5572                           ;Config register CONFIG3H @ 0x300005
  5573                           ;	CCP2 MUX bit
  5574                           ;	CCP2MX = 0x1, unprogrammed default
  5575                           ;	PORTB A/D Enable bit
  5576                           ;	PBADEN = OFF, PORTB<4:0> pins are configured as digital I/O on Reset
  5577                           ;	Low-Power Timer 1 Oscillator Enable bit
  5578                           ;	LPT1OSC = 0x0, unprogrammed default
  5579                           ;	MCLR Pin Enable bit
  5580                           ;	MCLRE = 0x1, unprogrammed default
  5581   300005                     	org	3145733
  5582   300005  81                 	db	129
  5583                           
  5584                           ;Config register CONFIG4L @ 0x300006
  5585                           ;	Stack Full/Underflow Reset Enable bit
  5586                           ;	STVREN = 0x1, unprogrammed default
  5587                           ;	Single-Supply ICSP Enable bit
  5588                           ;	LVP = OFF, Single-Supply ICSP disabled
  5589                           ;	Dedicated In-Circuit Debug/Programming Port (ICPORT) Enable bit
  5590                           ;	ICPRT = 0x0, unprogrammed default
  5591                           ;	Extended Instruction Set Enable bit
  5592                           ;	XINST = 0x0, unprogrammed default
  5593                           ;	Background Debugger Enable bit
  5594                           ;	DEBUG = 0x1, unprogrammed default
  5595   300006                     	org	3145734
  5596   300006  81                 	db	129
  5597                           
  5598                           ; Padding undefined space
  5599   300007                     	org	3145735
  5600   300007  FF                 	db	255
  5601                           
  5602                           ;Config register CONFIG5L @ 0x300008
  5603                           ;	unspecified, using default values
  5604                           ;	Code Protection bit
  5605                           ;	CP0 = 0x1, unprogrammed default
  5606                           ;	Code Protection bit
  5607                           ;	CP1 = 0x1, unprogrammed default
  5608                           ;	Code Protection bit
  5609                           ;	CP2 = 0x1, unprogrammed default
  5610                           ;	Code Protection bit
  5611                           ;	CP3 = 0x1, unprogrammed default
  5612   300008                     	org	3145736
  5613   300008  0F                 	db	15
  5614                           
  5615                           ;Config register CONFIG5H @ 0x300009
  5616                           ;	unspecified, using default values
  5617                           ;	Boot Block Code Protection bit
  5618                           ;	CPB = 0x1, unprogrammed default
  5619                           ;	Data EEPROM Code Protection bit
  5620                           ;	CPD = 0x1, unprogrammed default
  5621   300009                     	org	3145737
  5622   300009  C0                 	db	192
  5623                           
  5624                           ;Config register CONFIG6L @ 0x30000A
  5625                           ;	unspecified, using default values
  5626                           ;	Write Protection bit
  5627                           ;	WRT0 = 0x1, unprogrammed default
  5628                           ;	Write Protection bit
  5629                           ;	WRT1 = 0x1, unprogrammed default
  5630                           ;	Write Protection bit
  5631                           ;	WRT2 = 0x1, unprogrammed default
  5632                           ;	Write Protection bit
  5633                           ;	WRT3 = 0x1, unprogrammed default
  5634   30000A                     	org	3145738
  5635   30000A  0F                 	db	15
  5636                           
  5637                           ;Config register CONFIG6H @ 0x30000B
  5638                           ;	unspecified, using default values
  5639                           ;	Configuration Register Write Protection bit
  5640                           ;	WRTC = 0x1, unprogrammed default
  5641                           ;	Boot Block Write Protection bit
  5642                           ;	WRTB = 0x1, unprogrammed default
  5643                           ;	Data EEPROM Write Protection bit
  5644                           ;	WRTD = 0x1, unprogrammed default
  5645   30000B                     	org	3145739
  5646   30000B  E0                 	db	224
  5647                           
  5648                           ;Config register CONFIG7L @ 0x30000C
  5649                           ;	unspecified, using default values
  5650                           ;	Table Read Protection bit
  5651                           ;	EBTR0 = 0x1, unprogrammed default
  5652                           ;	Table Read Protection bit
  5653                           ;	EBTR1 = 0x1, unprogrammed default
  5654                           ;	Table Read Protection bit
  5655                           ;	EBTR2 = 0x1, unprogrammed default
  5656                           ;	Table Read Protection bit
  5657                           ;	EBTR3 = 0x1, unprogrammed default
  5658   30000C                     	org	3145740
  5659   30000C  0F                 	db	15
  5660                           
  5661                           ;Config register CONFIG7H @ 0x30000D
  5662                           ;	unspecified, using default values
  5663                           ;	Boot Block Table Read Protection bit
  5664                           ;	EBTRB = 0x1, unprogrammed default
  5665   30000D                     	org	3145741
  5666   30000D  40                 	db	64
  5667                           tosu	equ	0xFFF
  5668                           tosh	equ	0xFFE
  5669                           tosl	equ	0xFFD
  5670                           stkptr	equ	0xFFC
  5671                           pclatu	equ	0xFFB
  5672                           pclath	equ	0xFFA
  5673                           pcl	equ	0xFF9
  5674                           tblptru	equ	0xFF8
  5675                           tblptrh	equ	0xFF7
  5676                           tblptrl	equ	0xFF6
  5677                           tablat	equ	0xFF5
  5678                           prodh	equ	0xFF4
  5679                           prodl	equ	0xFF3
  5680                           indf0	equ	0xFEF
  5681                           postinc0	equ	0xFEE
  5682                           postdec0	equ	0xFED
  5683                           preinc0	equ	0xFEC
  5684                           plusw0	equ	0xFEB
  5685                           fsr0h	equ	0xFEA
  5686                           fsr0l	equ	0xFE9
  5687                           wreg	equ	0xFE8
  5688                           indf1	equ	0xFE7
  5689                           postinc1	equ	0xFE6
  5690                           postdec1	equ	0xFE5
  5691                           preinc1	equ	0xFE4
  5692                           plusw1	equ	0xFE3
  5693                           fsr1h	equ	0xFE2
  5694                           fsr1l	equ	0xFE1
  5695                           bsr	equ	0xFE0
  5696                           indf2	equ	0xFDF
  5697                           postinc2	equ	0xFDE
  5698                           postdec2	equ	0xFDD
  5699                           preinc2	equ	0xFDC
  5700                           plusw2	equ	0xFDB
  5701                           fsr2h	equ	0xFDA
  5702                           fsr2l	equ	0xFD9
  5703                           status	equ	0xFD8

Data Sizes:
    Strings     10
    Constant    2
    Data        44
    BSS         163
    Persistent  8
    Stack       0

Auto Spaces:
    Space          Size  Autos    Used
    COMRAM           94     86      89
    BANK0           160     23     155
    BANK1           256      0      80
    BANK2           256      0       0
    BANK3           256      0       0
    BANK4           256      0       0
    BANK5           256      0       0
    BANK6           256      0       0
    BANK7           256      0       0

Pointer List with Targets:

    None.

Critical Paths under _main in COMRAM

    _precargas->___fltol
    ___fltol->___flsub
    ___flsub->___fldiv
    ___flmul->___xxtofl
    ___fldiv->___flmul

Critical Paths under _ISR in COMRAM

    None.

Critical Paths under _main in BANK0

    _main->_mover
    _guardarV->_mover
    _mover->_precargas

Critical Paths under _ISR in BANK0

    None.

Critical Paths under _main in BANK1

    None.

Critical Paths under _ISR in BANK1

    None.

Critical Paths under _main in BANK2

    None.

Critical Paths under _ISR in BANK2

    None.

Critical Paths under _main in BANK3

    None.

Critical Paths under _ISR in BANK3

    None.

Critical Paths under _main in BANK4

    None.

Critical Paths under _ISR in BANK4

    None.

Critical Paths under _main in BANK5

    None.

Critical Paths under _ISR in BANK5

    None.

Critical Paths under _main in BANK6

    None.

Critical Paths under _ISR in BANK6

    None.

Critical Paths under _main in BANK7

    None.

Critical Paths under _ISR in BANK7

    None.

Call Graph Tables:

 ---------------------------------------------------------------------------------
 (Depth) Function   	        Calls       Base Space   Used Autos Params    Refs
 ---------------------------------------------------------------------------------
 (0) _main                                                 2     2      0   63585
                                             21 BANK0      2     2      0
                         _Transmitir
                            ___fldiv
                             _goHome
                           _guardarV
                              _mover
 ---------------------------------------------------------------------------------
 (1) _guardarV                                             0     0      0   30251
                         _Transmitir
                              _mover
 ---------------------------------------------------------------------------------
 (1) _mover                                               19     5     14   30229
                                              2 BANK0     19     5     14
                            ___fldiv
                            ___flmul
                           ___xxtofl
                          _precargas
 ---------------------------------------------------------------------------------
 (2) _precargas                                            2     2      0   12228
                                              0 BANK0      2     2      0
                            ___fldiv
                            ___flmul
                            ___flsub
                            ___fltol
                           ___xxtofl
 ---------------------------------------------------------------------------------
 (3) ___xxtofl                                            14    10      4     836
                                              4 COMRAM    14    10      4
 ---------------------------------------------------------------------------------
 (3) ___fltol                                             10     6      4     517
                                             76 COMRAM    10     6      4
                            ___fldiv (ARG)
                            ___flmul (ARG)
                            ___flsub (ARG)
 ---------------------------------------------------------------------------------
 (3) ___flsub                                              8     0      8    3827
                                             68 COMRAM     8     0      8
                            ___fladd
                            ___fldiv (ARG)
                            ___flmul (ARG)
 ---------------------------------------------------------------------------------
 (4) ___fladd                                             16     8      8    3262
                                              4 COMRAM    16     8      8
 ---------------------------------------------------------------------------------
 (3) ___flmul                                             25    17      8    3773
                                             18 COMRAM    25    17      8
                           ___xxtofl (ARG)
 ---------------------------------------------------------------------------------
 (3) ___fldiv                                             25    17      8    3083
                                             43 COMRAM    25    17      8
                            ___flmul (ARG)
                           ___xxtofl (ARG)
 ---------------------------------------------------------------------------------
 (2) _Transmitir                                           1     1      0      22
                                              4 COMRAM     1     1      0
 ---------------------------------------------------------------------------------
 (1) _goHome                                               0     0      0       0
 ---------------------------------------------------------------------------------
 Estimated maximum stack depth 4
 ---------------------------------------------------------------------------------
 (Depth) Function   	        Calls       Base Space   Used Autos Params    Refs
 ---------------------------------------------------------------------------------
 (6) _ISR                                                  4     4      0       0
                                              0 COMRAM     4     4      0
 ---------------------------------------------------------------------------------
 Estimated maximum stack depth 6
 ---------------------------------------------------------------------------------

 Call Graph Graphs:

 _main (ROOT)
   _Transmitir
   ___fldiv
     ___flmul (ARG)
       ___xxtofl (ARG)
     ___xxtofl (ARG)
   _goHome
   _guardarV
     _Transmitir
     _mover
       ___fldiv
       ___flmul
       ___xxtofl
       _precargas
         ___fldiv
         ___flmul
         ___flsub
           ___fladd
           ___fldiv (ARG)
           ___flmul (ARG)
         ___fltol
           ___fldiv (ARG)
           ___flmul (ARG)
           ___flsub (ARG)
         ___xxtofl
   _mover

 _ISR (ROOT)

 Address spaces:
Name               Size   Autos  Total    Cost      Usage
BIGRAM             7FF      0       0      34        0.0%
EEDATA             100      0       0       0        0.0%
BITBANK7           100      0       0      18        0.0%
BANK7              100      0       0      19        0.0%
BITBANK6           100      0       0      16        0.0%
BANK6              100      0       0      17        0.0%
BITBANK5           100      0       0      14        0.0%
BANK5              100      0       0      15        0.0%
BITBANK4           100      0       0      12        0.0%
BANK4              100      0       0      13        0.0%
BITBANK3           100      0       0      10        0.0%
BANK3              100      0       0      11        0.0%
BITBANK2           100      0       0       8        0.0%
BANK2              100      0       0       9        0.0%
BITBANK1           100      0       0       6        0.0%
BANK1              100      0      50       7       31.2%
BITBANK0            A0      0       0       4        0.0%
BANK0               A0     17      9B       5       96.9%
BITCOMRAM           5E      0       0       0        0.0%
COMRAM              5E     56      59       1       94.7%
BITBIGSFRlll        21      0       0      32        0.0%
BITBIGSFRhlhhhh     19      0       0      21        0.0%
BITBIGSFRhlhhll     14      0       0      24        0.0%
BITBIGSFRhh          D      0       0      20        0.0%
BITBIGSFRllh         A      0       0      31        0.0%
BITBIGSFRhlhhll      9      0       0      27        0.0%
BITBIGSFRhll         7      0       0      28        0.0%
BITBIGSFRlhl         6      0       0      30        0.0%
BITBIGSFRhlhhll      4      0       0      25        0.0%
BITBIGSFRhlhhlh      3      0       0      23        0.0%
BITBIGSFRhlhhll      1      0       0      26        0.0%
BITBIGSFRhlhhhl      1      0       0      22        0.0%
BITBIGSFRlhh         1      0       0      29        0.0%
BIGSFR               0      0       0     200        0.0%
BITSFR               0      0       0     200        0.0%
SFR                  0      0       0     200        0.0%
STACK                0      0       0       2        0.0%
NULL                 0      0       0       0        0.0%
ABS                  0      0     144      33        0.0%
DATA                 0      0     144       3        0.0%
CODE                 0      0       0       0        0.0%


Microchip Technology PIC18 Macro Assembler V2.40 build 20220703182018 
Symbol Table                                                                                   Sat Sep 10 19:13:24 2022

           ___fldiv@aexp 0044             ___fldiv@bexp 0043             ___fldiv@sign 003C  
                     _Ta 00F7                       _ac 008E                       _vs 0074  
                    l302 19B4                      l242 2914                      l251 27AC  
                    l254 27D2                      l255 27E2                      l239 2902  
                    l247 2354                      l271 1B36                      l263 1A1C  
                    l280 1D56                      l273 1B7C                      l265 1A6E  
                    l258 283C                      l269 1AF0                      l285 1880  
                    l279 1D2E                      l295 1880                      l624 27A0  
                    l911 1F50                      l920 1F96                      l922 200E  
                    l914 1F14                      l923 1FFC                      l909 20F0  
                    l941 125C                      l950 14CA                      l951 14B8  
                    l855 0EC6                      l872 0FE0                      l864 1196  
                    l856 0EB4                      l945 15C0                      l881 10B0  
                    l857 0E7A                      l882 109E                      l948 1452  
                    l958 1582                      l982 23AC                      l897 28D2  
                    l985 2508                      _GIE 007F97                      l996 24A0  
                    l989 2444                      _RB0 007C08                      _RB1 007C09  
                    _RB2 007C0A                      _ISR 0008                      _TvC 0060  
                    _v5x 0068                      _v5y 0064                      _des 008A  
                    _vCx 00AC                      _vCy 00A8                      _cru 008C  
                    _ope 009E                      wreg 000FE8             ___flmul@aexp 0020  
           ___flmul@bexp 0025             ___flmul@sign 001F             ___flmul@temp 002A  
           ___flmul@prod 0026                     ?_ISR 0001             ___fltol@exp1 0056  
                   l3110 0CF4                     l3200 0EA8                     l3112 0D04  
                   l3120 0D2E                     l3104 0CD8                     l3210 0EF8  
                   l3202 0EB2                     l3130 0D5E                     l3122 0D3E  
                   l3114 0D14                     l3106 0CE4                     l3300 1184  
                   l3220 0F34                     l3212 0F08                     l3204 0ED4  
                   l3140 0D9E                     l3132 0D6C                     l3124 0D44  
                   l3116 0D24                     l3108 0CF2                     l3310 1D72  
                   l3302 1186                     l3230 0F7A                     l3222 0F42  
                   l3214 0F16                     l3206 0EE4                     l3150 0DD8  
                   l3142 0DA0                     l3134 0D6E                     l3126 0D56  
                   l3118 0D26                     l3400 1FA6                     l3320 1DA6  
                   l3312 1D74                     l3240 0FF6                     l3232 0FAE  
                   l3224 0F44                     l3216 0F24                     l3160 0DEC  
                   l3152 0DDC                     l3136 0D7E                     l3144 0DA8  
                   l3128 0D58                     l3402 1FB4                     l3330 1DD8  
                   l3314 1D84                     l3322 1DAE                     l3306 1D58  
                   l3250 1032                     l3242 1006                     l3234 0FB0  
                   l3226 0F4E                     l3218 0F30                     l3170 0E00  
                   l3162 0DF0                     l3154 0DE0                     l3146 0DB8  
                   l3138 0D8E                     l3412 201E                     l3420 2066  
                   l3404 1FB8                     l3340 1E0C                     l3332 1DDA  
                   l3324 1DBE                     l3316 1D94                     l3308 1D64  
                   l3500 1306                     l3260 105E                     l3252 1034  
                   l3236 0FC0                     l3228 0F54                     l3180 0E14  
                   l3172 0E04                     l3164 0DF4                     l3156 0DE4  
                   l3148 0DCA                     l2710 27B6                     l2702 2902  
                   l3430 20D0                     l3422 2080                     l3414 202A  
                   l3406 1FC6                     l3350 1E52                     l3334 1DEA  
                   l3342 1E14                     l3326 1DC4                     l3318 1DA4  
                   l3510 1358                     l3502 1312                     l3270 1096  
                   l3254 1042                     l3246 101A                     l3262 1060  
                   l3238 0FD0                     l3190 0E72                     l3174 0E08  
                   l3166 0DF8                     l3158 0DE8                     l3182 0E18  
                   l2720 27FA                     l2712 27C0                     l2704 2910  
                   l3432 20DE                     l3424 2096                     l3416 2038  
                   l3408 1FF4                     l3360 1E7A                     l3352 1E56  
                   l3344 1E24                     l3336 1DFA                     l3328 1DCA  
                   l3520 13D6                     l3512 1368                     l3504 1322  
                   l3280 1114                     l3256 104A                     l3248 1024  
                   l3264 106E                     l3192 0E88                     l3184 0E1C  
                   l3176 0E0C                     l3168 0DFC                     l2722 27FC  
                   l2714 27E0                     l2706 27A2                     l3434 20E4  
                   l3426 20B0                     l3418 2062                     l3370 1EC8  
                   l3346 1E3A                     l3338 1E0A                     l3530 1450  
                   l3522 140C                     l3514 1384                     l3506 132E  
                   l3450 11B4                     l3290 115A                     l3274 10C0  
                   l3282 1116                     l3266 1072                     l3258 104E  
                   l3194 0E94                     l3186 0E46                     l3178 0E10  
                   l3602 272C                     l2716 27F0                     l2724 2806  
                   l2708 27AE                     l3436 20E6                     l3428 20CC  
                   l3380 1F12                     l3372 1ED8                     l3364 1E8E  
                   l3348 1E4A                     l3356 1E6A                     l3540 14B0  
                   l3532 1462                     l3524 141A                     l3516 1390  
                   l3508 133E                     l3460 11FA                     l3452 11C4  
                   l3444 1198                     l3292 1168                     l3284 1126  
                   l3276 10CC                     l3268 1080                     l3196 0E98  
                   l3188 0E62                     l3620 2790                     l3612 2754  
                   l3604 2736                     l3700 1A1A                     l2726 2814  
                   l2718 27F2                     l3390 1F60                     l3382 1F1E  
                   l3374 1EE0                     l3366 1EA8                     l3358 1E7A  
                   l3550 151E                     l3534 1470                     l3526 1438  
                   l3518 13AC                     l3470 1226                     l3462 1200  
                   l3454 11D4                     l3446 11A4                     l3294 116E  
                   l3286 1136                     l3278 10DA                     l3198 0EA6  
                   l3614 2760                     l3606 2740                     l3630 23BC  
                   l3710 1AA0                     l3702 1A4E                     l2728 2822  
                   l3392 1F76                     l3384 1F3C                     l3376 1EF0  
                   l3368 1EB8                     l3560 1586                     l3544 14DA  
                   l3552 1522                     l3536 1474                     l3528 1442  
                   l3480 127C                     l3472 1236                     l3464 1206  
                   l3456 11E4                     l3448 11B2                     l3296 1170  
                   l3288 1156                     l3616 2770                     l3640 23FA  
                   l3632 23D2                     l3624 2358                     l3720 1AE2  
                   l3712 1AAC                     l3704 1A5A                     l3800 251C  
                   l3394 1F7C                     l3386 1F3E                     l3378 1F04  
                   l3570 15B0                     l3562 1596                     l3554 153C  
                   l3546 14E6                     l3538 1482                     l3490 12BC  
                   l3474 1246                     l3466 1214                     l3458 11EA  
                   l3298 1176                     l3618 2780                     l3650 2482  
                   l3642 242C                     l3626 2368                     l3722 1B0A  
                   l3730 1B96                     l3714 1AB2                     l3706 1A60  
                   l3810 2590                     l3802 2550                     l3396 1F86  
                   l3388 1F4E                     l3564 15A4                     l3556 1550  
                   l3548 14F4                     l3492 12C8                     l3484 1290  
                   l3476 124C                     l3468 1216                     l3580 269C  
                   l3660 24D8                     l3652 2490                     l3644 242E  
                   l3636 23E6                     l3628 2376                     l3740 1C62  
                   l3732 1BA8                     l3724 1B28                     l3716 1ABE  
                   l3708 1A6C                     l3820 259A                     l3812 2592  
                   l3804 2586                     l3398 1F94                     l3566 15A6  
                   l3558 156A                     l3494 12E0                     l3486 129C  
                   l3478 126C                     l3574 288E                     l3590 26F2  
                   l3582 26B2                     l3662 24E8                     l3654 24AE  
                   l3646 243A                     l3638 23EE                     l3670 20F2  
                   l3750 1D32                     l3742 1C6A                     l3734 1BB0  
                   l3726 1B50                     l3718 1AC4                     l3830 25A4  
                   l3822 259C                     l3814 2594                     l3806 258A  
                   l3568 15AC                     l3496 12EC                     l3488 12A6  
                   l3576 289E                     l3592 2702                     l3664 24F6  
                   l3656 24B0                     l3648 2476                     l3680 21C8  
                   l3752 1D52                     l3744 1CD4                     l3736 1C1A  
                   l3728 1B6E                     l3760 1620                     l3840 25BA  
                   l3832 25A8                     l3824 259E                     l3816 2596  
                   l3808 258E                     l3498 12F8                     l3594 2706  
                   l3586 26C6                     l3666 24F8                     l3658 24B4  
                   l3682 21FC                     l3746 1D08                     l3738 1C4E  
                   l3690 19B6                     l3770 16CC                     l3762 1634  
                   l3754 15C2                     l3850 25CA                     l3842 25BC  
                   l3834 25AC                     l3826 25A0                     l3818 2598  
                   l3596 2714                     l3588 26F0                     l3684 2298  
                   l3676 20FC                     l3748 1D1C                     l3692 19CA  
                   l3780 179C                     l3772 1704                     l3764 166C  
                   l3756 15D6                     l3860 25D8                     l3852 25CE  
                   l3844 25C0                     l3836 25AE                     l3828 25A2  
                   l3686 2334                     l3678 2194                     l3694 19FC  
                   l3790 1848                     l3782 17B0                     l3774 1718  
                   l3766 1680                     l3758 15E8                     l3870 2606  
                   l3862 25DA                     l3854 25D2                     l3846 25C2  
                   l3838 25B6                     l3688 2338                     l3696 1A08  
                   l3792 193A                     l3784 17E8                     l3776 1750  
                   l3768 16B8                     l3880 2648                     l3872 261A  
                   l3864 25DC                     l3856 25D4                     l3848 25C6  
                   l3698 1A0E                     l3786 17FC                     l3778 1764  
                   l3794 1948                     l3890 267E                     l3882 264E  
                   l3874 261E                     l3866 25E0                     l3858 25D6  
                   l3796 19AE                     l3788 1834                     l3892 2684  
                   l3884 2652                     l3876 2622                     l3868 2600  
                   l3894 2688                     l3886 2658                     l3878 2628  
                   l3798 250A                     l3896 268E                     l3888 265E  
                   STR_1 0807                     STR_2 0805                     STR_3 0803  
                   STR_4 0809                     STR_5 0803                     STR_6 080B  
                   STR_7 0805                     STR_8 0809                     STR_9 0807  
                   u3000 27F0                     u3001 27EC                     u3010 2814  
                   u3011 2810                     u3020 2822                     u3021 281E  
                   u4000 106E                     _LATD 000F8C                     u4001 106A  
                   u4010 1080                     u4011 107C                     u4100 1168  
                   u4020 1096                     u4101 1164                     u4021 1092  
                   u4110 1184                     u4030 10AC                     u4111 1180  
                   u4031 10A8                     u4200 1EF0                     u4120 1D72  
                   u4040 10C0                     u4201 1EEC                     u4121 1D6E  
                   u4041 10BC                     u4210 1F12                     u4130 1D84  
                   u4050 10DA                     u4211 1F0E                     u4131 1D80  
                   u4051 10D6                     u4300 201E                     u4220 1F3C  
                   u4140 1D94                     u4060 1114                     u4301 201A  
                   u4221 1F38                     u4141 1D90                     u4061 1110  
                   u4310 2038                     u4230 1F60                     u4150 1DD8  
                   u4070 1126                     u4311 2034                     u4231 1F5C  
                   u4151 1DD4                     u4071 1122                     u4320 2080  
                   u4240 1F76                     u4160 1DEA                     u4400 1236  
                   u4080 1136                     u4321 207C                     u4241 1F72  
                   u4161 1DE6                     u4401 1232                     u4081 1132  
                   u4330 20B0                     u4250 1F94                     u4170 1DFA  
                   u4410 126C                     u4090 1156                     u5107 2800  
                   u4331 20AC                     u4251 1F90                     u4171 1DF6  
                   u4411 1268                     u4091 1152                     u4340 20DE  
                   u4260 1FB4                     u4180 1E3A                     u4500 14F4  
                   u4420 127C                     u4341 20DA                     u4261 1FB0  
                   u4181 1E36                     u4501 14F0                     u4421 1278  
                   u4270 1FC6                     u4190 1E7A                     u4510 153C  
                   u4430 13F6                     u4350 11B2                     u4271 1FC2  
                   u4191 1E76                     u4511 1538                     u4351 11AE  
                   u4280 1FF4                     u4520 156A                     u4440 1450  
                   u4360 11C4                     u3800 0DCA                     u4600 2780  
                   u4281 1FF0                     u4521 1566                     u4441 144C  
                   u4361 11C0                     u3801 0DC6                     u4601 277C  
                   u4290 200A                     u4530 15A4                     u4450 1470  
                   u4370 11D4                     u3810 0DD8                     u3730 0CF2  
                   u4610 2368                     u4291 2006                     u4531 15A0  
                   u4451 146C                     u4435 13EC                     u4371 11D0  
                   u3811 0DD4                     u3731 0CEE                     u4611 2364  
                   _PEIE 007F96                     u4460 1482                     u4380 1214  
                   u3900 0F16                     u3820 0E46                     u3740 0D04  
                   u4540 26B2                     u4700 24F6                     u4620 2376  
                   u5077 27B0                     u4461 147E                     u4381 1210  
                   u3901 0F12                     u3821 0E42                     u3741 0D00  
                   u4541 26AE                     u4701 24F2                     u4621 2372  
                   u4470 14B0                     u4390 1226                     u3910 0F24  
                   u3830 0E5E                     u3750 0D14                     u4550 26E6  
                   u4630 23D2                     u4710 2354                     u5087 27BA  
                   u4471 14AC                     u4391 1222                     u3911 0F20  
                   u3831 0E58                     u3751 0D10                     u4631 23CE  
                   u4711 2350                     u4480 14C6                     u3920 0F42  
                   u3840 0E60                     u3760 0D56                     u4560 2714  
                   u4640 2428                     u4800 1C62                     u4720 19CA  
                   u5097 27F4                     u4481 14C2                     u3921 0F3E  
                   u3761 0D52                     u4561 2710                     u4641 2424  
                   u4801 1C5E                     u4721 19C6                     u2970 2910  
                   u4490 14DA                     u3930 0F7A                     u3850 0E88  
                   u3770 0D6C                     u4570 2728                     u4650 2472  
                   u4810 1D1C                     u4730 19FC                     u2971 290C  
                   u4491 14D6                     u3931 0F76                     u3851 0E84  
                   u3771 0D68                     u4571 2724                     u4555 26DC  
                   u4651 246E                     u4811 1D18                     u4731 19F8  
                   _RCIE 007CED                     u2980 27CE                     u3940 0FC0  
                   u3860 0EA6                     u3780 0D7E                     u4580 2750  
                   u4660 2490                     u4820 1D2E                     u4740 1A4E  
                   u4900 17B0                     _RCIF 007CF5                     u2981 27CA  
                   u3941 0FBC                     u3861 0EA2                     u3781 0D7A  
                   u4581 274C                     u4661 248C                     u4821 1D2A  
                   u4741 1A4A                     u4901 17AC                     u2990 27E0  
                   u3950 0FF6                     u3870 0EC6                     u3790 0D8E  
                   u4590 2770                     u4670 24A0                     u4750 1AA0  
                   u4910 17FC                     u4830 15D6                     u2991 27DC  
                   u3951 0FF2                     u3871 0EC2                     u3791 0D8A  
                   u4591 276C                     u4671 249C                     u4751 1A9C  
                   u4911 17F8                     u4831 15D2                     u3960 1006  
                   u3880 0ED4                     u4680 24AE                     u4760 1AE2  
                   u4920 1848                     u4840 15E8                     u3961 1002  
                   u3881 0ED0                     u4681 24AA                     u4761 1ADE  
                   u4921 1844                     u4841 15E4                     u3970 1032  
                   u3890 0EE4                     u4690 24E8                     u4770 1B28  
                   u4850 1634                     u4930 2600                     u3971 102E  
                   u3891 0EE0                     u4691 24E4                     u4771 1B24  
                   u4851 1630                     u4931 25FC                     u3980 1042  
                   u4780 1B6E                     u4860 1680                     u4940 261A  
                   u3981 103E                     u4781 1B6A                     u4861 167C  
                   u4941 2616                     u3990 105E                     u4790 1BA8  
                   u4870 16CC                     u4950 2648                     _RCIP 007CFD  
                   u3991 105A                     u4791 1BA4                     u4871 16C8  
                   u4951 2644                     u4880 1718                     u4960 267E  
                   u4881 1714                     u4961 267A                     u4890 1764  
                   u4891 1760                     _RBPU 007F8F                     _TMR0 000FD6  
                   _TMR1 000FCE                     _TMR3 000FB2                     _TRMT 007D61  
                   _finX 0088                     _finY 0086                     _finZ 0084  
                   _main 250A                     _posX 007E                     _posY 007C  
                   _posZ 007A                     fsr2h 000FDA                     fsr1l 000FE1  
                   fsr2l 000FD9                     btemp 005A                     prodh 000FF4  
                   prodl 000FF3                     start 000E          ___fldiv@new_exp 003D  
           ___param_bank 000000                    ??_ISR 0001            ___fltol@sign1 0055  
        __end_of___fladd 1198                    ?_main 0001          __end_of___fldiv 20F2  
        __end_of___flmul 15C2          __end_of___flsub 28D4          __end_of___fltol 27A2  
                  _T0CON 000FD5                    _T1CON 000FCD                    _T3CON 000FB1  
                  _LATD0 007C60                    _LATD1 007C61                    _LATD2 007C62  
                  _LATD3 007C63                    _LATD4 007C64                    _LATD5 007C65  
                  i2l231 0C7A                    i2l232 0CCC                    i2l225 0BE0  
                  i2l209 0B98                    i2l226 0C32                    i2l236 0CCC  
                  _RCREG 000FAE                    _RCSTA 000FAB                    _SPBRG 000FAF  
                  _TRISB 000F93                    _TRISD 000F95                    _TXREG 000FAD  
                  _TXSTA 000FAC                    _TIntx 0070                    _TInty 006C  
                  _carro 0078                    _vInsx 00A4                    _vInsy 00A0  
                  _orden 0059                    _mover 19B6                    tablat 000FF5  
                  ttemp5 005B                    ttemp6 005E                    ttemp7 0062  
                  status 000FD8                    wtemp8 005B          __initialization 283E  
           __end_of_main 269C                   ??_main 00F1            __activetblptr 000001  
                 ?_mover 00DE                   i2l3000 0BDA                   i2l3010 0C2C  
                 i2l3002 0BEE                   i2l3020 0C74                   i2l3004 0C06  
                 i2l3012 0C32                   i2l3030 0CC6                   i2l3022 0C88  
                 i2l3014 0C40                   i2l3006 0C0C                   i2l3024 0CA0  
                 i2l3016 0C58                   i2l3008 0C24                   i2l3026 0CA6  
                 i2l3018 0C70                   i2l3028 0CBE                   i2l2900 08CC  
                 i2l2910 0912                   i2l2902 08DE                   i2l2920 0958  
                 i2l2912 091A                   i2l2904 08E6                   i2l2930 0996  
                 i2l2922 095C                   i2l2914 092C                   i2l2906 08F8  
                 i2l2940 09BE                   i2l2932 09A8                   i2l2924 096E  
                 i2l2916 0934                   i2l2908 0900                   i2l2950 09FE  
                 i2l2942 09C6                   i2l2926 0980                   i2l2918 0946  
                 i2l2934 09AC                   i2l2960 0A56                   i2l2952 0A10  
                 i2l2944 09DA                   i2l2928 0984                   i2l2880 084A  
                 i2l2936 09AE                   i2l2970 0AC2                   i2l2962 0A72  
                 i2l2954 0A14                   i2l2946 09E2                   i2l2938 09BC  
                 i2l2890 0890                   i2l2882 085C                   i2l2874 0818  
                 i2l2980 0B3A                   i2l2972 0AD4                   i2l2964 0A84  
                 i2l2956 0A30                   i2l2948 09F4                   i2l2892 0898  
                 i2l2884 0864                   i2l2876 0826                   i2l2990 0B80  
                 i2l2982 0B4C                   i2l2966 0AA0                   i2l2974 0ADC  
                 i2l2958 0A42                   i2l2894 08AA                   i2l2886 0876  
                 i2l2878 082A                   i2l2992 0B92                   i2l2984 0B54  
                 i2l2976 0AEA                   i2l2968 0AB4                   i2l2896 08B2  
                 i2l2888 087E                   i2l2994 0BA6                   i2l2986 0B66  
                 i2l2978 0B06                   i2l2898 08C4                   i2l2996 0BBE  
                 i2l2988 0B6E                   i2l2998 0BD6                   _OSCCON 000FD3  
                 _TMR0IE 007F95                   _TMR0IF 007F92                   _TMR1IE 007CE8  
                 _TMR1IF 007CF0                   _TMR3IE 007D01                   _TMR3IF 007D09  
                 _TMR0ON 007EAF                   _TMR1ON 007E68                   _TMR3ON 007D88  
       __end_of___xxtofl 250A                ??___fladd 000D                ??___fldiv 0034  
                 _tDelay 0801                ??___flmul 001B                ??___flsub 004D  
              ??___fltol 0051                   _goHome 27A2                   _deltaT 00F3  
                 _arrayX 0128                   _arrayY 0100         __end_of_guardarV 19B6  
                 _estado 009F                   clear_0 2864                   clear_1 2870  
                 _pasosX 009C                   _pasosY 009A                   _pasosZ 0098  
                 isa$std 000001             __mediumconst 0000                   mover@x 00DE  
                 mover@y 00E2                   mover@z 00E6                   tblptrh 000FF7  
                 tblptrl 000FF6                   tblptru 000FF8               _Transmitir 2900  
           ___xxtofl@arg 000F             ___xxtofl@exp 000E             ___xxtofl@val 0005  
             __accesstop 0060  __end_of__initialization 287C           Transmitir@dato 0005  
          ___rparam_used 000001               ___fltol@f1 004D           __pcstackCOMRAM 0001  
           __pidataBANK0 28D4            __end_of_mover 1D58                  ??_mover 00EC  
             __pbssBANK0 0060               __pbssBANK1 0100                  ?_goHome 0001  
                _BAUDCON 000FB8                ?___xxtofl 0005              ?_Transmitir 0001  
              ?_guardarV 0001                  __Hparam 0000                  __Lparam 0000  
                ___fladd 0CD8                  ___fldiv 1D58                  ___flmul 1198  
                ___flsub 288E                  ___fltol 269C             __psmallconst 0800  
                __pcinit 283E                  __ramtop 0800                  __ptext0 250A  
                __ptext1 15C2                  __ptext2 19B6                  __ptext3 20F2  
                __ptext4 2356                  __ptext5 269C                  __ptext6 288E  
                __ptext7 0CD8                  __ptext8 1198                  __ptext9 1D58  
                _counter 0082               ??___xxtofl 0009                  _vactual 0076  
         __pintcode_body 080E     end_of_initialization 287C               ??_guardarV 0057  
                int_func 080E        __end_of_precargas 2356                  postdec1 000FE5  
                postdec2 000FDD                  postinc0 000FEE                  postinc2 000FDE  
             _posiciones 00B0              ___fladd@grs 0014            ___xxtofl@sign 000D  
            ___fldiv@grs 003F              ___fldiv@rem 0038              ___flmul@grs 0021  
         __end_of_tDelay 0803           __end_of_goHome 283E      start_initialization 283E  
            __end_of_ISR 0CD8                 ??_goHome 0005              __pdataBANK0 00B0  
              ___fladd@a 0009                ___fladd@b 0005                ___fldiv@a 0030  
              ___fldiv@b 002C                ___flmul@a 0017                ___flmul@b 0013  
            __pbssCOMRAM 0057                ___flsub@a 0049                ___flsub@b 0045  
          __pcstackBANK0 00DC             ??_Transmitir 0005            mover@absoluto 00EA  
              __pnvBANK0 00F3                __pintcode 0008                 ?___fladd 0005  
               ?___fldiv 002C                 ?___flmul 0013                 ?___flsub 0045  
               ?___fltol 004D       __end_of_Transmitir 2916              __smallconst 0800  
              _counterVC 0080               precargas@i 00DC                 i2u320_40 0876  
               i2u320_41 0872                 i2u321_40 0890                 i2u321_41 088C  
               i2u330_40 096E                 i2u322_40 08AA                 i2u330_41 096A  
               i2u322_41 08A6                 i2u331_40 0980                 i2u323_40 08C4  
               i2u331_41 097C                 i2u323_41 08C0                 i2u340_40 0A72  
               i2u332_40 0996                 i2u324_40 08DE                 i2u340_41 0A6E  
               i2u332_41 0992                 i2u324_41 08DA                 i2u341_40 0A84  
               i2u333_40 09A8                 i2u325_40 08F8                 i2u317_40 0826  
               i2u341_41 0A80                 i2u333_41 09A4                 i2u325_41 08F4  
               i2u317_41 0822                 i2u350_40 0B92                 i2u342_40 0AA0  
               i2u334_40 09BC                 i2u326_40 0912                 i2u318_40 084A  
               i2u350_41 0B8E                 i2u342_41 0A9C                 i2u334_41 09B8  
               i2u326_41 090E                 i2u318_41 0846                 i2u351_40 0BA6  
               i2u343_40 0AC2                 i2u335_40 09DA                 i2u327_40 092C  
               i2u319_40 085C                 i2u351_41 0BA2                 i2u343_41 0ABE  
               i2u335_41 09D6                 i2u327_41 0928                 i2u319_41 0858  
               i2u360_40 0C88                 i2u352_40 0BBE                 i2u344_40 0AD4  
               i2u336_40 09F4                 i2u328_40 0946                 i2u360_41 0C84  
               i2u352_41 0BBA                 i2u344_41 0AD0                 i2u336_41 09F0  
               i2u328_41 0942                 i2u361_40 0CA0                 i2u353_40 0BD6  
               i2u345_40 0AEA                 i2u337_40 0A10                 i2u329_40 0958  
               i2u361_41 0C9C                 i2u353_41 0BD2                 i2u345_41 0AE6  
               i2u337_41 0A0C                 i2u329_41 0954                 i2u362_40 0CBE  
               i2u354_40 0BEE                 i2u346_40 0B06                 i2u338_40 0A30  
               i2u362_41 0CBA                 i2u354_41 0BEA                 i2u346_41 0B02  
               i2u338_41 0A2C                _precargaX 0057                _precargaY 0090  
               i2u355_40 0C06                 i2u347_40 0B4C                 i2u339_40 0A42  
               i2u355_41 0C02                 i2u347_41 0B48                 i2u339_41 0A3E  
               i2u356_40 0C24                 i2u348_40 0B66                 i2u356_41 0C20  
               i2u348_41 0B62                 i2u357_40 0C40                 i2u349_40 0B80  
               i2u357_41 0C3C                 i2u349_41 0B7C                 i2u358_40 0C58  
              _precargas 20F2                 i2u358_41 0C54                 i2u359_40 0C70  
               i2u359_41 0C6C                copy_data0 2852                 __Hrparam 0000  
             ?_precargas 0001                 __Lrparam 0000             __Lsmallconst 0800  
               ___xxtofl 2356                 __ptext10 2900                 __ptext11 27A2  
               _guardarV 15C2              _pasosXDados 0096              _pasosYDados 0094  
            _pasosZDados 0092                 isa$xinst 000000                 int$flags 005A  
               intlevel2 0000              ??_precargas 0057            ___fladd@signs 0011  
           ___fladd@aexp 0012             ___fladd@bexp 0013  
