

Microchip MPLAB XC8 Assembler V2.40 build 20220703182018 
                                                                                               Wed Sep 07 23:41:15 2022

Microchip MPLAB XC8 C Compiler v2.40 (Free license) build 20220703182018 Og1 
     1                           	processor	18F4550
     2                           	fnconf	rparam,??,?,0
     3                           	pagewidth 120
     4                           	opt	flic
     5                           	psect	nvBANK0,global,class=BANK0,space=1,delta=1,lowdata,noexec
     6                           	psect	cinit,global,reloc=2,class=CODE,delta=1
     7                           	psect	bssCOMRAM,global,class=COMRAM,space=1,delta=1,lowdata,noexec
     8                           	psect	bssBANK0,global,class=BANK0,space=1,delta=1,lowdata,noexec
     9                           	psect	cstackBANK0,global,class=BANK0,space=1,delta=1,lowdata,noexec
    10                           	psect	cstackCOMRAM,global,class=COMRAM,space=1,delta=1,lowdata,noexec
    11                           	psect	text0,global,reloc=2,class=CODE,delta=1
    12                           	psect	text1,global,reloc=2,class=CODE,delta=1,group=1
    13                           	psect	text2,global,reloc=2,class=CODE,delta=1,group=1
    14                           	psect	text3,global,reloc=2,class=CODE,delta=1,group=1
    15                           	psect	text4,global,reloc=2,class=CODE,delta=1,group=1
    16                           	psect	text5,global,reloc=2,class=CODE,delta=1,group=1
    17                           	psect	text6,global,reloc=2,class=CODE,delta=1,group=1
    18                           	psect	intcode,global,reloc=2,class=CODE,delta=1
    19                           	psect	intcode_body,global,reloc=2,class=CODE,delta=1
    20                           	psect	text8,global,reloc=2,class=CODE,delta=1
    21                           	psect	text9,global,reloc=2,class=CODE,delta=1
    22                           	psect	text10,global,reloc=2,class=CODE,delta=1
    23                           	psect	text11,global,reloc=2,class=CODE,delta=1
    24                           	psect	text12,global,reloc=2,class=CODE,delta=1
    25                           	psect	text13,global,reloc=2,class=CODE,delta=1
    26                           	psect	intsave_regs,global,class=BIGRAM,space=1,delta=1,noexec
    27                           	psect	rparam,global,class=COMRAM,space=1,delta=1,noexec
    28                           	psect	temp,global,ovrld,common,class=COMRAM,space=1,delta=1
    29                           	psect	idloc,global,abs,ovrld,class=IDLOC,space=5,delta=1,noexec
    30                           	psect	config,global,abs,ovrld,class=CONFIG,space=4,delta=1,noexec
    31   000000                     
    32                           ; Version 2.40
    33                           ; Generated 17/11/2021 GMT
    34                           ; 
    35                           ; Copyright © 2021, Microchip Technology Inc. and its subsidiaries ("Microchip")
    36                           ; All rights reserved.
    37                           ; 
    38                           ; This software is developed by Microchip Technology Inc. and its subsidiaries ("Microch
      +                          ip").
    39                           ; 
    40                           ; Redistribution and use in source and binary forms, with or without modification, are
    41                           ; permitted provided that the following conditions are met:
    42                           ; 
    43                           ;     1. Redistributions of source code must retain the above copyright notice, this lis
      +                          t of
    44                           ;        conditions and the following disclaimer.
    45                           ; 
    46                           ;     2. Redistributions in binary form must reproduce the above copyright notice, this 
      +                          list
    47                           ;        of conditions and the following disclaimer in the documentation and/or other
    48                           ;        materials provided with the distribution. Publication is not required when
    49                           ;        this file is used in an embedded application.
    50                           ; 
    51                           ;     3. Microchip's name may not be used to endorse or promote products derived from th
      +                          is
    52                           ;        software without specific prior written permission.
    53                           ; 
    54                           ; THIS SOFTWARE IS PROVIDED BY MICROCHIP "AS IS" AND ANY EXPRESS OR IMPLIED WARRANTIES,
    55                           ; INCLUDING, BUT NOT LIMITED TO, THE IMPLIED WARRANTIES OF MERCHANTABILITY AND FITNESS F
      +                          OR
    56                           ; PURPOSE ARE DISCLAIMED.  IN NO EVENT SHALL MICROCHIP BE LIABLE FOR ANY DIRECT, INDIREC
      +                          T,
    57                           ; INCIDENTAL, SPECIAL, EXEMPLARY, OR CONSEQUENTIAL DAMAGES (INCLUDING BUT NOT LIMITED TO
    58                           ; PROCUREMENT OF SUBSTITUTE GOODS OR SERVICES; LOSS OF USE, DATA OR PROFITS; OR BUSINESS
    59                           ; INTERRUPTION) HOWSOEVER CAUSED AND ON ANY THEORY OF LIABILITY, WHETHER IN CONTRACT, ST
      +                          RICT
    60                           ; LIABILITY, OR TORT (INCLUDING NEGLIGENCE OR OTHERWISE) ARISING IN ANY WAY OUT OF THE U
      +                          SE OF
    61                           ; THIS SOFTWARE, EVEN IF ADVISED OF THE POSSIBILITY OF SUCH DAMAGE.
    62                           ; 
    63                           ; 
    64                           ; Code-generator required, PIC18F4550 Definitions
    65                           ; 
    66                           ; SFR Addresses
    67   000000                     
    68                           	psect	nvBANK0
    69   0000C0                     __pnvBANK0:
    70                           	callstack 0
    71   0000C0                     _TvC:
    72                           	callstack 0
    73   0000C0                     	ds	4
    74   0000C4                     _vCy:
    75                           	callstack 0
    76   0000C4                     	ds	4
    77   0000C8                     _vCx:
    78                           	callstack 0
    79   0000C8                     	ds	4
    80   0000CC                     _Ta:
    81                           	callstack 0
    82   0000CC                     	ds	4
    83   0000D0                     _ac:
    84                           	callstack 0
    85   0000D0                     	ds	2
    86   0000D2                     _pasosY:
    87                           	callstack 0
    88   0000D2                     	ds	2
    89   0000D4                     _pasosX:
    90                           	callstack 0
    91   0000D4                     	ds	2
    92   0000D6                     _deltaT:
    93                           	callstack 0
    94   0000D6                     	ds	4
    95   000000                     _LATD1	set	31841
    96   000000                     _LATD0	set	31840
    97   000000                     _GIE	set	32663
    98   000000                     _TMR3ON	set	32136
    99   000000                     _TMR1ON	set	32360
   100   000000                     _TMR0ON	set	32431
   101   000000                     _TMR0IE	set	32661
   102   000000                     _LATD	set	3980
   103   000000                     _TRISD	set	3989
   104   000000                     _TMR1IE	set	31976
   105   000000                     _TMR1IF	set	31984
   106   000000                     _TMR0IF	set	32658
   107   000000                     _TMR3IE	set	32001
   108   000000                     _TMR3IF	set	32009
   109   000000                     _T3CON	set	4017
   110   000000                     _T1CON	set	4045
   111   000000                     _T0CON	set	4053
   112   000000                     _TMR0	set	4054
   113   000000                     _TMR1	set	4046
   114   000000                     _TMR3	set	4018
   115                           
   116                           ; #config settings
   117                           
   118                           	psect	cinit
   119   002666                     __pcinit:
   120                           	callstack 0
   121   002666                     start_initialization:
   122                           	callstack 0
   123   002666                     __initialization:
   124                           	callstack 0
   125                           
   126                           ; Clear objects allocated to BANK0 (28 bytes)
   127   002666  EE00  F0A4         	lfsr	0,__pbssBANK0
   128   00266A  0E1C               	movlw	28
   129   00266C                     clear_0:
   130   00266C  6AEE               	clrf	postinc0,c
   131   00266E  06E8               	decf	wreg,f,c
   132   002670  E1FD               	bnz	clear_0
   133                           
   134                           ; Clear objects allocated to COMRAM (8 bytes)
   135   002672  EE00  F056         	lfsr	0,__pbssCOMRAM
   136   002676  0E08               	movlw	8
   137   002678                     clear_1:
   138   002678  6AEE               	clrf	postinc0,c
   139   00267A  06E8               	decf	wreg,f,c
   140   00267C  E1FD               	bnz	clear_1
   141   00267E                     end_of_initialization:
   142                           	callstack 0
   143   00267E                     __end_of__initialization:
   144                           	callstack 0
   145   00267E  905E               	bcf	int$flags,0,c	;clear compiler interrupt flag (level 1)
   146   002680  925E               	bcf	int$flags,1,c	;clear compiler interrupt flag (level 2)
   147   002682  0100               	movlb	0
   148   002684  EF29  F00F         	goto	_main	;jump to C main() function
   149                           
   150                           	psect	bssCOMRAM
   151   000056                     __pbssCOMRAM:
   152                           	callstack 0
   153   000056                     _counter:
   154                           	callstack 0
   155   000056                     	ds	2
   156   000058                     _des:
   157                           	callstack 0
   158   000058                     	ds	2
   159   00005A                     _pasosYDados:
   160                           	callstack 0
   161   00005A                     	ds	2
   162   00005C                     _pasosXDados:
   163                           	callstack 0
   164   00005C                     	ds	2
   165                           
   166                           	psect	bssBANK0
   167   0000A4                     __pbssBANK0:
   168                           	callstack 0
   169   0000A4                     _TInty:
   170                           	callstack 0
   171   0000A4                     	ds	4
   172   0000A8                     _TIntx:
   173                           	callstack 0
   174   0000A8                     	ds	4
   175   0000AC                     _vInsy:
   176                           	callstack 0
   177   0000AC                     	ds	4
   178   0000B0                     _counterVC:
   179                           	callstack 0
   180   0000B0                     	ds	2
   181   0000B2                     _cru:
   182                           	callstack 0
   183   0000B2                     	ds	2
   184   0000B4                     _precargaY:
   185                           	callstack 0
   186   0000B4                     	ds	2
   187   0000B6                     _precargaX:
   188                           	callstack 0
   189   0000B6                     	ds	2
   190   0000B8                     _pasosZDados:
   191                           	callstack 0
   192   0000B8                     	ds	2
   193   0000BA                     _pasosZ:
   194                           	callstack 0
   195   0000BA                     	ds	2
   196   0000BC                     _vInsx:
   197                           	callstack 0
   198   0000BC                     	ds	4
   199                           
   200                           	psect	cstackBANK0
   201   000060                     __pcstackBANK0:
   202                           	callstack 0
   203   000060                     ?___fladd:
   204                           	callstack 0
   205   000060                     ?___flmul:
   206                           	callstack 0
   207   000060                     ?___xxtofl:
   208                           	callstack 0
   209   000060                     ___fladd@b:
   210                           	callstack 0
   211   000060                     ___flmul@b:
   212                           	callstack 0
   213   000060                     ___xxtofl@val:
   214                           	callstack 0
   215                           
   216                           ; 4 bytes @ 0x0
   217   000060                     	ds	4
   218   000064                     ??___xxtofl:
   219   000064                     ___fladd@a:
   220                           	callstack 0
   221   000064                     ___flmul@a:
   222                           	callstack 0
   223                           
   224                           ; 4 bytes @ 0x4
   225   000064                     	ds	4
   226   000068                     ??___fladd:
   227   000068                     ??___flmul:
   228   000068                     ___xxtofl@sign:
   229                           	callstack 0
   230                           
   231                           ; 1 bytes @ 0x8
   232   000068                     	ds	1
   233   000069                     ___xxtofl@exp:
   234                           	callstack 0
   235                           
   236                           ; 1 bytes @ 0x9
   237   000069                     	ds	1
   238   00006A                     ___xxtofl@arg:
   239                           	callstack 0
   240                           
   241                           ; 4 bytes @ 0xA
   242   00006A                     	ds	2
   243   00006C                     ___fladd@signs:
   244                           	callstack 0
   245   00006C                     ___flmul@sign:
   246                           	callstack 0
   247                           
   248                           ; 1 bytes @ 0xC
   249   00006C                     	ds	1
   250   00006D                     ___fladd@aexp:
   251                           	callstack 0
   252   00006D                     ___flmul@grs:
   253                           	callstack 0
   254                           
   255                           ; 4 bytes @ 0xD
   256   00006D                     	ds	1
   257   00006E                     ___fladd@bexp:
   258                           	callstack 0
   259                           
   260                           ; 1 bytes @ 0xE
   261   00006E                     	ds	1
   262   00006F                     ___fladd@grs:
   263                           	callstack 0
   264                           
   265                           ; 1 bytes @ 0xF
   266   00006F                     	ds	2
   267   000071                     ___flmul@aexp:
   268                           	callstack 0
   269                           
   270                           ; 1 bytes @ 0x11
   271   000071                     	ds	1
   272   000072                     ___flmul@bexp:
   273                           	callstack 0
   274                           
   275                           ; 1 bytes @ 0x12
   276   000072                     	ds	1
   277   000073                     ___flmul@prod:
   278                           	callstack 0
   279                           
   280                           ; 4 bytes @ 0x13
   281   000073                     	ds	4
   282   000077                     ___flmul@temp:
   283                           	callstack 0
   284                           
   285                           ; 2 bytes @ 0x17
   286   000077                     	ds	2
   287   000079                     ?___fldiv:
   288                           	callstack 0
   289   000079                     ___fldiv@b:
   290                           	callstack 0
   291                           
   292                           ; 4 bytes @ 0x19
   293   000079                     	ds	4
   294   00007D                     ___fldiv@a:
   295                           	callstack 0
   296                           
   297                           ; 4 bytes @ 0x1D
   298   00007D                     	ds	4
   299   000081                     ??___fldiv:
   300                           
   301                           ; 1 bytes @ 0x21
   302   000081                     	ds	4
   303   000085                     ___fldiv@rem:
   304                           	callstack 0
   305                           
   306                           ; 4 bytes @ 0x25
   307   000085                     	ds	4
   308   000089                     ___fldiv@sign:
   309                           	callstack 0
   310                           
   311                           ; 1 bytes @ 0x29
   312   000089                     	ds	1
   313   00008A                     ___fldiv@new_exp:
   314                           	callstack 0
   315                           
   316                           ; 2 bytes @ 0x2A
   317   00008A                     	ds	2
   318   00008C                     ___fldiv@grs:
   319                           	callstack 0
   320                           
   321                           ; 4 bytes @ 0x2C
   322   00008C                     	ds	4
   323   000090                     ___fldiv@bexp:
   324                           	callstack 0
   325                           
   326                           ; 1 bytes @ 0x30
   327   000090                     	ds	1
   328   000091                     ___fldiv@aexp:
   329                           	callstack 0
   330                           
   331                           ; 1 bytes @ 0x31
   332   000091                     	ds	1
   333   000092                     ?___flsub:
   334                           	callstack 0
   335   000092                     ___flsub@b:
   336                           	callstack 0
   337                           
   338                           ; 4 bytes @ 0x32
   339   000092                     	ds	4
   340   000096                     ___flsub@a:
   341                           	callstack 0
   342                           
   343                           ; 4 bytes @ 0x36
   344   000096                     	ds	4
   345   00009A                     ?___fltol:
   346                           	callstack 0
   347   00009A                     ___fltol@f1:
   348                           	callstack 0
   349                           
   350                           ; 4 bytes @ 0x3A
   351   00009A                     	ds	4
   352   00009E                     ??___fltol:
   353                           
   354                           ; 1 bytes @ 0x3E
   355   00009E                     	ds	4
   356   0000A2                     ___fltol@sign1:
   357                           	callstack 0
   358                           
   359                           ; 1 bytes @ 0x42
   360   0000A2                     	ds	1
   361   0000A3                     ___fltol@exp1:
   362                           	callstack 0
   363                           
   364                           ; 1 bytes @ 0x43
   365   0000A3                     	ds	1
   366   0000A4                     
   367                           ; 1 bytes @ 0x44
   368                           
   369                           	psect	cstackCOMRAM
   370   000001                     __pcstackCOMRAM:
   371                           	callstack 0
   372   000001                     ?i2___fladd:
   373                           	callstack 0
   374   000001                     ?i2___xxtofl:
   375                           	callstack 0
   376   000001                     i2___fladd@b:
   377                           	callstack 0
   378   000001                     i2___xxtofl@val:
   379                           	callstack 0
   380                           
   381                           ; 4 bytes @ 0x0
   382   000001                     	ds	4
   383   000005                     ??i2___xxtofl:
   384   000005                     i2___fladd@a:
   385                           	callstack 0
   386                           
   387                           ; 4 bytes @ 0x4
   388   000005                     	ds	4
   389   000009                     ??i2___fladd:
   390   000009                     i2___xxtofl@sign:
   391                           	callstack 0
   392                           
   393                           ; 1 bytes @ 0x8
   394   000009                     	ds	1
   395   00000A                     i2___xxtofl@exp:
   396                           	callstack 0
   397                           
   398                           ; 1 bytes @ 0x9
   399   00000A                     	ds	1
   400   00000B                     i2___xxtofl@arg:
   401                           	callstack 0
   402                           
   403                           ; 4 bytes @ 0xA
   404   00000B                     	ds	2
   405   00000D                     i2___fladd@signs:
   406                           	callstack 0
   407                           
   408                           ; 1 bytes @ 0xC
   409   00000D                     	ds	1
   410   00000E                     i2___fladd@aexp:
   411                           	callstack 0
   412                           
   413                           ; 1 bytes @ 0xD
   414   00000E                     	ds	1
   415   00000F                     ?i2___flmul:
   416                           	callstack 0
   417   00000F                     i2___fladd@bexp:
   418                           	callstack 0
   419   00000F                     i2___flmul@b:
   420                           	callstack 0
   421                           
   422                           ; 4 bytes @ 0xE
   423   00000F                     	ds	1
   424   000010                     i2___fladd@grs:
   425                           	callstack 0
   426                           
   427                           ; 1 bytes @ 0xF
   428   000010                     	ds	3
   429   000013                     i2___flmul@a:
   430                           	callstack 0
   431                           
   432                           ; 4 bytes @ 0x12
   433   000013                     	ds	4
   434   000017                     ??i2___flmul:
   435                           
   436                           ; 1 bytes @ 0x16
   437   000017                     	ds	4
   438   00001B                     i2___flmul@sign:
   439                           	callstack 0
   440                           
   441                           ; 1 bytes @ 0x1A
   442   00001B                     	ds	1
   443   00001C                     i2___flmul@grs:
   444                           	callstack 0
   445                           
   446                           ; 4 bytes @ 0x1B
   447   00001C                     	ds	4
   448   000020                     i2___flmul@aexp:
   449                           	callstack 0
   450                           
   451                           ; 1 bytes @ 0x1F
   452   000020                     	ds	1
   453   000021                     i2___flmul@bexp:
   454                           	callstack 0
   455                           
   456                           ; 1 bytes @ 0x20
   457   000021                     	ds	1
   458   000022                     i2___flmul@prod:
   459                           	callstack 0
   460                           
   461                           ; 4 bytes @ 0x21
   462   000022                     	ds	4
   463   000026                     i2___flmul@temp:
   464                           	callstack 0
   465                           
   466                           ; 2 bytes @ 0x25
   467   000026                     	ds	2
   468   000028                     ?i2___fldiv:
   469                           	callstack 0
   470   000028                     i2___fldiv@b:
   471                           	callstack 0
   472                           
   473                           ; 4 bytes @ 0x27
   474   000028                     	ds	4
   475   00002C                     i2___fldiv@a:
   476                           	callstack 0
   477                           
   478                           ; 4 bytes @ 0x2B
   479   00002C                     	ds	4
   480   000030                     ??i2___fldiv:
   481                           
   482                           ; 1 bytes @ 0x2F
   483   000030                     	ds	4
   484   000034                     i2___fldiv@rem:
   485                           	callstack 0
   486                           
   487                           ; 4 bytes @ 0x33
   488   000034                     	ds	4
   489   000038                     i2___fldiv@sign:
   490                           	callstack 0
   491                           
   492                           ; 1 bytes @ 0x37
   493   000038                     	ds	1
   494   000039                     i2___fldiv@new_exp:
   495                           	callstack 0
   496                           
   497                           ; 2 bytes @ 0x38
   498   000039                     	ds	2
   499   00003B                     i2___fldiv@grs:
   500                           	callstack 0
   501                           
   502                           ; 4 bytes @ 0x3A
   503   00003B                     	ds	4
   504   00003F                     i2___fldiv@bexp:
   505                           	callstack 0
   506                           
   507                           ; 1 bytes @ 0x3E
   508   00003F                     	ds	1
   509   000040                     i2___fldiv@aexp:
   510                           	callstack 0
   511                           
   512                           ; 1 bytes @ 0x3F
   513   000040                     	ds	1
   514   000041                     ?i2___flsub:
   515                           	callstack 0
   516   000041                     i2___flsub@b:
   517                           	callstack 0
   518                           
   519                           ; 4 bytes @ 0x40
   520   000041                     	ds	4
   521   000045                     i2___flsub@a:
   522                           	callstack 0
   523                           
   524                           ; 4 bytes @ 0x44
   525   000045                     	ds	4
   526   000049                     ?i2___fltol:
   527                           	callstack 0
   528   000049                     i2___fltol@f1:
   529                           	callstack 0
   530                           
   531                           ; 4 bytes @ 0x48
   532   000049                     	ds	4
   533   00004D                     ??i2___fltol:
   534                           
   535                           ; 1 bytes @ 0x4C
   536   00004D                     	ds	4
   537   000051                     i2___fltol@sign1:
   538                           	callstack 0
   539                           
   540                           ; 1 bytes @ 0x50
   541   000051                     	ds	1
   542   000052                     i2___fltol@exp1:
   543                           	callstack 0
   544                           
   545                           ; 1 bytes @ 0x51
   546   000052                     	ds	1
   547   000053                     ??_ISR:
   548                           
   549                           ; 1 bytes @ 0x52
   550   000053                     	ds	3
   551                           
   552 ;;
   553 ;;Main: autosize = 0, tempsize = 0, incstack = 0, save=0
   554 ;;
   555 ;; *************** function _main *****************
   556 ;; Defined at:
   557 ;;		line 29 in file "Aceleracion.c"
   558 ;; Parameters:    Size  Location     Type
   559 ;;		None
   560 ;; Auto vars:     Size  Location     Type
   561 ;;		None
   562 ;; Return value:  Size  Location     Type
   563 ;;                  1    wreg      void 
   564 ;; Registers used:
   565 ;;		wreg, status,2, status,0, prodl, prodh, cstack
   566 ;; Tracked objects:
   567 ;;		On entry : 0/0
   568 ;;		On exit  : 0/0
   569 ;;		Unchanged: 0/0
   570 ;; Data sizes:     COMRAM   BANK0   BANK1   BANK2   BANK3   BANK4   BANK5   BANK6   BANK7
   571 ;;      Params:         0       0       0       0       0       0       0       0       0
   572 ;;      Locals:         0       0       0       0       0       0       0       0       0
   573 ;;      Temps:          0       0       0       0       0       0       0       0       0
   574 ;;      Totals:         0       0       0       0       0       0       0       0       0
   575 ;;Total ram usage:        0 bytes
   576 ;; Hardware stack levels required when called: 5
   577 ;; This function calls:
   578 ;;		___fldiv
   579 ;;		___flmul
   580 ;;		___flsub
   581 ;;		___fltol
   582 ;;		___xxtofl
   583 ;; This function is called by:
   584 ;;		Startup code after reset
   585 ;; This function uses a non-reentrant model
   586 ;;
   587                           
   588                           	psect	text0
   589   001E52                     __ptext0:
   590                           	callstack 0
   591   001E52                     _main:
   592                           	callstack 26
   593   001E52                     
   594                           ;Aceleracion.c: 31:     TMR1IF = 0;
   595   001E52  0E4C               	movlw	76
   596   001E54  0100               	movlb	0	; () banked
   597   001E56  6FD3               	movwf	(_pasosY+1)& (0+255),b
   598   001E58  0E2C               	movlw	44
   599   001E5A  6FD2               	movwf	_pasosY& (0+255),b
   600                           
   601                           ;Aceleracion.c: 32:     TMR3IF = 0;
   602   001E5C  0E44               	movlw	68
   603   001E5E  6FD5               	movwf	(_pasosX+1)& (0+255),b
   604   001E60  0EC0               	movlw	192
   605   001E62  6FD4               	movwf	_pasosX& (0+255),b
   606                           
   607                           ;Aceleracion.c: 33: 
   608   001E64  0E00               	movlw	0
   609   001E66  6E5D               	movwf	(_pasosXDados+1)^0,c
   610   001E68  0E00               	movlw	0
   611   001E6A  6E5C               	movwf	_pasosXDados^0,c
   612                           
   613                           ;Aceleracion.c: 34: 
   614   001E6C  0E00               	movlw	0
   615   001E6E  6E5B               	movwf	(_pasosYDados+1)^0,c
   616   001E70  0E00               	movlw	0
   617   001E72  6E5A               	movwf	_pasosYDados^0,c
   618                           
   619                           ;Aceleracion.c: 35:     TMR0IE = 1;
   620   001E74  0E00               	movlw	0
   621   001E76  6FD1               	movwf	(_ac+1)& (0+255),b
   622   001E78  0E01               	movlw	1
   623   001E7A  6FD0               	movwf	_ac& (0+255),b
   624                           
   625                           ;Aceleracion.c: 36:     TMR1IE = 1;
   626   001E7C  0E00               	movlw	0
   627   001E7E  6FCC               	movwf	_Ta& (0+255),b
   628   001E80  0E00               	movlw	0
   629   001E82  6FCD               	movwf	(_Ta+1)& (0+255),b
   630   001E84  0E90               	movlw	144
   631   001E86  6FCE               	movwf	(_Ta+2)& (0+255),b
   632   001E88  0E40               	movlw	64
   633   001E8A  6FCF               	movwf	(_Ta+3)& (0+255),b
   634   001E8C                     
   635                           ; BSR set to: 0
   636                           ;Aceleracion.c: 37:     TMR3IE = 1;
   637   001E8C  C0CC  F079         	movff	_Ta,___fldiv@b
   638   001E90  C0CD  F07A         	movff	_Ta+1,___fldiv@b+1
   639   001E94  C0CE  F07B         	movff	_Ta+2,___fldiv@b+2
   640   001E98  C0CF  F07C         	movff	_Ta+3,___fldiv@b+3
   641   001E9C  0E00               	movlw	0
   642   001E9E  6F7D               	movwf	___fldiv@a& (0+255),b
   643   001EA0  0E00               	movlw	0
   644   001EA2  6F7E               	movwf	(___fldiv@a+1)& (0+255),b
   645   001EA4  0EA0               	movlw	160
   646   001EA6  6F7F               	movwf	(___fldiv@a+2)& (0+255),b
   647   001EA8  0E41               	movlw	65
   648   001EAA  6F80               	movwf	(___fldiv@a+3)& (0+255),b
   649   001EAC  EC8E  F00B         	call	___fldiv	;wreg free
   650   001EB0  C079  F0D6         	movff	?___fldiv,_deltaT
   651   001EB4  C07A  F0D7         	movff	?___fldiv+1,_deltaT+1
   652   001EB8  C07B  F0D8         	movff	?___fldiv+2,_deltaT+2
   653   001EBC  C07C  F0D9         	movff	?___fldiv+3,_deltaT+3
   654   001EC0                     
   655                           ;Aceleracion.c: 38: 
   656   001EC0  C0D4  F060         	movff	_pasosX,___xxtofl@val
   657   001EC4  C0D5  F061         	movff	_pasosX+1,___xxtofl@val+1
   658   001EC8  0100               	movlb	0	; () banked
   659   001ECA  0E00               	movlw	0
   660   001ECC  BF61               	btfsc	(___xxtofl@val+1)& (0+255),7,b
   661   001ECE  0EFF               	movlw	-1
   662   001ED0  6F62               	movwf	(___xxtofl@val+2)& (0+255),b
   663   001ED2  6F63               	movwf	(___xxtofl@val+3)& (0+255),b
   664   001ED4  0E01               	movlw	1
   665   001ED6  EC2F  F010         	call	___xxtofl
   666   001EDA  C060  F079         	movff	?___xxtofl,___fldiv@b
   667   001EDE  C061  F07A         	movff	?___xxtofl+1,___fldiv@b+1
   668   001EE2  C062  F07B         	movff	?___xxtofl+2,___fldiv@b+2
   669   001EE6  C063  F07C         	movff	?___xxtofl+3,___fldiv@b+3
   670   001EEA  C0CC  F07D         	movff	_Ta,___fldiv@a
   671   001EEE  C0CD  F07E         	movff	_Ta+1,___fldiv@a+1
   672   001EF2  C0CE  F07F         	movff	_Ta+2,___fldiv@a+2
   673   001EF6  C0CF  F080         	movff	_Ta+3,___fldiv@a+3
   674   001EFA  EC8E  F00B         	call	___fldiv	;wreg free
   675   001EFE  C079  F0C8         	movff	?___fldiv,_vCx
   676   001F02  C07A  F0C9         	movff	?___fldiv+1,_vCx+1
   677   001F06  C07B  F0CA         	movff	?___fldiv+2,_vCx+2
   678   001F0A  C07C  F0CB         	movff	?___fldiv+3,_vCx+3
   679   001F0E                     
   680                           ;Aceleracion.c: 39: 
   681   001F0E  C0D2  F060         	movff	_pasosY,___xxtofl@val
   682   001F12  C0D3  F061         	movff	_pasosY+1,___xxtofl@val+1
   683   001F16  0100               	movlb	0	; () banked
   684   001F18  0E00               	movlw	0
   685   001F1A  BF61               	btfsc	(___xxtofl@val+1)& (0+255),7,b
   686   001F1C  0EFF               	movlw	-1
   687   001F1E  6F62               	movwf	(___xxtofl@val+2)& (0+255),b
   688   001F20  6F63               	movwf	(___xxtofl@val+3)& (0+255),b
   689   001F22  0E01               	movlw	1
   690   001F24  EC2F  F010         	call	___xxtofl
   691   001F28  C060  F079         	movff	?___xxtofl,___fldiv@b
   692   001F2C  C061  F07A         	movff	?___xxtofl+1,___fldiv@b+1
   693   001F30  C062  F07B         	movff	?___xxtofl+2,___fldiv@b+2
   694   001F34  C063  F07C         	movff	?___xxtofl+3,___fldiv@b+3
   695   001F38  C0CC  F07D         	movff	_Ta,___fldiv@a
   696   001F3C  C0CD  F07E         	movff	_Ta+1,___fldiv@a+1
   697   001F40  C0CE  F07F         	movff	_Ta+2,___fldiv@a+2
   698   001F44  C0CF  F080         	movff	_Ta+3,___fldiv@a+3
   699   001F48  EC8E  F00B         	call	___fldiv	;wreg free
   700   001F4C  C079  F0C4         	movff	?___fldiv,_vCy
   701   001F50  C07A  F0C5         	movff	?___fldiv+1,_vCy+1
   702   001F54  C07B  F0C6         	movff	?___fldiv+2,_vCy+2
   703   001F58  C07C  F0C7         	movff	?___fldiv+3,_vCy+3
   704   001F5C                     
   705                           ;Aceleracion.c: 40: 
   706   001F5C  C0D6  F060         	movff	_deltaT,___flmul@b
   707   001F60  C0D7  F061         	movff	_deltaT+1,___flmul@b+1
   708   001F64  C0D8  F062         	movff	_deltaT+2,___flmul@b+2
   709   001F68  C0D9  F063         	movff	_deltaT+3,___flmul@b+3
   710   001F6C  0E00               	movlw	0
   711   001F6E  0100               	movlb	0	; () banked
   712   001F70  6F64               	movwf	___flmul@a& (0+255),b
   713   001F72  0E00               	movlw	0
   714   001F74  6F65               	movwf	(___flmul@a+1)& (0+255),b
   715   001F76  0EA8               	movlw	168
   716   001F78  6F66               	movwf	(___flmul@a+2)& (0+255),b
   717   001F7A  0E41               	movlw	65
   718   001F7C  6F67               	movwf	(___flmul@a+3)& (0+255),b
   719   001F7E  EC63  F007         	call	___flmul	;wreg free
   720   001F82  C060  F0C0         	movff	?___flmul,_TvC
   721   001F86  C061  F0C1         	movff	?___flmul+1,_TvC+1
   722   001F8A  C062  F0C2         	movff	?___flmul+2,_TvC+2
   723   001F8E  C063  F0C3         	movff	?___flmul+3,_TvC+3
   724   001F92                     
   725                           ;Aceleracion.c: 41:     T0CON = 0b00000000;
   726   001F92  0E00               	movlw	0
   727   001F94  6E57               	movwf	(_counter+1)^0,c
   728   001F96  0E00               	movlw	0
   729   001F98  6E56               	movwf	_counter^0,c
   730   001F9A                     
   731                           ;Aceleracion.c: 42:     TMR0ON = 0;
   732   001F9A  0E00               	movlw	0
   733   001F9C  0100               	movlb	0	; () banked
   734   001F9E  6FB1               	movwf	(_counterVC+1)& (0+255),b
   735   001FA0  0E00               	movlw	0
   736   001FA2  6FB0               	movwf	_counterVC& (0+255),b
   737   001FA4                     
   738                           ; BSR set to: 0
   739                           ;Aceleracion.c: 45: 
   740   001FA4  94F2               	bcf	4082,2,c	;volatile
   741   001FA6                     
   742                           ; BSR set to: 0
   743                           ;Aceleracion.c: 46:     T1CON = 0b10000000;
   744   001FA6  909E               	bcf	3998,0,c	;volatile
   745   001FA8                     
   746                           ; BSR set to: 0
   747                           ;Aceleracion.c: 47:     TMR1ON = 0;
   748   001FA8  92A1               	bcf	4001,1,c	;volatile
   749   001FAA                     
   750                           ; BSR set to: 0
   751                           ;Aceleracion.c: 50:     T3CON = 0b10000000;
   752   001FAA  8AF2               	bsf	4082,5,c	;volatile
   753   001FAC                     
   754                           ; BSR set to: 0
   755                           ;Aceleracion.c: 51:     TMR3ON = 0;
   756   001FAC  809D               	bsf	3997,0,c	;volatile
   757   001FAE                     
   758                           ; BSR set to: 0
   759                           ;Aceleracion.c: 52: 
   760   001FAE  82A0               	bsf	4000,1,c	;volatile
   761   001FB0                     
   762                           ; BSR set to: 0
   763                           ;Aceleracion.c: 56: 
   764   001FB0  0E00               	movlw	0
   765   001FB2  6ED5               	movwf	213,c	;volatile
   766   001FB4                     
   767                           ; BSR set to: 0
   768                           ;Aceleracion.c: 57:     TRISD = 0b11111000;
   769   001FB4  9ED5               	bcf	4053,7,c	;volatile
   770   001FB6                     
   771                           ; BSR set to: 0
   772                           ;Aceleracion.c: 58:     LATD = 0;
   773   001FB6  0E00               	movlw	0
   774   001FB8  6F7D               	movwf	___fldiv@a& (0+255),b
   775   001FBA  0E00               	movlw	0
   776   001FBC  6F7E               	movwf	(___fldiv@a+1)& (0+255),b
   777   001FBE  0E00               	movlw	0
   778   001FC0  6F7F               	movwf	(___fldiv@a+2)& (0+255),b
   779   001FC2  0E40               	movlw	64
   780   001FC4  6F80               	movwf	(___fldiv@a+3)& (0+255),b
   781   001FC6  0E00               	movlw	0
   782   001FC8  6F64               	movwf	___flmul@a& (0+255),b
   783   001FCA  0E24               	movlw	36
   784   001FCC  6F65               	movwf	(___flmul@a+1)& (0+255),b
   785   001FCE  0E74               	movlw	116
   786   001FD0  6F66               	movwf	(___flmul@a+2)& (0+255),b
   787   001FD2  0E48               	movlw	72
   788   001FD4  6F67               	movwf	(___flmul@a+3)& (0+255),b
   789   001FD6  C0D6  F060         	movff	_deltaT,___flmul@b
   790   001FDA  C0D7  F061         	movff	_deltaT+1,___flmul@b+1
   791   001FDE  C0D8  F062         	movff	_deltaT+2,___flmul@b+2
   792   001FE2  C0D9  F063         	movff	_deltaT+3,___flmul@b+3
   793   001FE6  EC63  F007         	call	___flmul	;wreg free
   794   001FEA  C060  F079         	movff	?___flmul,___fldiv@b
   795   001FEE  C061  F07A         	movff	?___flmul+1,___fldiv@b+1
   796   001FF2  C062  F07B         	movff	?___flmul+2,___fldiv@b+2
   797   001FF6  C063  F07C         	movff	?___flmul+3,___fldiv@b+3
   798   001FFA  EC8E  F00B         	call	___fldiv	;wreg free
   799   001FFE  C079  F096         	movff	?___fldiv,___flsub@a
   800   002002  C07A  F097         	movff	?___fldiv+1,___flsub@a+1
   801   002006  C07B  F098         	movff	?___fldiv+2,___flsub@a+2
   802   00200A  C07C  F099         	movff	?___fldiv+3,___flsub@a+3
   803   00200E  0E00               	movlw	0
   804   002010  0100               	movlb	0	; () banked
   805   002012  6F92               	movwf	___flsub@b& (0+255),b
   806   002014  0E00               	movlw	0
   807   002016  6F93               	movwf	(___flsub@b+1)& (0+255),b
   808   002018  0E80               	movlw	128
   809   00201A  6F94               	movwf	(___flsub@b+2)& (0+255),b
   810   00201C  0E47               	movlw	71
   811   00201E  6F95               	movwf	(___flsub@b+3)& (0+255),b
   812   002020  ECEC  F012         	call	___flsub	;wreg free
   813   002024  C092  F09A         	movff	?___flsub,___fltol@f1
   814   002028  C093  F09B         	movff	?___flsub+1,___fltol@f1+1
   815   00202C  C094  F09C         	movff	?___flsub+2,___fltol@f1+2
   816   002030  C095  F09D         	movff	?___flsub+3,___fltol@f1+3
   817   002034  ECE5  F011         	call	___fltol	;wreg free
   818   002038  C09A  FFD6         	movff	?___fltol,4054	;volatile
   819   00203C  C09B  FFD7         	movff	?___fltol+1,4055	;volatile
   820   002040                     
   821                           ;Aceleracion.c: 61: 
   822   002040  0E80               	movlw	128
   823   002042  6ECD               	movwf	205,c	;volatile
   824   002044                     
   825                           ;Aceleracion.c: 62:     while(1){
   826   002044  90CD               	bcf	4045,0,c	;volatile
   827   002046                     
   828                           ;Aceleracion.c: 65: 
   829   002046  0E80               	movlw	128
   830   002048  6EB1               	movwf	177,c	;volatile
   831   00204A                     
   832                           ;Aceleracion.c: 66: void __attribute__((picinterrupt(("")))) ISR(void){
   833   00204A  90B1               	bcf	4017,0,c	;volatile
   834   00204C                     
   835                           ;Aceleracion.c: 69:             LATD0 = !LATD0;
   836   00204C  8EF2               	bsf	4082,7,c	;volatile
   837   00204E                     
   838                           ;Aceleracion.c: 72:         if(LATD0==1){
   839   00204E  0EF8               	movlw	248
   840   002050  6E95               	movwf	149,c	;volatile
   841   002052                     
   842                           ;Aceleracion.c: 73:             pasosXDados++;
   843   002052  0E00               	movlw	0
   844   002054  6E8C               	movwf	140,c	;volatile
   845   002056                     l89:
   846   002056  EF2B  F010         	goto	l89
   847   00205A  EF07  F000         	goto	start
   848   00205E                     __end_of_main:
   849                           	callstack 0
   850                           
   851 ;; *************** function ___xxtofl *****************
   852 ;; Defined at:
   853 ;;		line 10 in file "C:\Program Files\Microchip\xc8\v2.40\pic\sources\c99\common\xxtofl.c"
   854 ;; Parameters:    Size  Location     Type
   855 ;;  sign            1    wreg     unsigned char 
   856 ;;  val             4    0[BANK0 ] long 
   857 ;; Auto vars:     Size  Location     Type
   858 ;;  sign            1    8[BANK0 ] unsigned char 
   859 ;;  arg             4   10[BANK0 ] unsigned long 
   860 ;;  exp             1    9[BANK0 ] unsigned char 
   861 ;; Return value:  Size  Location     Type
   862 ;;                  4    0[BANK0 ] unsigned char 
   863 ;; Registers used:
   864 ;;		wreg, status,2, status,0
   865 ;; Tracked objects:
   866 ;;		On entry : 0/0
   867 ;;		On exit  : 0/0
   868 ;;		Unchanged: 0/0
   869 ;; Data sizes:     COMRAM   BANK0   BANK1   BANK2   BANK3   BANK4   BANK5   BANK6   BANK7
   870 ;;      Params:         0       4       0       0       0       0       0       0       0
   871 ;;      Locals:         0       6       0       0       0       0       0       0       0
   872 ;;      Temps:          0       4       0       0       0       0       0       0       0
   873 ;;      Totals:         0      14       0       0       0       0       0       0       0
   874 ;;Total ram usage:       14 bytes
   875 ;; Hardware stack levels used: 1
   876 ;; Hardware stack levels required when called: 3
   877 ;; This function calls:
   878 ;;		Nothing
   879 ;; This function is called by:
   880 ;;		_main
   881 ;; This function uses a non-reentrant model
   882 ;;
   883                           
   884                           	psect	text1
   885   00205E                     __ptext1:
   886                           	callstack 0
   887   00205E                     ___xxtofl:
   888                           	callstack 27
   889                           
   890                           ;incstack = 0
   891                           ;___xxtofl@sign stored from wreg
   892   00205E  0100               	movlb	0	; () banked
   893   002060  6F68               	movwf	___xxtofl@sign& (0+255),b
   894   002062  0100               	movlb	0	; () banked
   895   002064  5168               	movf	___xxtofl@sign& (0+255),w,b
   896   002066  B4D8               	btfsc	status,2,c
   897   002068  EF38  F010         	goto	u3491
   898   00206C  EF3A  F010         	goto	u3490
   899   002070                     u3491:
   900   002070  EF5C  F010         	goto	l774
   901   002074                     u3490:
   902   002074                     
   903                           ; BSR set to: 0
   904   002074  BF63               	btfsc	(___xxtofl@val+3)& (0+255),7,b
   905   002076  EF41  F010         	goto	u3500
   906   00207A  EF3F  F010         	goto	u3501
   907   00207E                     u3501:
   908   00207E  EF5C  F010         	goto	l774
   909   002082                     u3500:
   910   002082                     
   911                           ; BSR set to: 0
   912   002082  C060  F064         	movff	___xxtofl@val,??___xxtofl
   913   002086  C061  F065         	movff	___xxtofl@val+1,??___xxtofl+1
   914   00208A  C062  F066         	movff	___xxtofl@val+2,??___xxtofl+2
   915   00208E  C063  F067         	movff	___xxtofl@val+3,??___xxtofl+3
   916   002092  1F64               	comf	??___xxtofl& (0+255),f,b
   917   002094  1F65               	comf	(??___xxtofl+1)& (0+255),f,b
   918   002096  1F66               	comf	(??___xxtofl+2)& (0+255),f,b
   919   002098  1F67               	comf	(??___xxtofl+3)& (0+255),f,b
   920   00209A  2B64               	incf	??___xxtofl& (0+255),f,b
   921   00209C  0E00               	movlw	0
   922   00209E  2365               	addwfc	(??___xxtofl+1)& (0+255),f,b
   923   0020A0  2366               	addwfc	(??___xxtofl+2)& (0+255),f,b
   924   0020A2  2367               	addwfc	(??___xxtofl+3)& (0+255),f,b
   925   0020A4  C064  F06A         	movff	??___xxtofl,___xxtofl@arg
   926   0020A8  C065  F06B         	movff	??___xxtofl+1,___xxtofl@arg+1
   927   0020AC  C066  F06C         	movff	??___xxtofl+2,___xxtofl@arg+2
   928   0020B0  C067  F06D         	movff	??___xxtofl+3,___xxtofl@arg+3
   929   0020B4  EF64  F010         	goto	l2772
   930   0020B8                     l774:
   931                           
   932                           ; BSR set to: 0
   933   0020B8  C060  F06A         	movff	___xxtofl@val,___xxtofl@arg
   934   0020BC  C061  F06B         	movff	___xxtofl@val+1,___xxtofl@arg+1
   935   0020C0  C062  F06C         	movff	___xxtofl@val+2,___xxtofl@arg+2
   936   0020C4  C063  F06D         	movff	___xxtofl@val+3,___xxtofl@arg+3
   937   0020C8                     l2772:
   938                           
   939                           ; BSR set to: 0
   940   0020C8  5160               	movf	___xxtofl@val& (0+255),w,b
   941   0020CA  1161               	iorwf	(___xxtofl@val+1)& (0+255),w,b
   942   0020CC  1162               	iorwf	(___xxtofl@val+2)& (0+255),w,b
   943   0020CE  1163               	iorwf	(___xxtofl@val+3)& (0+255),w,b
   944   0020D0  A4D8               	btfss	status,2,c
   945   0020D2  EF6D  F010         	goto	u3511
   946   0020D6  EF6F  F010         	goto	u3510
   947   0020DA                     u3511:
   948   0020DA  EF79  F010         	goto	l2778
   949   0020DE                     u3510:
   950   0020DE                     
   951                           ; BSR set to: 0
   952   0020DE  0E00               	movlw	0
   953   0020E0  6F60               	movwf	?___xxtofl& (0+255),b
   954   0020E2  0E00               	movlw	0
   955   0020E4  6F61               	movwf	(?___xxtofl+1)& (0+255),b
   956   0020E6  0E00               	movlw	0
   957   0020E8  6F62               	movwf	(?___xxtofl+2)& (0+255),b
   958   0020EA  0E00               	movlw	0
   959   0020EC  6F63               	movwf	(?___xxtofl+3)& (0+255),b
   960   0020EE  EF0A  F011         	goto	l777
   961   0020F2                     l2778:
   962                           
   963                           ; BSR set to: 0
   964   0020F2  0E96               	movlw	150
   965   0020F4  6F69               	movwf	___xxtofl@exp& (0+255),b
   966   0020F6  EF83  F010         	goto	l2782
   967   0020FA                     l2780:
   968                           
   969                           ; BSR set to: 0
   970   0020FA  2B69               	incf	___xxtofl@exp& (0+255),f,b
   971   0020FC  90D8               	bcf	status,0,c
   972   0020FE  336D               	rrcf	(___xxtofl@arg+3)& (0+255),f,b
   973   002100  336C               	rrcf	(___xxtofl@arg+2)& (0+255),f,b
   974   002102  336B               	rrcf	(___xxtofl@arg+1)& (0+255),f,b
   975   002104  336A               	rrcf	___xxtofl@arg& (0+255),f,b
   976   002106                     l2782:
   977                           
   978                           ; BSR set to: 0
   979   002106  0E00               	movlw	0
   980   002108  156A               	andwf	___xxtofl@arg& (0+255),w,b
   981   00210A  6F64               	movwf	??___xxtofl& (0+255),b
   982   00210C  0E00               	movlw	0
   983   00210E  156B               	andwf	(___xxtofl@arg+1)& (0+255),w,b
   984   002110  6F65               	movwf	(??___xxtofl+1)& (0+255),b
   985   002112  0E00               	movlw	0
   986   002114  156C               	andwf	(___xxtofl@arg+2)& (0+255),w,b
   987   002116  6F66               	movwf	(??___xxtofl+2)& (0+255),b
   988   002118  0EFE               	movlw	254
   989   00211A  156D               	andwf	(___xxtofl@arg+3)& (0+255),w,b
   990   00211C  6F67               	movwf	(??___xxtofl+3)& (0+255),b
   991   00211E  5164               	movf	??___xxtofl& (0+255),w,b
   992   002120  1165               	iorwf	(??___xxtofl+1)& (0+255),w,b
   993   002122  1166               	iorwf	(??___xxtofl+2)& (0+255),w,b
   994   002124  1167               	iorwf	(??___xxtofl+3)& (0+255),w,b
   995   002126  A4D8               	btfss	status,2,c
   996   002128  EF98  F010         	goto	u3521
   997   00212C  EF9A  F010         	goto	u3520
   998   002130                     u3521:
   999   002130  EF7D  F010         	goto	l2780
  1000   002134                     u3520:
  1001   002134  EFA8  F010         	goto	l781
  1002   002138                     l2784:
  1003                           
  1004                           ; BSR set to: 0
  1005   002138  2B69               	incf	___xxtofl@exp& (0+255),f,b
  1006   00213A                     
  1007                           ; BSR set to: 0
  1008   00213A  0E01               	movlw	1
  1009   00213C  276A               	addwf	___xxtofl@arg& (0+255),f,b
  1010   00213E  0E00               	movlw	0
  1011   002140  236B               	addwfc	(___xxtofl@arg+1)& (0+255),f,b
  1012   002142  236C               	addwfc	(___xxtofl@arg+2)& (0+255),f,b
  1013   002144  236D               	addwfc	(___xxtofl@arg+3)& (0+255),f,b
  1014   002146                     
  1015                           ; BSR set to: 0
  1016   002146  90D8               	bcf	status,0,c
  1017   002148  336D               	rrcf	(___xxtofl@arg+3)& (0+255),f,b
  1018   00214A  336C               	rrcf	(___xxtofl@arg+2)& (0+255),f,b
  1019   00214C  336B               	rrcf	(___xxtofl@arg+1)& (0+255),f,b
  1020   00214E  336A               	rrcf	___xxtofl@arg& (0+255),f,b
  1021   002150                     l781:
  1022                           
  1023                           ; BSR set to: 0
  1024   002150  0E00               	movlw	0
  1025   002152  156A               	andwf	___xxtofl@arg& (0+255),w,b
  1026   002154  6F64               	movwf	??___xxtofl& (0+255),b
  1027   002156  0E00               	movlw	0
  1028   002158  156B               	andwf	(___xxtofl@arg+1)& (0+255),w,b
  1029   00215A  6F65               	movwf	(??___xxtofl+1)& (0+255),b
  1030   00215C  0E00               	movlw	0
  1031   00215E  156C               	andwf	(___xxtofl@arg+2)& (0+255),w,b
  1032   002160  6F66               	movwf	(??___xxtofl+2)& (0+255),b
  1033   002162  0EFF               	movlw	255
  1034   002164  156D               	andwf	(___xxtofl@arg+3)& (0+255),w,b
  1035   002166  6F67               	movwf	(??___xxtofl+3)& (0+255),b
  1036   002168  5164               	movf	??___xxtofl& (0+255),w,b
  1037   00216A  1165               	iorwf	(??___xxtofl+1)& (0+255),w,b
  1038   00216C  1166               	iorwf	(??___xxtofl+2)& (0+255),w,b
  1039   00216E  1167               	iorwf	(??___xxtofl+3)& (0+255),w,b
  1040   002170  A4D8               	btfss	status,2,c
  1041   002172  EFBD  F010         	goto	u3531
  1042   002176  EFBF  F010         	goto	u3530
  1043   00217A                     u3531:
  1044   00217A  EF9C  F010         	goto	l2784
  1045   00217E                     u3530:
  1046   00217E  EFC7  F010         	goto	l2792
  1047   002182                     l2790:
  1048                           
  1049                           ; BSR set to: 0
  1050   002182  0769               	decf	___xxtofl@exp& (0+255),f,b
  1051   002184  90D8               	bcf	status,0,c
  1052   002186  376A               	rlcf	___xxtofl@arg& (0+255),f,b
  1053   002188  376B               	rlcf	(___xxtofl@arg+1)& (0+255),f,b
  1054   00218A  376C               	rlcf	(___xxtofl@arg+2)& (0+255),f,b
  1055   00218C  376D               	rlcf	(___xxtofl@arg+3)& (0+255),f,b
  1056   00218E                     l2792:
  1057                           
  1058                           ; BSR set to: 0
  1059   00218E  BF6C               	btfsc	(___xxtofl@arg+2)& (0+255),7,b
  1060   002190  EFCC  F010         	goto	u3541
  1061   002194  EFCE  F010         	goto	u3540
  1062   002198                     u3541:
  1063   002198  EFD6  F010         	goto	l788
  1064   00219C                     u3540:
  1065   00219C                     
  1066                           ; BSR set to: 0
  1067   00219C  0E02               	movlw	2
  1068   00219E  6169               	cpfslt	___xxtofl@exp& (0+255),b
  1069   0021A0  EFD4  F010         	goto	u3551
  1070   0021A4  EFD6  F010         	goto	u3550
  1071   0021A8                     u3551:
  1072   0021A8  EFC1  F010         	goto	l2790
  1073   0021AC                     u3550:
  1074   0021AC                     l788:
  1075                           
  1076                           ; BSR set to: 0
  1077   0021AC  B169               	btfsc	___xxtofl@exp& (0+255),0,b
  1078   0021AE  EFDB  F010         	goto	u3561
  1079   0021B2  EFDD  F010         	goto	u3560
  1080   0021B6                     u3561:
  1081   0021B6  EFDE  F010         	goto	l2798
  1082   0021BA                     u3560:
  1083   0021BA                     
  1084                           ; BSR set to: 0
  1085   0021BA  9F6C               	bcf	(___xxtofl@arg+2)& (0+255),7,b
  1086   0021BC                     l2798:
  1087                           
  1088                           ; BSR set to: 0
  1089   0021BC  90D8               	bcf	status,0,c
  1090   0021BE  3369               	rrcf	___xxtofl@exp& (0+255),f,b
  1091   0021C0                     
  1092                           ; BSR set to: 0
  1093   0021C0  C069  F064         	movff	___xxtofl@exp,??___xxtofl
  1094   0021C4  6B65               	clrf	(??___xxtofl+1)& (0+255),b
  1095   0021C6  6B66               	clrf	(??___xxtofl+2)& (0+255),b
  1096   0021C8  6B67               	clrf	(??___xxtofl+3)& (0+255),b
  1097   0021CA  C064  F067         	movff	??___xxtofl,??___xxtofl+3
  1098   0021CE  6B66               	clrf	(??___xxtofl+2)& (0+255),b
  1099   0021D0  6B65               	clrf	(??___xxtofl+1)& (0+255),b
  1100   0021D2  6B64               	clrf	??___xxtofl& (0+255),b
  1101   0021D4  5164               	movf	??___xxtofl& (0+255),w,b
  1102   0021D6  136A               	iorwf	___xxtofl@arg& (0+255),f,b
  1103   0021D8  5165               	movf	(??___xxtofl+1)& (0+255),w,b
  1104   0021DA  136B               	iorwf	(___xxtofl@arg+1)& (0+255),f,b
  1105   0021DC  5166               	movf	(??___xxtofl+2)& (0+255),w,b
  1106   0021DE  136C               	iorwf	(___xxtofl@arg+2)& (0+255),f,b
  1107   0021E0  5167               	movf	(??___xxtofl+3)& (0+255),w,b
  1108   0021E2  136D               	iorwf	(___xxtofl@arg+3)& (0+255),f,b
  1109   0021E4                     
  1110                           ; BSR set to: 0
  1111   0021E4  5168               	movf	___xxtofl@sign& (0+255),w,b
  1112   0021E6  B4D8               	btfsc	status,2,c
  1113   0021E8  EFF8  F010         	goto	u3571
  1114   0021EC  EFFA  F010         	goto	u3570
  1115   0021F0                     u3571:
  1116   0021F0  EF02  F011         	goto	l2808
  1117   0021F4                     u3570:
  1118   0021F4                     
  1119                           ; BSR set to: 0
  1120   0021F4  BF63               	btfsc	(___xxtofl@val+3)& (0+255),7,b
  1121   0021F6  EF01  F011         	goto	u3580
  1122   0021FA  EFFF  F010         	goto	u3581
  1123   0021FE                     u3581:
  1124   0021FE  EF02  F011         	goto	l2808
  1125   002202                     u3580:
  1126   002202                     
  1127                           ; BSR set to: 0
  1128   002202  8F6D               	bsf	(___xxtofl@arg+3)& (0+255),7,b
  1129   002204                     l2808:
  1130                           
  1131                           ; BSR set to: 0
  1132   002204  C06A  F060         	movff	___xxtofl@arg,?___xxtofl
  1133   002208  C06B  F061         	movff	___xxtofl@arg+1,?___xxtofl+1
  1134   00220C  C06C  F062         	movff	___xxtofl@arg+2,?___xxtofl+2
  1135   002210  C06D  F063         	movff	___xxtofl@arg+3,?___xxtofl+3
  1136   002214                     l777:
  1137                           
  1138                           ; BSR set to: 0
  1139   002214  0012               	return		;funcret
  1140   002216                     __end_of___xxtofl:
  1141                           	callstack 0
  1142                           
  1143 ;; *************** function ___fltol *****************
  1144 ;; Defined at:
  1145 ;;		line 43 in file "C:\Program Files\Microchip\xc8\v2.40\pic\sources\c99\common\fltol.c"
  1146 ;; Parameters:    Size  Location     Type
  1147 ;;  f1              4   58[BANK0 ] unsigned char 
  1148 ;; Auto vars:     Size  Location     Type
  1149 ;;  exp1            1   67[BANK0 ] unsigned char 
  1150 ;;  sign1           1   66[BANK0 ] unsigned char 
  1151 ;; Return value:  Size  Location     Type
  1152 ;;                  4   58[BANK0 ] long 
  1153 ;; Registers used:
  1154 ;;		wreg, status,2, status,0
  1155 ;; Tracked objects:
  1156 ;;		On entry : 0/0
  1157 ;;		On exit  : 0/0
  1158 ;;		Unchanged: 0/0
  1159 ;; Data sizes:     COMRAM   BANK0   BANK1   BANK2   BANK3   BANK4   BANK5   BANK6   BANK7
  1160 ;;      Params:         0       4       0       0       0       0       0       0       0
  1161 ;;      Locals:         0       2       0       0       0       0       0       0       0
  1162 ;;      Temps:          0       4       0       0       0       0       0       0       0
  1163 ;;      Totals:         0      10       0       0       0       0       0       0       0
  1164 ;;Total ram usage:       10 bytes
  1165 ;; Hardware stack levels used: 1
  1166 ;; Hardware stack levels required when called: 3
  1167 ;; This function calls:
  1168 ;;		Nothing
  1169 ;; This function is called by:
  1170 ;;		_main
  1171 ;; This function uses a non-reentrant model
  1172 ;;
  1173                           
  1174                           	psect	text2
  1175   0023CA                     __ptext2:
  1176                           	callstack 0
  1177   0023CA                     ___fltol:
  1178                           	callstack 27
  1179   0023CA  0100               	movlb	0	; () banked
  1180   0023CC  359C               	rlcf	(___fltol@f1+2)& (0+255),w,b
  1181   0023CE  359D               	rlcf	(___fltol@f1+3)& (0+255),w,b
  1182   0023D0  6FA3               	movwf	___fltol@exp1& (0+255),b
  1183   0023D2  51A3               	movf	___fltol@exp1& (0+255),w,b
  1184   0023D4  A4D8               	btfss	status,2,c
  1185   0023D6  EFEF  F011         	goto	u3421
  1186   0023DA  EFF1  F011         	goto	u3420
  1187   0023DE                     u3421:
  1188   0023DE  EFFB  F011         	goto	l2728
  1189   0023E2                     u3420:
  1190   0023E2                     l2724:
  1191                           
  1192                           ; BSR set to: 0
  1193   0023E2  0E00               	movlw	0
  1194   0023E4  6F9A               	movwf	?___fltol& (0+255),b
  1195   0023E6  0E00               	movlw	0
  1196   0023E8  6F9B               	movwf	(?___fltol+1)& (0+255),b
  1197   0023EA  0E00               	movlw	0
  1198   0023EC  6F9C               	movwf	(?___fltol+2)& (0+255),b
  1199   0023EE  0E00               	movlw	0
  1200   0023F0  6F9D               	movwf	(?___fltol+3)& (0+255),b
  1201   0023F2  EF68  F012         	goto	l416
  1202   0023F6                     l2728:
  1203                           
  1204                           ; BSR set to: 0
  1205   0023F6  C09A  F09E         	movff	___fltol@f1,??___fltol
  1206   0023FA  C09B  F09F         	movff	___fltol@f1+1,??___fltol+1
  1207   0023FE  C09C  F0A0         	movff	___fltol@f1+2,??___fltol+2
  1208   002402  C09D  F0A1         	movff	___fltol@f1+3,??___fltol+3
  1209   002406  0E20               	movlw	32
  1210   002408  EF0B  F012         	goto	u3430
  1211   00240C                     u3435:
  1212   00240C  90D8               	bcf	status,0,c
  1213   00240E  33A1               	rrcf	(??___fltol+3)& (0+255),f,b
  1214   002410  33A0               	rrcf	(??___fltol+2)& (0+255),f,b
  1215   002412  339F               	rrcf	(??___fltol+1)& (0+255),f,b
  1216   002414  339E               	rrcf	??___fltol& (0+255),f,b
  1217   002416                     u3430:
  1218   002416  2EE8               	decfsz	wreg,f,c
  1219   002418  EF06  F012         	goto	u3435
  1220   00241C  519E               	movf	??___fltol& (0+255),w,b
  1221   00241E  6FA2               	movwf	___fltol@sign1& (0+255),b
  1222   002420                     
  1223                           ; BSR set to: 0
  1224   002420  8F9C               	bsf	(___fltol@f1+2)& (0+255),7,b
  1225   002422                     
  1226                           ; BSR set to: 0
  1227   002422  0EFF               	movlw	255
  1228   002424  179A               	andwf	___fltol@f1& (0+255),f,b
  1229   002426  0EFF               	movlw	255
  1230   002428  179B               	andwf	(___fltol@f1+1)& (0+255),f,b
  1231   00242A  0EFF               	movlw	255
  1232   00242C  179C               	andwf	(___fltol@f1+2)& (0+255),f,b
  1233   00242E  0E00               	movlw	0
  1234   002430  179D               	andwf	(___fltol@f1+3)& (0+255),f,b
  1235   002432                     
  1236                           ; BSR set to: 0
  1237   002432  0E96               	movlw	150
  1238   002434  5FA3               	subwf	___fltol@exp1& (0+255),f,b
  1239   002436                     
  1240                           ; BSR set to: 0
  1241   002436  BFA3               	btfsc	___fltol@exp1& (0+255),7,b
  1242   002438  EF22  F012         	goto	u3440
  1243   00243C  EF20  F012         	goto	u3441
  1244   002440                     u3441:
  1245   002440  EF38  F012         	goto	l2748
  1246   002444                     u3440:
  1247   002444                     
  1248                           ; BSR set to: 0
  1249   002444  51A3               	movf	___fltol@exp1& (0+255),w,b
  1250   002446  0A80               	xorlw	128
  1251   002448  0F97               	addlw	151
  1252   00244A  B0D8               	btfsc	status,0,c
  1253   00244C  EF2A  F012         	goto	u3451
  1254   002450  EF2C  F012         	goto	u3450
  1255   002454                     u3451:
  1256   002454  EF2E  F012         	goto	l2744
  1257   002458                     u3450:
  1258   002458  EFF1  F011         	goto	l2724
  1259   00245C                     l2744:
  1260                           
  1261                           ; BSR set to: 0
  1262   00245C  90D8               	bcf	status,0,c
  1263   00245E  339D               	rrcf	(___fltol@f1+3)& (0+255),f,b
  1264   002460  339C               	rrcf	(___fltol@f1+2)& (0+255),f,b
  1265   002462  339B               	rrcf	(___fltol@f1+1)& (0+255),f,b
  1266   002464  339A               	rrcf	___fltol@f1& (0+255),f,b
  1267   002466                     
  1268                           ; BSR set to: 0
  1269   002466  3FA3               	incfsz	___fltol@exp1& (0+255),f,b
  1270   002468  EF2E  F012         	goto	l2744
  1271   00246C  EF50  F012         	goto	l2758
  1272   002470                     l2748:
  1273                           
  1274                           ; BSR set to: 0
  1275   002470  0E1F               	movlw	31
  1276   002472  65A3               	cpfsgt	___fltol@exp1& (0+255),b
  1277   002474  EF3E  F012         	goto	u3461
  1278   002478  EF40  F012         	goto	u3460
  1279   00247C                     u3461:
  1280   00247C  EF48  F012         	goto	l2756
  1281   002480                     u3460:
  1282   002480  EFF1  F011         	goto	l2724
  1283   002484                     l2754:
  1284                           
  1285                           ; BSR set to: 0
  1286   002484  90D8               	bcf	status,0,c
  1287   002486  379A               	rlcf	___fltol@f1& (0+255),f,b
  1288   002488  379B               	rlcf	(___fltol@f1+1)& (0+255),f,b
  1289   00248A  379C               	rlcf	(___fltol@f1+2)& (0+255),f,b
  1290   00248C  379D               	rlcf	(___fltol@f1+3)& (0+255),f,b
  1291   00248E  07A3               	decf	___fltol@exp1& (0+255),f,b
  1292   002490                     l2756:
  1293                           
  1294                           ; BSR set to: 0
  1295   002490  51A3               	movf	___fltol@exp1& (0+255),w,b
  1296   002492  A4D8               	btfss	status,2,c
  1297   002494  EF4E  F012         	goto	u3471
  1298   002498  EF50  F012         	goto	u3470
  1299   00249C                     u3471:
  1300   00249C  EF42  F012         	goto	l2754
  1301   0024A0                     u3470:
  1302   0024A0                     l2758:
  1303                           
  1304                           ; BSR set to: 0
  1305   0024A0  51A2               	movf	___fltol@sign1& (0+255),w,b
  1306   0024A2  B4D8               	btfsc	status,2,c
  1307   0024A4  EF56  F012         	goto	u3481
  1308   0024A8  EF58  F012         	goto	u3480
  1309   0024AC                     u3481:
  1310   0024AC  EF60  F012         	goto	l2762
  1311   0024B0                     u3480:
  1312   0024B0                     
  1313                           ; BSR set to: 0
  1314   0024B0  1F9D               	comf	(___fltol@f1+3)& (0+255),f,b
  1315   0024B2  1F9C               	comf	(___fltol@f1+2)& (0+255),f,b
  1316   0024B4  1F9B               	comf	(___fltol@f1+1)& (0+255),f,b
  1317   0024B6  6D9A               	negf	___fltol@f1& (0+255),b
  1318   0024B8  0E00               	movlw	0
  1319   0024BA  239B               	addwfc	(___fltol@f1+1)& (0+255),f,b
  1320   0024BC  239C               	addwfc	(___fltol@f1+2)& (0+255),f,b
  1321   0024BE  239D               	addwfc	(___fltol@f1+3)& (0+255),f,b
  1322   0024C0                     l2762:
  1323                           
  1324                           ; BSR set to: 0
  1325   0024C0  C09A  F09A         	movff	___fltol@f1,?___fltol
  1326   0024C4  C09B  F09B         	movff	___fltol@f1+1,?___fltol+1
  1327   0024C8  C09C  F09C         	movff	___fltol@f1+2,?___fltol+2
  1328   0024CC  C09D  F09D         	movff	___fltol@f1+3,?___fltol+3
  1329   0024D0                     l416:
  1330                           
  1331                           ; BSR set to: 0
  1332   0024D0  0012               	return		;funcret
  1333   0024D2                     __end_of___fltol:
  1334                           	callstack 0
  1335                           
  1336 ;; *************** function ___flsub *****************
  1337 ;; Defined at:
  1338 ;;		line 245 in file "C:\Program Files\Microchip\xc8\v2.40\pic\sources\c99\common\sprcadd.c"
  1339 ;; Parameters:    Size  Location     Type
  1340 ;;  b               4   50[BANK0 ] long 
  1341 ;;  a               4   54[BANK0 ] long 
  1342 ;; Auto vars:     Size  Location     Type
  1343 ;;		None
  1344 ;; Return value:  Size  Location     Type
  1345 ;;                  4   50[BANK0 ] long 
  1346 ;; Registers used:
  1347 ;;		wreg, status,2, status,0, cstack
  1348 ;; Tracked objects:
  1349 ;;		On entry : 0/0
  1350 ;;		On exit  : 0/0
  1351 ;;		Unchanged: 0/0
  1352 ;; Data sizes:     COMRAM   BANK0   BANK1   BANK2   BANK3   BANK4   BANK5   BANK6   BANK7
  1353 ;;      Params:         0       8       0       0       0       0       0       0       0
  1354 ;;      Locals:         0       0       0       0       0       0       0       0       0
  1355 ;;      Temps:          0       0       0       0       0       0       0       0       0
  1356 ;;      Totals:         0       8       0       0       0       0       0       0       0
  1357 ;;Total ram usage:        8 bytes
  1358 ;; Hardware stack levels used: 1
  1359 ;; Hardware stack levels required when called: 4
  1360 ;; This function calls:
  1361 ;;		___fladd
  1362 ;; This function is called by:
  1363 ;;		_main
  1364 ;; This function uses a non-reentrant model
  1365 ;;
  1366                           
  1367                           	psect	text3
  1368   0025D8                     __ptext3:
  1369                           	callstack 0
  1370   0025D8                     ___flsub:
  1371                           	callstack 26
  1372   0025D8  0E00               	movlw	0
  1373   0025DA  0100               	movlb	0	; () banked
  1374   0025DC  1B96               	xorwf	___flsub@a& (0+255),f,b
  1375   0025DE  0E00               	movlw	0
  1376   0025E0  1B97               	xorwf	(___flsub@a+1)& (0+255),f,b
  1377   0025E2  0E00               	movlw	0
  1378   0025E4  1B98               	xorwf	(___flsub@a+2)& (0+255),f,b
  1379   0025E6  0E80               	movlw	128
  1380   0025E8  1B99               	xorwf	(___flsub@a+3)& (0+255),f,b
  1381   0025EA                     
  1382                           ; BSR set to: 0
  1383   0025EA  C092  F060         	movff	___flsub@b,___fladd@b
  1384   0025EE  C093  F061         	movff	___flsub@b+1,___fladd@b+1
  1385   0025F2  C094  F062         	movff	___flsub@b+2,___fladd@b+2
  1386   0025F6  C095  F063         	movff	___flsub@b+3,___fladd@b+3
  1387   0025FA  C096  F064         	movff	___flsub@a,___fladd@a
  1388   0025FE  C097  F065         	movff	___flsub@a+1,___fladd@a+1
  1389   002602  C098  F066         	movff	___flsub@a+2,___fladd@a+2
  1390   002606  C099  F067         	movff	___flsub@a+3,___fladd@a+3
  1391   00260A  ECA2  F002         	call	___fladd	;wreg free
  1392   00260E  C060  F092         	movff	?___fladd,?___flsub
  1393   002612  C061  F093         	movff	?___fladd+1,?___flsub+1
  1394   002616  C062  F094         	movff	?___fladd+2,?___flsub+2
  1395   00261A  C063  F095         	movff	?___fladd+3,?___flsub+3
  1396   00261E  0012               	return		;funcret
  1397   002620                     __end_of___flsub:
  1398                           	callstack 0
  1399                           
  1400 ;; *************** function ___fladd *****************
  1401 ;; Defined at:
  1402 ;;		line 10 in file "C:\Program Files\Microchip\xc8\v2.40\pic\sources\c99\common\sprcadd.c"
  1403 ;; Parameters:    Size  Location     Type
  1404 ;;  b               4    0[BANK0 ] long 
  1405 ;;  a               4    4[BANK0 ] long 
  1406 ;; Auto vars:     Size  Location     Type
  1407 ;;  grs             1   15[BANK0 ] unsigned char 
  1408 ;;  bexp            1   14[BANK0 ] unsigned char 
  1409 ;;  aexp            1   13[BANK0 ] unsigned char 
  1410 ;;  signs           1   12[BANK0 ] unsigned char 
  1411 ;; Return value:  Size  Location     Type
  1412 ;;                  4    0[BANK0 ] unsigned char 
  1413 ;; Registers used:
  1414 ;;		wreg, status,2, status,0
  1415 ;; Tracked objects:
  1416 ;;		On entry : 0/0
  1417 ;;		On exit  : 0/0
  1418 ;;		Unchanged: 0/0
  1419 ;; Data sizes:     COMRAM   BANK0   BANK1   BANK2   BANK3   BANK4   BANK5   BANK6   BANK7
  1420 ;;      Params:         0       8       0       0       0       0       0       0       0
  1421 ;;      Locals:         0       4       0       0       0       0       0       0       0
  1422 ;;      Temps:          0       4       0       0       0       0       0       0       0
  1423 ;;      Totals:         0      16       0       0       0       0       0       0       0
  1424 ;;Total ram usage:       16 bytes
  1425 ;; Hardware stack levels used: 1
  1426 ;; Hardware stack levels required when called: 3
  1427 ;; This function calls:
  1428 ;;		Nothing
  1429 ;; This function is called by:
  1430 ;;		___flsub
  1431 ;; This function uses a non-reentrant model
  1432 ;;
  1433                           
  1434                           	psect	text4
  1435   000544                     __ptext4:
  1436                           	callstack 0
  1437   000544                     ___fladd:
  1438                           	callstack 26
  1439   000544  0100               	movlb	0	; () banked
  1440   000546  5163               	movf	(___fladd@b+3)& (0+255),w,b
  1441   000548  0B80               	andlw	128
  1442   00054A  6F6C               	movwf	___fladd@signs& (0+255),b
  1443   00054C  5163               	movf	(___fladd@b+3)& (0+255),w,b
  1444   00054E  2563               	addwf	(___fladd@b+3)& (0+255),w,b
  1445   000550  6F6E               	movwf	___fladd@bexp& (0+255),b
  1446   000552                     
  1447                           ; BSR set to: 0
  1448   000552  AF62               	btfss	(___fladd@b+2)& (0+255),7,b
  1449   000554  EFAE  F002         	goto	u2221
  1450   000558  EFB0  F002         	goto	u2220
  1451   00055C                     u2221:
  1452   00055C  EFB1  F002         	goto	l2050
  1453   000560                     u2220:
  1454   000560                     
  1455                           ; BSR set to: 0
  1456   000560  816E               	bsf	___fladd@bexp& (0+255),0,b
  1457   000562                     l2050:
  1458                           
  1459                           ; BSR set to: 0
  1460   000562  516E               	movf	___fladd@bexp& (0+255),w,b
  1461   000564  B4D8               	btfsc	status,2,c
  1462   000566  EFB7  F002         	goto	u2231
  1463   00056A  EFB9  F002         	goto	u2230
  1464   00056E                     u2231:
  1465   00056E  EFCE  F002         	goto	l2060
  1466   000572                     u2230:
  1467   000572                     
  1468                           ; BSR set to: 0
  1469   000572  296E               	incf	___fladd@bexp& (0+255),w,b
  1470   000574  A4D8               	btfss	status,2,c
  1471   000576  EFBF  F002         	goto	u2241
  1472   00057A  EFC1  F002         	goto	u2240
  1473   00057E                     u2241:
  1474   00057E  EFC9  F002         	goto	l2056
  1475   000582                     u2240:
  1476   000582                     
  1477                           ; BSR set to: 0
  1478   000582  0E00               	movlw	0
  1479   000584  6F60               	movwf	___fladd@b& (0+255),b
  1480   000586  0E00               	movlw	0
  1481   000588  6F61               	movwf	(___fladd@b+1)& (0+255),b
  1482   00058A  0E00               	movlw	0
  1483   00058C  6F62               	movwf	(___fladd@b+2)& (0+255),b
  1484   00058E  0E00               	movlw	0
  1485   000590  6F63               	movwf	(___fladd@b+3)& (0+255),b
  1486   000592                     l2056:
  1487                           
  1488                           ; BSR set to: 0
  1489   000592  8F62               	bsf	(___fladd@b+2)& (0+255),7,b
  1490   000594                     
  1491                           ; BSR set to: 0
  1492   000594  0E00               	movlw	0
  1493   000596  6F63               	movwf	(___fladd@b+3)& (0+255),b
  1494   000598  EFD6  F002         	goto	l2062
  1495   00059C                     l2060:
  1496                           
  1497                           ; BSR set to: 0
  1498   00059C  0E00               	movlw	0
  1499   00059E  6F60               	movwf	___fladd@b& (0+255),b
  1500   0005A0  0E00               	movlw	0
  1501   0005A2  6F61               	movwf	(___fladd@b+1)& (0+255),b
  1502   0005A4  0E00               	movlw	0
  1503   0005A6  6F62               	movwf	(___fladd@b+2)& (0+255),b
  1504   0005A8  0E00               	movlw	0
  1505   0005AA  6F63               	movwf	(___fladd@b+3)& (0+255),b
  1506   0005AC                     l2062:
  1507                           
  1508                           ; BSR set to: 0
  1509   0005AC  5167               	movf	(___fladd@a+3)& (0+255),w,b
  1510   0005AE  0B80               	andlw	128
  1511   0005B0  6F6D               	movwf	___fladd@aexp& (0+255),b
  1512   0005B2                     
  1513                           ; BSR set to: 0
  1514   0005B2  516C               	movf	___fladd@signs& (0+255),w,b
  1515   0005B4  196D               	xorwf	___fladd@aexp& (0+255),w,b
  1516   0005B6  B4D8               	btfsc	status,2,c
  1517   0005B8  EFE0  F002         	goto	u2251
  1518   0005BC  EFE2  F002         	goto	u2250
  1519   0005C0                     u2251:
  1520   0005C0  EFE3  F002         	goto	l2068
  1521   0005C4                     u2250:
  1522   0005C4                     
  1523                           ; BSR set to: 0
  1524   0005C4  8D6C               	bsf	___fladd@signs& (0+255),6,b
  1525   0005C6                     l2068:
  1526                           
  1527                           ; BSR set to: 0
  1528   0005C6  5167               	movf	(___fladd@a+3)& (0+255),w,b
  1529   0005C8  2567               	addwf	(___fladd@a+3)& (0+255),w,b
  1530   0005CA  6F6D               	movwf	___fladd@aexp& (0+255),b
  1531   0005CC                     
  1532                           ; BSR set to: 0
  1533   0005CC  AF66               	btfss	(___fladd@a+2)& (0+255),7,b
  1534   0005CE  EFEB  F002         	goto	u2261
  1535   0005D2  EFED  F002         	goto	u2260
  1536   0005D6                     u2261:
  1537   0005D6  EFEE  F002         	goto	l2074
  1538   0005DA                     u2260:
  1539   0005DA                     
  1540                           ; BSR set to: 0
  1541   0005DA  816D               	bsf	___fladd@aexp& (0+255),0,b
  1542   0005DC                     l2074:
  1543                           
  1544                           ; BSR set to: 0
  1545   0005DC  516D               	movf	___fladd@aexp& (0+255),w,b
  1546   0005DE  B4D8               	btfsc	status,2,c
  1547   0005E0  EFF4  F002         	goto	u2271
  1548   0005E4  EFF6  F002         	goto	u2270
  1549   0005E8                     u2271:
  1550   0005E8  EF0B  F003         	goto	l2084
  1551   0005EC                     u2270:
  1552   0005EC                     
  1553                           ; BSR set to: 0
  1554   0005EC  296D               	incf	___fladd@aexp& (0+255),w,b
  1555   0005EE  A4D8               	btfss	status,2,c
  1556   0005F0  EFFC  F002         	goto	u2281
  1557   0005F4  EFFE  F002         	goto	u2280
  1558   0005F8                     u2281:
  1559   0005F8  EF06  F003         	goto	l2080
  1560   0005FC                     u2280:
  1561   0005FC                     
  1562                           ; BSR set to: 0
  1563   0005FC  0E00               	movlw	0
  1564   0005FE  6F64               	movwf	___fladd@a& (0+255),b
  1565   000600  0E00               	movlw	0
  1566   000602  6F65               	movwf	(___fladd@a+1)& (0+255),b
  1567   000604  0E00               	movlw	0
  1568   000606  6F66               	movwf	(___fladd@a+2)& (0+255),b
  1569   000608  0E00               	movlw	0
  1570   00060A  6F67               	movwf	(___fladd@a+3)& (0+255),b
  1571   00060C                     l2080:
  1572                           
  1573                           ; BSR set to: 0
  1574   00060C  8F66               	bsf	(___fladd@a+2)& (0+255),7,b
  1575   00060E                     
  1576                           ; BSR set to: 0
  1577   00060E  0E00               	movlw	0
  1578   000610  6F67               	movwf	(___fladd@a+3)& (0+255),b
  1579   000612  EF13  F003         	goto	l2086
  1580   000616                     l2084:
  1581                           
  1582                           ; BSR set to: 0
  1583   000616  0E00               	movlw	0
  1584   000618  6F64               	movwf	___fladd@a& (0+255),b
  1585   00061A  0E00               	movlw	0
  1586   00061C  6F65               	movwf	(___fladd@a+1)& (0+255),b
  1587   00061E  0E00               	movlw	0
  1588   000620  6F66               	movwf	(___fladd@a+2)& (0+255),b
  1589   000622  0E00               	movlw	0
  1590   000624  6F67               	movwf	(___fladd@a+3)& (0+255),b
  1591   000626                     l2086:
  1592                           
  1593                           ; BSR set to: 0
  1594   000626  516E               	movf	___fladd@bexp& (0+255),w,b
  1595   000628  5D6D               	subwf	___fladd@aexp& (0+255),w,b
  1596   00062A  B0D8               	btfsc	status,0,c
  1597   00062C  EF1A  F003         	goto	u2291
  1598   000630  EF1C  F003         	goto	u2290
  1599   000634                     u2291:
  1600   000634  EF43  F003         	goto	l2122
  1601   000638                     u2290:
  1602   000638                     
  1603                           ; BSR set to: 0
  1604   000638  AD6C               	btfss	___fladd@signs& (0+255),6,b
  1605   00063A  EF21  F003         	goto	u2301
  1606   00063E  EF23  F003         	goto	u2300
  1607   000642                     u2301:
  1608   000642  EF25  F003         	goto	l2092
  1609   000646                     u2300:
  1610   000646                     
  1611                           ; BSR set to: 0
  1612   000646  0E80               	movlw	128
  1613   000648  1B6C               	xorwf	___fladd@signs& (0+255),f,b
  1614   00064A                     l2092:
  1615                           
  1616                           ; BSR set to: 0
  1617   00064A  C06E  F06F         	movff	___fladd@bexp,___fladd@grs
  1618   00064E                     
  1619                           ; BSR set to: 0
  1620   00064E  C06D  F06E         	movff	___fladd@aexp,___fladd@bexp
  1621   000652                     
  1622                           ; BSR set to: 0
  1623   000652  C06F  F06D         	movff	___fladd@grs,___fladd@aexp
  1624   000656                     
  1625                           ; BSR set to: 0
  1626   000656  C060  F06F         	movff	___fladd@b,___fladd@grs
  1627   00065A                     
  1628                           ; BSR set to: 0
  1629   00065A  C064  F060         	movff	___fladd@a,___fladd@b
  1630   00065E                     
  1631                           ; BSR set to: 0
  1632   00065E  C06F  F064         	movff	___fladd@grs,___fladd@a
  1633   000662                     
  1634                           ; BSR set to: 0
  1635   000662  C061  F06F         	movff	___fladd@b+1,___fladd@grs
  1636   000666                     
  1637                           ; BSR set to: 0
  1638   000666  C065  F061         	movff	___fladd@a+1,___fladd@b+1
  1639   00066A                     
  1640                           ; BSR set to: 0
  1641   00066A  C06F  F065         	movff	___fladd@grs,___fladd@a+1
  1642   00066E                     
  1643                           ; BSR set to: 0
  1644   00066E  C062  F06F         	movff	___fladd@b+2,___fladd@grs
  1645   000672                     
  1646                           ; BSR set to: 0
  1647   000672  C066  F062         	movff	___fladd@a+2,___fladd@b+2
  1648   000676                     
  1649                           ; BSR set to: 0
  1650   000676  C06F  F066         	movff	___fladd@grs,___fladd@a+2
  1651   00067A                     
  1652                           ; BSR set to: 0
  1653   00067A  C063  F06F         	movff	___fladd@b+3,___fladd@grs
  1654   00067E                     
  1655                           ; BSR set to: 0
  1656   00067E  C067  F063         	movff	___fladd@a+3,___fladd@b+3
  1657   000682                     
  1658                           ; BSR set to: 0
  1659   000682  C06F  F067         	movff	___fladd@grs,___fladd@a+3
  1660   000686                     l2122:
  1661                           
  1662                           ; BSR set to: 0
  1663   000686  0E00               	movlw	0
  1664   000688  6F6F               	movwf	___fladd@grs& (0+255),b
  1665   00068A                     
  1666                           ; BSR set to: 0
  1667   00068A  516E               	movf	___fladd@bexp& (0+255),w,b
  1668   00068C  C06D  F068         	movff	___fladd@aexp,??___fladd
  1669   000690  6B69               	clrf	(??___fladd+1)& (0+255),b
  1670   000692  5F68               	subwf	??___fladd& (0+255),f,b
  1671   000694  0E00               	movlw	0
  1672   000696  5B69               	subwfb	(??___fladd+1)& (0+255),f,b
  1673   000698  BF69               	btfsc	(??___fladd+1)& (0+255),7,b
  1674   00069A  EF58  F003         	goto	u2311
  1675   00069E  5169               	movf	(??___fladd+1)& (0+255),w,b
  1676   0006A0  E109               	bnz	u2310
  1677   0006A2  0E1A               	movlw	26
  1678   0006A4  5D68               	subwf	??___fladd& (0+255),w,b
  1679   0006A6  A0D8               	btfss	status,0,c
  1680   0006A8  EF58  F003         	goto	u2311
  1681   0006AC  EF5A  F003         	goto	u2310
  1682   0006B0                     u2311:
  1683   0006B0  EF91  F003         	goto	l648
  1684   0006B4                     u2310:
  1685   0006B4                     
  1686                           ; BSR set to: 0
  1687   0006B4  5160               	movf	___fladd@b& (0+255),w,b
  1688   0006B6  1161               	iorwf	(___fladd@b+1)& (0+255),w,b
  1689   0006B8  1162               	iorwf	(___fladd@b+2)& (0+255),w,b
  1690   0006BA  1163               	iorwf	(___fladd@b+3)& (0+255),w,b
  1691   0006BC  A4D8               	btfss	status,2,c
  1692   0006BE  EF63  F003         	goto	u2321
  1693   0006C2  EF66  F003         	goto	u2320
  1694   0006C6                     u2321:
  1695   0006C6  0E01               	movlw	1
  1696   0006C8  EF67  F003         	goto	u2330
  1697   0006CC                     u2320:
  1698   0006CC  0E00               	movlw	0
  1699   0006CE                     u2330:
  1700   0006CE  6F6F               	movwf	___fladd@grs& (0+255),b
  1701   0006D0                     
  1702                           ; BSR set to: 0
  1703   0006D0  0E00               	movlw	0
  1704   0006D2  6F60               	movwf	___fladd@b& (0+255),b
  1705   0006D4  0E00               	movlw	0
  1706   0006D6  6F61               	movwf	(___fladd@b+1)& (0+255),b
  1707   0006D8  0E00               	movlw	0
  1708   0006DA  6F62               	movwf	(___fladd@b+2)& (0+255),b
  1709   0006DC  0E00               	movlw	0
  1710   0006DE  6F63               	movwf	(___fladd@b+3)& (0+255),b
  1711   0006E0                     
  1712                           ; BSR set to: 0
  1713   0006E0  C06D  F06E         	movff	___fladd@aexp,___fladd@bexp
  1714   0006E4  EF9A  F003         	goto	l647
  1715   0006E8                     l649:
  1716                           
  1717                           ; BSR set to: 0
  1718   0006E8  A16F               	btfss	___fladd@grs& (0+255),0,b
  1719   0006EA  EF79  F003         	goto	u2341
  1720   0006EE  EF7B  F003         	goto	u2340
  1721   0006F2                     u2341:
  1722   0006F2  EF81  F003         	goto	l2134
  1723   0006F6                     u2340:
  1724   0006F6                     
  1725                           ; BSR set to: 0
  1726   0006F6  90D8               	bcf	status,0,c
  1727   0006F8  316F               	rrcf	___fladd@grs& (0+255),w,b
  1728   0006FA  0901               	iorlw	1
  1729   0006FC  6F6F               	movwf	___fladd@grs& (0+255),b
  1730   0006FE  EF83  F003         	goto	l2136
  1731   000702                     l2134:
  1732                           
  1733                           ; BSR set to: 0
  1734   000702  90D8               	bcf	status,0,c
  1735   000704  336F               	rrcf	___fladd@grs& (0+255),f,b
  1736   000706                     l2136:
  1737                           
  1738                           ; BSR set to: 0
  1739   000706  A160               	btfss	___fladd@b& (0+255),0,b
  1740   000708  EF88  F003         	goto	u2351
  1741   00070C  EF8A  F003         	goto	u2350
  1742   000710                     u2351:
  1743   000710  EF8B  F003         	goto	l2140
  1744   000714                     u2350:
  1745   000714                     
  1746                           ; BSR set to: 0
  1747   000714  8F6F               	bsf	___fladd@grs& (0+255),7,b
  1748   000716                     l2140:
  1749                           
  1750                           ; BSR set to: 0
  1751   000716  3563               	rlcf	(___fladd@b+3)& (0+255),w,b
  1752   000718  3363               	rrcf	(___fladd@b+3)& (0+255),f,b
  1753   00071A  3362               	rrcf	(___fladd@b+2)& (0+255),f,b
  1754   00071C  3361               	rrcf	(___fladd@b+1)& (0+255),f,b
  1755   00071E  3360               	rrcf	___fladd@b& (0+255),f,b
  1756   000720                     
  1757                           ; BSR set to: 0
  1758   000720  2B6E               	incf	___fladd@bexp& (0+255),f,b
  1759   000722                     l648:
  1760                           
  1761                           ; BSR set to: 0
  1762   000722  516D               	movf	___fladd@aexp& (0+255),w,b
  1763   000724  5D6E               	subwf	___fladd@bexp& (0+255),w,b
  1764   000726  A0D8               	btfss	status,0,c
  1765   000728  EF98  F003         	goto	u2361
  1766   00072C  EF9A  F003         	goto	u2360
  1767   000730                     u2361:
  1768   000730  EF74  F003         	goto	l649
  1769   000734                     u2360:
  1770   000734                     l647:
  1771                           
  1772                           ; BSR set to: 0
  1773   000734  BD6C               	btfsc	___fladd@signs& (0+255),6,b
  1774   000736  EF9F  F003         	goto	u2371
  1775   00073A  EFA1  F003         	goto	u2370
  1776   00073E                     u2371:
  1777   00073E  EFE1  F003         	goto	l2168
  1778   000742                     u2370:
  1779   000742                     
  1780                           ; BSR set to: 0
  1781   000742  516E               	movf	___fladd@bexp& (0+255),w,b
  1782   000744  A4D8               	btfss	status,2,c
  1783   000746  EFA7  F003         	goto	u2381
  1784   00074A  EFA9  F003         	goto	u2380
  1785   00074E                     u2381:
  1786   00074E  EFB3  F003         	goto	l2150
  1787   000752                     u2380:
  1788   000752                     
  1789                           ; BSR set to: 0
  1790   000752  0E00               	movlw	0
  1791   000754  6F60               	movwf	?___fladd& (0+255),b
  1792   000756  0E00               	movlw	0
  1793   000758  6F61               	movwf	(?___fladd+1)& (0+255),b
  1794   00075A  0E00               	movlw	0
  1795   00075C  6F62               	movwf	(?___fladd+2)& (0+255),b
  1796   00075E  0E00               	movlw	0
  1797   000760  6F63               	movwf	(?___fladd+3)& (0+255),b
  1798   000762  EF02  F005         	goto	l656
  1799   000766                     l2150:
  1800                           
  1801                           ; BSR set to: 0
  1802   000766  5164               	movf	___fladd@a& (0+255),w,b
  1803   000768  2760               	addwf	___fladd@b& (0+255),f,b
  1804   00076A  5165               	movf	(___fladd@a+1)& (0+255),w,b
  1805   00076C  2361               	addwfc	(___fladd@b+1)& (0+255),f,b
  1806   00076E  5166               	movf	(___fladd@a+2)& (0+255),w,b
  1807   000770  2362               	addwfc	(___fladd@b+2)& (0+255),f,b
  1808   000772  5167               	movf	(___fladd@a+3)& (0+255),w,b
  1809   000774  2363               	addwfc	(___fladd@b+3)& (0+255),f,b
  1810   000776                     
  1811                           ; BSR set to: 0
  1812   000776  A163               	btfss	(___fladd@b+3)& (0+255),0,b
  1813   000778  EFC0  F003         	goto	u2391
  1814   00077C  EFC2  F003         	goto	u2390
  1815   000780                     u2391:
  1816   000780  EF6E  F004         	goto	l2204
  1817   000784                     u2390:
  1818   000784                     
  1819                           ; BSR set to: 0
  1820   000784  A16F               	btfss	___fladd@grs& (0+255),0,b
  1821   000786  EFC7  F003         	goto	u2401
  1822   00078A  EFC9  F003         	goto	u2400
  1823   00078E                     u2401:
  1824   00078E  EFCF  F003         	goto	l2158
  1825   000792                     u2400:
  1826   000792                     
  1827                           ; BSR set to: 0
  1828   000792  90D8               	bcf	status,0,c
  1829   000794  316F               	rrcf	___fladd@grs& (0+255),w,b
  1830   000796  0901               	iorlw	1
  1831   000798  6F6F               	movwf	___fladd@grs& (0+255),b
  1832   00079A  EFD1  F003         	goto	l2160
  1833   00079E                     l2158:
  1834                           
  1835                           ; BSR set to: 0
  1836   00079E  90D8               	bcf	status,0,c
  1837   0007A0  336F               	rrcf	___fladd@grs& (0+255),f,b
  1838   0007A2                     l2160:
  1839                           
  1840                           ; BSR set to: 0
  1841   0007A2  A160               	btfss	___fladd@b& (0+255),0,b
  1842   0007A4  EFD6  F003         	goto	u2411
  1843   0007A8  EFD8  F003         	goto	u2410
  1844   0007AC                     u2411:
  1845   0007AC  EFD9  F003         	goto	l2164
  1846   0007B0                     u2410:
  1847   0007B0                     
  1848                           ; BSR set to: 0
  1849   0007B0  8F6F               	bsf	___fladd@grs& (0+255),7,b
  1850   0007B2                     l2164:
  1851                           
  1852                           ; BSR set to: 0
  1853   0007B2  3563               	rlcf	(___fladd@b+3)& (0+255),w,b
  1854   0007B4  3363               	rrcf	(___fladd@b+3)& (0+255),f,b
  1855   0007B6  3362               	rrcf	(___fladd@b+2)& (0+255),f,b
  1856   0007B8  3361               	rrcf	(___fladd@b+1)& (0+255),f,b
  1857   0007BA  3360               	rrcf	___fladd@b& (0+255),f,b
  1858   0007BC                     
  1859                           ; BSR set to: 0
  1860   0007BC  2B6E               	incf	___fladd@bexp& (0+255),f,b
  1861   0007BE  EF6E  F004         	goto	l2204
  1862   0007C2                     l2168:
  1863                           
  1864                           ; BSR set to: 0
  1865   0007C2  5164               	movf	___fladd@a& (0+255),w,b
  1866   0007C4  5D60               	subwf	___fladd@b& (0+255),w,b
  1867   0007C6  5165               	movf	(___fladd@a+1)& (0+255),w,b
  1868   0007C8  5961               	subwfb	(___fladd@b+1)& (0+255),w,b
  1869   0007CA  5166               	movf	(___fladd@a+2)& (0+255),w,b
  1870   0007CC  5962               	subwfb	(___fladd@b+2)& (0+255),w,b
  1871   0007CE  5163               	movf	(___fladd@b+3)& (0+255),w,b
  1872   0007D0  0A80               	xorlw	128
  1873   0007D2  6F68               	movwf	??___fladd& (0+255),b
  1874   0007D4  5167               	movf	(___fladd@a+3)& (0+255),w,b
  1875   0007D6  0A80               	xorlw	128
  1876   0007D8  5968               	subwfb	??___fladd& (0+255),w,b
  1877   0007DA  B0D8               	btfsc	status,0,c
  1878   0007DC  EFF2  F003         	goto	u2421
  1879   0007E0  EFF4  F003         	goto	u2420
  1880   0007E4                     u2421:
  1881   0007E4  EF1F  F004         	goto	l2178
  1882   0007E8                     u2420:
  1883   0007E8                     
  1884                           ; BSR set to: 0
  1885   0007E8  5160               	movf	___fladd@b& (0+255),w,b
  1886   0007EA  5D64               	subwf	___fladd@a& (0+255),w,b
  1887   0007EC  6F68               	movwf	??___fladd& (0+255),b
  1888   0007EE  5161               	movf	(___fladd@b+1)& (0+255),w,b
  1889   0007F0  5965               	subwfb	(___fladd@a+1)& (0+255),w,b
  1890   0007F2  6F69               	movwf	(??___fladd+1)& (0+255),b
  1891   0007F4  5162               	movf	(___fladd@b+2)& (0+255),w,b
  1892   0007F6  5966               	subwfb	(___fladd@a+2)& (0+255),w,b
  1893   0007F8  6F6A               	movwf	(??___fladd+2)& (0+255),b
  1894   0007FA  5163               	movf	(___fladd@b+3)& (0+255),w,b
  1895   0007FC  5967               	subwfb	(___fladd@a+3)& (0+255),w,b
  1896   0007FE  6F6B               	movwf	(??___fladd+3)& (0+255),b
  1897   000800  0EFF               	movlw	255
  1898   000802  2568               	addwf	??___fladd& (0+255),w,b
  1899   000804  6F60               	movwf	___fladd@b& (0+255),b
  1900   000806  0EFF               	movlw	255
  1901   000808  2169               	addwfc	(??___fladd+1)& (0+255),w,b
  1902   00080A  6F61               	movwf	(___fladd@b+1)& (0+255),b
  1903   00080C  0EFF               	movlw	255
  1904   00080E  216A               	addwfc	(??___fladd+2)& (0+255),w,b
  1905   000810  6F62               	movwf	(___fladd@b+2)& (0+255),b
  1906   000812  0EFF               	movlw	255
  1907   000814  216B               	addwfc	(??___fladd+3)& (0+255),w,b
  1908   000816  6F63               	movwf	(___fladd@b+3)& (0+255),b
  1909   000818  0E80               	movlw	128
  1910   00081A  1B6C               	xorwf	___fladd@signs& (0+255),f,b
  1911   00081C                     
  1912                           ; BSR set to: 0
  1913   00081C  6D6F               	negf	___fladd@grs& (0+255),b
  1914   00081E                     
  1915                           ; BSR set to: 0
  1916   00081E  516F               	movf	___fladd@grs& (0+255),w,b
  1917   000820  A4D8               	btfss	status,2,c
  1918   000822  EF15  F004         	goto	u2431
  1919   000826  EF17  F004         	goto	u2430
  1920   00082A                     u2431:
  1921   00082A  EF27  F004         	goto	l664
  1922   00082E                     u2430:
  1923   00082E                     
  1924                           ; BSR set to: 0
  1925   00082E  0E01               	movlw	1
  1926   000830  2760               	addwf	___fladd@b& (0+255),f,b
  1927   000832  0E00               	movlw	0
  1928   000834  2361               	addwfc	(___fladd@b+1)& (0+255),f,b
  1929   000836  2362               	addwfc	(___fladd@b+2)& (0+255),f,b
  1930   000838  2363               	addwfc	(___fladd@b+3)& (0+255),f,b
  1931   00083A  EF27  F004         	goto	l664
  1932   00083E                     l2178:
  1933                           
  1934                           ; BSR set to: 0
  1935   00083E  5164               	movf	___fladd@a& (0+255),w,b
  1936   000840  5F60               	subwf	___fladd@b& (0+255),f,b
  1937   000842  5165               	movf	(___fladd@a+1)& (0+255),w,b
  1938   000844  5B61               	subwfb	(___fladd@b+1)& (0+255),f,b
  1939   000846  5166               	movf	(___fladd@a+2)& (0+255),w,b
  1940   000848  5B62               	subwfb	(___fladd@b+2)& (0+255),f,b
  1941   00084A  5167               	movf	(___fladd@a+3)& (0+255),w,b
  1942   00084C  5B63               	subwfb	(___fladd@b+3)& (0+255),f,b
  1943   00084E                     l664:
  1944                           
  1945                           ; BSR set to: 0
  1946   00084E  5160               	movf	___fladd@b& (0+255),w,b
  1947   000850  1161               	iorwf	(___fladd@b+1)& (0+255),w,b
  1948   000852  1162               	iorwf	(___fladd@b+2)& (0+255),w,b
  1949   000854  1163               	iorwf	(___fladd@b+3)& (0+255),w,b
  1950   000856  A4D8               	btfss	status,2,c
  1951   000858  EF30  F004         	goto	u2441
  1952   00085C  EF32  F004         	goto	u2440
  1953   000860                     u2441:
  1954   000860  EF67  F004         	goto	l2202
  1955   000864                     u2440:
  1956   000864                     
  1957                           ; BSR set to: 0
  1958   000864  516F               	movf	___fladd@grs& (0+255),w,b
  1959   000866  A4D8               	btfss	status,2,c
  1960   000868  EF38  F004         	goto	u2451
  1961   00086C  EF3A  F004         	goto	u2450
  1962   000870                     u2451:
  1963   000870  EF67  F004         	goto	l2202
  1964   000874                     u2450:
  1965   000874                     
  1966                           ; BSR set to: 0
  1967   000874  0E00               	movlw	0
  1968   000876  6F60               	movwf	?___fladd& (0+255),b
  1969   000878  0E00               	movlw	0
  1970   00087A  6F61               	movwf	(?___fladd+1)& (0+255),b
  1971   00087C  0E00               	movlw	0
  1972   00087E  6F62               	movwf	(?___fladd+2)& (0+255),b
  1973   000880  0E00               	movlw	0
  1974   000882  6F63               	movwf	(?___fladd+3)& (0+255),b
  1975   000884  EF02  F005         	goto	l656
  1976   000888                     l2186:
  1977                           
  1978                           ; BSR set to: 0
  1979   000888  90D8               	bcf	status,0,c
  1980   00088A  3760               	rlcf	___fladd@b& (0+255),f,b
  1981   00088C  3761               	rlcf	(___fladd@b+1)& (0+255),f,b
  1982   00088E  3762               	rlcf	(___fladd@b+2)& (0+255),f,b
  1983   000890  3763               	rlcf	(___fladd@b+3)& (0+255),f,b
  1984   000892                     
  1985                           ; BSR set to: 0
  1986   000892  AF6F               	btfss	___fladd@grs& (0+255),7,b
  1987   000894  EF4E  F004         	goto	u2461
  1988   000898  EF50  F004         	goto	u2460
  1989   00089C                     u2461:
  1990   00089C  EF51  F004         	goto	l2192
  1991   0008A0                     u2460:
  1992   0008A0                     
  1993                           ; BSR set to: 0
  1994   0008A0  8160               	bsf	___fladd@b& (0+255),0,b
  1995   0008A2                     l2192:
  1996                           
  1997                           ; BSR set to: 0
  1998   0008A2  A16F               	btfss	___fladd@grs& (0+255),0,b
  1999   0008A4  EF56  F004         	goto	u2471
  2000   0008A8  EF58  F004         	goto	u2470
  2001   0008AC                     u2471:
  2002   0008AC  EF5C  F004         	goto	l2196
  2003   0008B0                     u2470:
  2004   0008B0                     
  2005                           ; BSR set to: 0
  2006   0008B0  80D8               	bsf	status,0,c
  2007   0008B2  376F               	rlcf	___fladd@grs& (0+255),f,b
  2008   0008B4  EF5E  F004         	goto	l2198
  2009   0008B8                     l2196:
  2010                           
  2011                           ; BSR set to: 0
  2012   0008B8  90D8               	bcf	status,0,c
  2013   0008BA  376F               	rlcf	___fladd@grs& (0+255),f,b
  2014   0008BC                     l2198:
  2015                           
  2016                           ; BSR set to: 0
  2017   0008BC  516E               	movf	___fladd@bexp& (0+255),w,b
  2018   0008BE  B4D8               	btfsc	status,2,c
  2019   0008C0  EF64  F004         	goto	u2481
  2020   0008C4  EF66  F004         	goto	u2480
  2021   0008C8                     u2481:
  2022   0008C8  EF67  F004         	goto	l2202
  2023   0008CC                     u2480:
  2024   0008CC                     
  2025                           ; BSR set to: 0
  2026   0008CC  076E               	decf	___fladd@bexp& (0+255),f,b
  2027   0008CE                     l2202:
  2028                           
  2029                           ; BSR set to: 0
  2030   0008CE  AF62               	btfss	(___fladd@b+2)& (0+255),7,b
  2031   0008D0  EF6C  F004         	goto	u2491
  2032   0008D4  EF6E  F004         	goto	u2490
  2033   0008D8                     u2491:
  2034   0008D8  EF44  F004         	goto	l2186
  2035   0008DC                     u2490:
  2036   0008DC                     l2204:
  2037                           
  2038                           ; BSR set to: 0
  2039   0008DC  0E00               	movlw	0
  2040   0008DE  6F6D               	movwf	___fladd@aexp& (0+255),b
  2041   0008E0                     
  2042                           ; BSR set to: 0
  2043   0008E0  AF6F               	btfss	___fladd@grs& (0+255),7,b
  2044   0008E2  EF75  F004         	goto	u2501
  2045   0008E6  EF77  F004         	goto	u2500
  2046   0008EA                     u2501:
  2047   0008EA  EF8F  F004         	goto	l673
  2048   0008EE                     u2500:
  2049   0008EE                     
  2050                           ; BSR set to: 0
  2051   0008EE  C06F  F068         	movff	___fladd@grs,??___fladd
  2052   0008F2  0E7F               	movlw	127
  2053   0008F4  1768               	andwf	??___fladd& (0+255),f,b
  2054   0008F6  B4D8               	btfsc	status,2,c
  2055   0008F8  EF80  F004         	goto	u2511
  2056   0008FC  EF82  F004         	goto	u2510
  2057   000900                     u2511:
  2058   000900  EF86  F004         	goto	l674
  2059   000904                     u2510:
  2060   000904                     l2210:
  2061                           
  2062                           ; BSR set to: 0
  2063   000904  0E01               	movlw	1
  2064   000906  6F6D               	movwf	___fladd@aexp& (0+255),b
  2065   000908  EF8F  F004         	goto	l673
  2066   00090C                     l674:
  2067                           
  2068                           ; BSR set to: 0
  2069   00090C  A160               	btfss	___fladd@b& (0+255),0,b
  2070   00090E  EF8B  F004         	goto	u2521
  2071   000912  EF8D  F004         	goto	u2520
  2072   000916                     u2521:
  2073   000916  EF8F  F004         	goto	l673
  2074   00091A                     u2520:
  2075   00091A  EF82  F004         	goto	l2210
  2076   00091E                     l673:
  2077                           
  2078                           ; BSR set to: 0
  2079   00091E  516D               	movf	___fladd@aexp& (0+255),w,b
  2080   000920  B4D8               	btfsc	status,2,c
  2081   000922  EF95  F004         	goto	u2531
  2082   000926  EF97  F004         	goto	u2530
  2083   00092A                     u2531:
  2084   00092A  EFC2  F004         	goto	l2222
  2085   00092E                     u2530:
  2086   00092E                     
  2087                           ; BSR set to: 0
  2088   00092E  0E01               	movlw	1
  2089   000930  2760               	addwf	___fladd@b& (0+255),f,b
  2090   000932  0E00               	movlw	0
  2091   000934  2361               	addwfc	(___fladd@b+1)& (0+255),f,b
  2092   000936  2362               	addwfc	(___fladd@b+2)& (0+255),f,b
  2093   000938  2363               	addwfc	(___fladd@b+3)& (0+255),f,b
  2094   00093A                     
  2095                           ; BSR set to: 0
  2096   00093A  A163               	btfss	(___fladd@b+3)& (0+255),0,b
  2097   00093C  EFA2  F004         	goto	u2541
  2098   000940  EFA4  F004         	goto	u2540
  2099   000944                     u2541:
  2100   000944  EFC2  F004         	goto	l2222
  2101   000948                     u2540:
  2102   000948                     
  2103                           ; BSR set to: 0
  2104   000948  C060  F068         	movff	___fladd@b,??___fladd
  2105   00094C  C061  F069         	movff	___fladd@b+1,??___fladd+1
  2106   000950  C062  F06A         	movff	___fladd@b+2,??___fladd+2
  2107   000954  C063  F06B         	movff	___fladd@b+3,??___fladd+3
  2108   000958  356B               	rlcf	(??___fladd+3)& (0+255),w,b
  2109   00095A  336B               	rrcf	(??___fladd+3)& (0+255),f,b
  2110   00095C  336A               	rrcf	(??___fladd+2)& (0+255),f,b
  2111   00095E  3369               	rrcf	(??___fladd+1)& (0+255),f,b
  2112   000960  3368               	rrcf	??___fladd& (0+255),f,b
  2113   000962  C068  F060         	movff	??___fladd,___fladd@b
  2114   000966  C069  F061         	movff	??___fladd+1,___fladd@b+1
  2115   00096A  C06A  F062         	movff	??___fladd+2,___fladd@b+2
  2116   00096E  C06B  F063         	movff	??___fladd+3,___fladd@b+3
  2117   000972  296E               	incf	___fladd@bexp& (0+255),w,b
  2118   000974  B4D8               	btfsc	status,2,c
  2119   000976  EFBF  F004         	goto	u2551
  2120   00097A  EFC1  F004         	goto	u2550
  2121   00097E                     u2551:
  2122   00097E  EFC2  F004         	goto	l2222
  2123   000982                     u2550:
  2124   000982                     
  2125                           ; BSR set to: 0
  2126   000982  2B6E               	incf	___fladd@bexp& (0+255),f,b
  2127   000984                     l2222:
  2128                           
  2129                           ; BSR set to: 0
  2130   000984  296E               	incf	___fladd@bexp& (0+255),w,b
  2131   000986  B4D8               	btfsc	status,2,c
  2132   000988  EFC8  F004         	goto	u2561
  2133   00098C  EFCA  F004         	goto	u2560
  2134   000990                     u2561:
  2135   000990  EFD2  F004         	goto	l2226
  2136   000994                     u2560:
  2137   000994                     
  2138                           ; BSR set to: 0
  2139   000994  516E               	movf	___fladd@bexp& (0+255),w,b
  2140   000996  A4D8               	btfss	status,2,c
  2141   000998  EFD0  F004         	goto	u2571
  2142   00099C  EFD2  F004         	goto	u2570
  2143   0009A0                     u2571:
  2144   0009A0  EFE4  F004         	goto	l2230
  2145   0009A4                     u2570:
  2146   0009A4                     l2226:
  2147                           
  2148                           ; BSR set to: 0
  2149   0009A4  0E00               	movlw	0
  2150   0009A6  6F60               	movwf	___fladd@b& (0+255),b
  2151   0009A8  0E00               	movlw	0
  2152   0009AA  6F61               	movwf	(___fladd@b+1)& (0+255),b
  2153   0009AC  0E00               	movlw	0
  2154   0009AE  6F62               	movwf	(___fladd@b+2)& (0+255),b
  2155   0009B0  0E00               	movlw	0
  2156   0009B2  6F63               	movwf	(___fladd@b+3)& (0+255),b
  2157   0009B4  516E               	movf	___fladd@bexp& (0+255),w,b
  2158   0009B6  A4D8               	btfss	status,2,c
  2159   0009B8  EFE0  F004         	goto	u2581
  2160   0009BC  EFE2  F004         	goto	u2580
  2161   0009C0                     u2581:
  2162   0009C0  EFE4  F004         	goto	l2230
  2163   0009C4                     u2580:
  2164   0009C4                     
  2165                           ; BSR set to: 0
  2166   0009C4  0E00               	movlw	0
  2167   0009C6  6F6C               	movwf	___fladd@signs& (0+255),b
  2168   0009C8                     l2230:
  2169                           
  2170                           ; BSR set to: 0
  2171   0009C8  A16E               	btfss	___fladd@bexp& (0+255),0,b
  2172   0009CA  EFE9  F004         	goto	u2591
  2173   0009CE  EFEB  F004         	goto	u2590
  2174   0009D2                     u2591:
  2175   0009D2  EFEE  F004         	goto	l2234
  2176   0009D6                     u2590:
  2177   0009D6                     
  2178                           ; BSR set to: 0
  2179   0009D6  8F62               	bsf	(___fladd@b+2)& (0+255),7,b
  2180   0009D8  EFEF  F004         	goto	l2236
  2181   0009DC                     l2234:
  2182                           
  2183                           ; BSR set to: 0
  2184   0009DC  9F62               	bcf	(___fladd@b+2)& (0+255),7,b
  2185   0009DE                     l2236:
  2186                           
  2187                           ; BSR set to: 0
  2188   0009DE  90D8               	bcf	status,0,c
  2189   0009E0  316E               	rrcf	___fladd@bexp& (0+255),w,b
  2190   0009E2  6F63               	movwf	(___fladd@b+3)& (0+255),b
  2191   0009E4                     
  2192                           ; BSR set to: 0
  2193   0009E4  AF6C               	btfss	___fladd@signs& (0+255),7,b
  2194   0009E6  EFF7  F004         	goto	u2601
  2195   0009EA  EFF9  F004         	goto	u2600
  2196   0009EE                     u2601:
  2197   0009EE  EFFA  F004         	goto	l2242
  2198   0009F2                     u2600:
  2199   0009F2                     
  2200                           ; BSR set to: 0
  2201   0009F2  8F63               	bsf	(___fladd@b+3)& (0+255),7,b
  2202   0009F4                     l2242:
  2203                           
  2204                           ; BSR set to: 0
  2205   0009F4  C060  F060         	movff	___fladd@b,?___fladd
  2206   0009F8  C061  F061         	movff	___fladd@b+1,?___fladd+1
  2207   0009FC  C062  F062         	movff	___fladd@b+2,?___fladd+2
  2208   000A00  C063  F063         	movff	___fladd@b+3,?___fladd+3
  2209   000A04                     l656:
  2210                           
  2211                           ; BSR set to: 0
  2212   000A04  0012               	return		;funcret
  2213   000A06                     __end_of___fladd:
  2214                           	callstack 0
  2215                           
  2216 ;; *************** function ___flmul *****************
  2217 ;; Defined at:
  2218 ;;		line 8 in file "C:\Program Files\Microchip\xc8\v2.40\pic\sources\c99\common\sprcmul.c"
  2219 ;; Parameters:    Size  Location     Type
  2220 ;;  b               4    0[BANK0 ] unsigned char 
  2221 ;;  a               4    4[BANK0 ] unsigned char 
  2222 ;; Auto vars:     Size  Location     Type
  2223 ;;  prod            4   19[BANK0 ] struct .
  2224 ;;  grs             4   13[BANK0 ] unsigned long 
  2225 ;;  temp            2   23[BANK0 ] struct .
  2226 ;;  bexp            1   18[BANK0 ] unsigned char 
  2227 ;;  aexp            1   17[BANK0 ] unsigned char 
  2228 ;;  sign            1   12[BANK0 ] unsigned char 
  2229 ;; Return value:  Size  Location     Type
  2230 ;;                  4    0[BANK0 ] unsigned char 
  2231 ;; Registers used:
  2232 ;;		wreg, status,2, status,0, prodl, prodh
  2233 ;; Tracked objects:
  2234 ;;		On entry : 0/0
  2235 ;;		On exit  : 0/0
  2236 ;;		Unchanged: 0/0
  2237 ;; Data sizes:     COMRAM   BANK0   BANK1   BANK2   BANK3   BANK4   BANK5   BANK6   BANK7
  2238 ;;      Params:         0       8       0       0       0       0       0       0       0
  2239 ;;      Locals:         0      13       0       0       0       0       0       0       0
  2240 ;;      Temps:          0       4       0       0       0       0       0       0       0
  2241 ;;      Totals:         0      25       0       0       0       0       0       0       0
  2242 ;;Total ram usage:       25 bytes
  2243 ;; Hardware stack levels used: 1
  2244 ;; Hardware stack levels required when called: 3
  2245 ;; This function calls:
  2246 ;;		Nothing
  2247 ;; This function is called by:
  2248 ;;		_main
  2249 ;; This function uses a non-reentrant model
  2250 ;;
  2251                           
  2252                           	psect	text5
  2253   000EC6                     __ptext5:
  2254                           	callstack 0
  2255   000EC6                     ___flmul:
  2256                           	callstack 27
  2257   000EC6  0100               	movlb	0	; () banked
  2258   000EC8  5163               	movf	(___flmul@b+3)& (0+255),w,b
  2259   000ECA  0B80               	andlw	128
  2260   000ECC  6F6C               	movwf	___flmul@sign& (0+255),b
  2261   000ECE  5163               	movf	(___flmul@b+3)& (0+255),w,b
  2262   000ED0  2563               	addwf	(___flmul@b+3)& (0+255),w,b
  2263   000ED2  6F72               	movwf	___flmul@bexp& (0+255),b
  2264   000ED4                     
  2265                           ; BSR set to: 0
  2266   000ED4  AF62               	btfss	(___flmul@b+2)& (0+255),7,b
  2267   000ED6  EF6F  F007         	goto	u3231
  2268   000EDA  EF71  F007         	goto	u3230
  2269   000EDE                     u3231:
  2270   000EDE  EF72  F007         	goto	l2592
  2271   000EE2                     u3230:
  2272   000EE2                     
  2273                           ; BSR set to: 0
  2274   000EE2  8172               	bsf	___flmul@bexp& (0+255),0,b
  2275   000EE4                     l2592:
  2276                           
  2277                           ; BSR set to: 0
  2278   000EE4  5172               	movf	___flmul@bexp& (0+255),w,b
  2279   000EE6  B4D8               	btfsc	status,2,c
  2280   000EE8  EF78  F007         	goto	u3241
  2281   000EEC  EF7A  F007         	goto	u3240
  2282   000EF0                     u3241:
  2283   000EF0  EF8D  F007         	goto	l2600
  2284   000EF4                     u3240:
  2285   000EF4                     
  2286                           ; BSR set to: 0
  2287   000EF4  2972               	incf	___flmul@bexp& (0+255),w,b
  2288   000EF6  A4D8               	btfss	status,2,c
  2289   000EF8  EF80  F007         	goto	u3251
  2290   000EFC  EF82  F007         	goto	u3250
  2291   000F00                     u3251:
  2292   000F00  EF8A  F007         	goto	l2598
  2293   000F04                     u3250:
  2294   000F04                     
  2295                           ; BSR set to: 0
  2296   000F04  0E00               	movlw	0
  2297   000F06  6F60               	movwf	___flmul@b& (0+255),b
  2298   000F08  0E00               	movlw	0
  2299   000F0A  6F61               	movwf	(___flmul@b+1)& (0+255),b
  2300   000F0C  0E00               	movlw	0
  2301   000F0E  6F62               	movwf	(___flmul@b+2)& (0+255),b
  2302   000F10  0E00               	movlw	0
  2303   000F12  6F63               	movwf	(___flmul@b+3)& (0+255),b
  2304   000F14                     l2598:
  2305                           
  2306                           ; BSR set to: 0
  2307   000F14  8F62               	bsf	(___flmul@b+2)& (0+255),7,b
  2308   000F16  EF95  F007         	goto	l2602
  2309   000F1A                     l2600:
  2310                           
  2311                           ; BSR set to: 0
  2312   000F1A  0E00               	movlw	0
  2313   000F1C  6F60               	movwf	___flmul@b& (0+255),b
  2314   000F1E  0E00               	movlw	0
  2315   000F20  6F61               	movwf	(___flmul@b+1)& (0+255),b
  2316   000F22  0E00               	movlw	0
  2317   000F24  6F62               	movwf	(___flmul@b+2)& (0+255),b
  2318   000F26  0E00               	movlw	0
  2319   000F28  6F63               	movwf	(___flmul@b+3)& (0+255),b
  2320   000F2A                     l2602:
  2321                           
  2322                           ; BSR set to: 0
  2323   000F2A  5167               	movf	(___flmul@a+3)& (0+255),w,b
  2324   000F2C  0B80               	andlw	128
  2325   000F2E  1B6C               	xorwf	___flmul@sign& (0+255),f,b
  2326   000F30                     
  2327                           ; BSR set to: 0
  2328   000F30  5167               	movf	(___flmul@a+3)& (0+255),w,b
  2329   000F32  2567               	addwf	(___flmul@a+3)& (0+255),w,b
  2330   000F34  6F71               	movwf	___flmul@aexp& (0+255),b
  2331   000F36                     
  2332                           ; BSR set to: 0
  2333   000F36  AF66               	btfss	(___flmul@a+2)& (0+255),7,b
  2334   000F38  EFA0  F007         	goto	u3261
  2335   000F3C  EFA2  F007         	goto	u3260
  2336   000F40                     u3261:
  2337   000F40  EFA3  F007         	goto	l2610
  2338   000F44                     u3260:
  2339   000F44                     
  2340                           ; BSR set to: 0
  2341   000F44  8171               	bsf	___flmul@aexp& (0+255),0,b
  2342   000F46                     l2610:
  2343                           
  2344                           ; BSR set to: 0
  2345   000F46  5171               	movf	___flmul@aexp& (0+255),w,b
  2346   000F48  B4D8               	btfsc	status,2,c
  2347   000F4A  EFA9  F007         	goto	u3271
  2348   000F4E  EFAB  F007         	goto	u3270
  2349   000F52                     u3271:
  2350   000F52  EFBE  F007         	goto	l2618
  2351   000F56                     u3270:
  2352   000F56                     
  2353                           ; BSR set to: 0
  2354   000F56  2971               	incf	___flmul@aexp& (0+255),w,b
  2355   000F58  A4D8               	btfss	status,2,c
  2356   000F5A  EFB1  F007         	goto	u3281
  2357   000F5E  EFB3  F007         	goto	u3280
  2358   000F62                     u3281:
  2359   000F62  EFBB  F007         	goto	l2616
  2360   000F66                     u3280:
  2361   000F66                     
  2362                           ; BSR set to: 0
  2363   000F66  0E00               	movlw	0
  2364   000F68  6F64               	movwf	___flmul@a& (0+255),b
  2365   000F6A  0E00               	movlw	0
  2366   000F6C  6F65               	movwf	(___flmul@a+1)& (0+255),b
  2367   000F6E  0E00               	movlw	0
  2368   000F70  6F66               	movwf	(___flmul@a+2)& (0+255),b
  2369   000F72  0E00               	movlw	0
  2370   000F74  6F67               	movwf	(___flmul@a+3)& (0+255),b
  2371   000F76                     l2616:
  2372                           
  2373                           ; BSR set to: 0
  2374   000F76  8F66               	bsf	(___flmul@a+2)& (0+255),7,b
  2375   000F78  EFC6  F007         	goto	l733
  2376   000F7C                     l2618:
  2377                           
  2378                           ; BSR set to: 0
  2379   000F7C  0E00               	movlw	0
  2380   000F7E  6F64               	movwf	___flmul@a& (0+255),b
  2381   000F80  0E00               	movlw	0
  2382   000F82  6F65               	movwf	(___flmul@a+1)& (0+255),b
  2383   000F84  0E00               	movlw	0
  2384   000F86  6F66               	movwf	(___flmul@a+2)& (0+255),b
  2385   000F88  0E00               	movlw	0
  2386   000F8A  6F67               	movwf	(___flmul@a+3)& (0+255),b
  2387   000F8C                     l733:
  2388                           
  2389                           ; BSR set to: 0
  2390   000F8C  5171               	movf	___flmul@aexp& (0+255),w,b
  2391   000F8E  B4D8               	btfsc	status,2,c
  2392   000F90  EFCC  F007         	goto	u3291
  2393   000F94  EFCE  F007         	goto	u3290
  2394   000F98                     u3291:
  2395   000F98  EFD6  F007         	goto	l2622
  2396   000F9C                     u3290:
  2397   000F9C                     
  2398                           ; BSR set to: 0
  2399   000F9C  5172               	movf	___flmul@bexp& (0+255),w,b
  2400   000F9E  A4D8               	btfss	status,2,c
  2401   000FA0  EFD4  F007         	goto	u3301
  2402   000FA4  EFD6  F007         	goto	u3300
  2403   000FA8                     u3301:
  2404   000FA8  EFE0  F007         	goto	l2626
  2405   000FAC                     u3300:
  2406   000FAC                     l2622:
  2407                           
  2408                           ; BSR set to: 0
  2409   000FAC  0E00               	movlw	0
  2410   000FAE  6F60               	movwf	?___flmul& (0+255),b
  2411   000FB0  0E00               	movlw	0
  2412   000FB2  6F61               	movwf	(?___flmul+1)& (0+255),b
  2413   000FB4  0E00               	movlw	0
  2414   000FB6  6F62               	movwf	(?___flmul+2)& (0+255),b
  2415   000FB8  0E00               	movlw	0
  2416   000FBA  6F63               	movwf	(?___flmul+3)& (0+255),b
  2417   000FBC  EF78  F009         	goto	l737
  2418   000FC0                     l2626:
  2419                           
  2420                           ; BSR set to: 0
  2421   000FC0  5166               	movf	(___flmul@a+2)& (0+255),w,b
  2422   000FC2  0360               	mulwf	___flmul@b& (0+255),b
  2423   000FC4  CFF3 F077          	movff	prodl,___flmul@temp
  2424   000FC8  CFF4 F078          	movff	prodh,___flmul@temp+1
  2425   000FCC                     
  2426                           ; BSR set to: 0
  2427   000FCC  5177               	movf	___flmul@temp& (0+255),w,b
  2428   000FCE  6F6D               	movwf	___flmul@grs& (0+255),b
  2429   000FD0  6B6E               	clrf	(___flmul@grs+1)& (0+255),b
  2430   000FD2  6B6F               	clrf	(___flmul@grs+2)& (0+255),b
  2431   000FD4  6B70               	clrf	(___flmul@grs+3)& (0+255),b
  2432   000FD6                     
  2433                           ; BSR set to: 0
  2434   000FD6  5178               	movf	(___flmul@temp+1)& (0+255),w,b
  2435   000FD8  6F73               	movwf	___flmul@prod& (0+255),b
  2436   000FDA  6B74               	clrf	(___flmul@prod+1)& (0+255),b
  2437   000FDC  6B75               	clrf	(___flmul@prod+2)& (0+255),b
  2438   000FDE  6B76               	clrf	(___flmul@prod+3)& (0+255),b
  2439   000FE0  5165               	movf	(___flmul@a+1)& (0+255),w,b
  2440   000FE2  0361               	mulwf	(___flmul@b+1)& (0+255),b
  2441   000FE4  CFF3 F077          	movff	prodl,___flmul@temp
  2442   000FE8  CFF4 F078          	movff	prodh,___flmul@temp+1
  2443   000FEC                     
  2444                           ; BSR set to: 0
  2445   000FEC  5177               	movf	___flmul@temp& (0+255),w,b
  2446   000FEE  276D               	addwf	___flmul@grs& (0+255),f,b
  2447   000FF0  0E00               	movlw	0
  2448   000FF2  236E               	addwfc	(___flmul@grs+1)& (0+255),f,b
  2449   000FF4  236F               	addwfc	(___flmul@grs+2)& (0+255),f,b
  2450   000FF6  2370               	addwfc	(___flmul@grs+3)& (0+255),f,b
  2451   000FF8                     
  2452                           ; BSR set to: 0
  2453   000FF8  5178               	movf	(___flmul@temp+1)& (0+255),w,b
  2454   000FFA  2773               	addwf	___flmul@prod& (0+255),f,b
  2455   000FFC  0E00               	movlw	0
  2456   000FFE  2374               	addwfc	(___flmul@prod+1)& (0+255),f,b
  2457   001000  2375               	addwfc	(___flmul@prod+2)& (0+255),f,b
  2458   001002  2376               	addwfc	(___flmul@prod+3)& (0+255),f,b
  2459   001004  5164               	movf	___flmul@a& (0+255),w,b
  2460   001006  0362               	mulwf	(___flmul@b+2)& (0+255),b
  2461   001008  CFF3 F077          	movff	prodl,___flmul@temp
  2462   00100C  CFF4 F078          	movff	prodh,___flmul@temp+1
  2463   001010                     
  2464                           ; BSR set to: 0
  2465   001010  5177               	movf	___flmul@temp& (0+255),w,b
  2466   001012  276D               	addwf	___flmul@grs& (0+255),f,b
  2467   001014  0E00               	movlw	0
  2468   001016  236E               	addwfc	(___flmul@grs+1)& (0+255),f,b
  2469   001018  236F               	addwfc	(___flmul@grs+2)& (0+255),f,b
  2470   00101A  2370               	addwfc	(___flmul@grs+3)& (0+255),f,b
  2471   00101C                     
  2472                           ; BSR set to: 0
  2473   00101C  5178               	movf	(___flmul@temp+1)& (0+255),w,b
  2474   00101E  2773               	addwf	___flmul@prod& (0+255),f,b
  2475   001020  0E00               	movlw	0
  2476   001022  2374               	addwfc	(___flmul@prod+1)& (0+255),f,b
  2477   001024  2375               	addwfc	(___flmul@prod+2)& (0+255),f,b
  2478   001026  2376               	addwfc	(___flmul@prod+3)& (0+255),f,b
  2479   001028                     
  2480                           ; BSR set to: 0
  2481   001028  C06F  F070         	movff	___flmul@grs+2,___flmul@grs+3
  2482   00102C  C06E  F06F         	movff	___flmul@grs+1,___flmul@grs+2
  2483   001030  C06D  F06E         	movff	___flmul@grs,___flmul@grs+1
  2484   001034  6B6D               	clrf	___flmul@grs& (0+255),b
  2485   001036                     
  2486                           ; BSR set to: 0
  2487   001036  5164               	movf	___flmul@a& (0+255),w,b
  2488   001038  0361               	mulwf	(___flmul@b+1)& (0+255),b
  2489   00103A  CFF3 F077          	movff	prodl,___flmul@temp
  2490   00103E  CFF4 F078          	movff	prodh,___flmul@temp+1
  2491   001042                     
  2492                           ; BSR set to: 0
  2493   001042  5177               	movf	___flmul@temp& (0+255),w,b
  2494   001044  276D               	addwf	___flmul@grs& (0+255),f,b
  2495   001046  5178               	movf	(___flmul@temp+1)& (0+255),w,b
  2496   001048  236E               	addwfc	(___flmul@grs+1)& (0+255),f,b
  2497   00104A  0E00               	movlw	0
  2498   00104C  236F               	addwfc	(___flmul@grs+2)& (0+255),f,b
  2499   00104E  0E00               	movlw	0
  2500   001050  2370               	addwfc	(___flmul@grs+3)& (0+255),f,b
  2501   001052                     
  2502                           ; BSR set to: 0
  2503   001052  5165               	movf	(___flmul@a+1)& (0+255),w,b
  2504   001054  0360               	mulwf	___flmul@b& (0+255),b
  2505   001056  CFF3 F077          	movff	prodl,___flmul@temp
  2506   00105A  CFF4 F078          	movff	prodh,___flmul@temp+1
  2507   00105E                     
  2508                           ; BSR set to: 0
  2509   00105E  5177               	movf	___flmul@temp& (0+255),w,b
  2510   001060  276D               	addwf	___flmul@grs& (0+255),f,b
  2511   001062  5178               	movf	(___flmul@temp+1)& (0+255),w,b
  2512   001064  236E               	addwfc	(___flmul@grs+1)& (0+255),f,b
  2513   001066  0E00               	movlw	0
  2514   001068  236F               	addwfc	(___flmul@grs+2)& (0+255),f,b
  2515   00106A  0E00               	movlw	0
  2516   00106C  2370               	addwfc	(___flmul@grs+3)& (0+255),f,b
  2517   00106E                     
  2518                           ; BSR set to: 0
  2519   00106E  C06F  F070         	movff	___flmul@grs+2,___flmul@grs+3
  2520   001072  C06E  F06F         	movff	___flmul@grs+1,___flmul@grs+2
  2521   001076  C06D  F06E         	movff	___flmul@grs,___flmul@grs+1
  2522   00107A  6B6D               	clrf	___flmul@grs& (0+255),b
  2523   00107C  5164               	movf	___flmul@a& (0+255),w,b
  2524   00107E  0360               	mulwf	___flmul@b& (0+255),b
  2525   001080  CFF3 F077          	movff	prodl,___flmul@temp
  2526   001084  CFF4 F078          	movff	prodh,___flmul@temp+1
  2527   001088                     
  2528                           ; BSR set to: 0
  2529   001088  5177               	movf	___flmul@temp& (0+255),w,b
  2530   00108A  276D               	addwf	___flmul@grs& (0+255),f,b
  2531   00108C  5178               	movf	(___flmul@temp+1)& (0+255),w,b
  2532   00108E  236E               	addwfc	(___flmul@grs+1)& (0+255),f,b
  2533   001090  0E00               	movlw	0
  2534   001092  236F               	addwfc	(___flmul@grs+2)& (0+255),f,b
  2535   001094  0E00               	movlw	0
  2536   001096  2370               	addwfc	(___flmul@grs+3)& (0+255),f,b
  2537   001098                     
  2538                           ; BSR set to: 0
  2539   001098  5166               	movf	(___flmul@a+2)& (0+255),w,b
  2540   00109A  0361               	mulwf	(___flmul@b+1)& (0+255),b
  2541   00109C  CFF3 F077          	movff	prodl,___flmul@temp
  2542   0010A0  CFF4 F078          	movff	prodh,___flmul@temp+1
  2543   0010A4  5177               	movf	___flmul@temp& (0+255),w,b
  2544   0010A6  2773               	addwf	___flmul@prod& (0+255),f,b
  2545   0010A8  5178               	movf	(___flmul@temp+1)& (0+255),w,b
  2546   0010AA  2374               	addwfc	(___flmul@prod+1)& (0+255),f,b
  2547   0010AC  0E00               	movlw	0
  2548   0010AE  2375               	addwfc	(___flmul@prod+2)& (0+255),f,b
  2549   0010B0  0E00               	movlw	0
  2550   0010B2  2376               	addwfc	(___flmul@prod+3)& (0+255),f,b
  2551   0010B4                     
  2552                           ; BSR set to: 0
  2553   0010B4  5165               	movf	(___flmul@a+1)& (0+255),w,b
  2554   0010B6  0362               	mulwf	(___flmul@b+2)& (0+255),b
  2555   0010B8  CFF3 F077          	movff	prodl,___flmul@temp
  2556   0010BC  CFF4 F078          	movff	prodh,___flmul@temp+1
  2557   0010C0                     
  2558                           ; BSR set to: 0
  2559   0010C0  5177               	movf	___flmul@temp& (0+255),w,b
  2560   0010C2  2773               	addwf	___flmul@prod& (0+255),f,b
  2561   0010C4  5178               	movf	(___flmul@temp+1)& (0+255),w,b
  2562   0010C6  2374               	addwfc	(___flmul@prod+1)& (0+255),f,b
  2563   0010C8  0E00               	movlw	0
  2564   0010CA  2375               	addwfc	(___flmul@prod+2)& (0+255),f,b
  2565   0010CC  0E00               	movlw	0
  2566   0010CE  2376               	addwfc	(___flmul@prod+3)& (0+255),f,b
  2567   0010D0  5166               	movf	(___flmul@a+2)& (0+255),w,b
  2568   0010D2  0362               	mulwf	(___flmul@b+2)& (0+255),b
  2569   0010D4  CFF3 F077          	movff	prodl,___flmul@temp
  2570   0010D8  CFF4 F078          	movff	prodh,___flmul@temp+1
  2571   0010DC                     
  2572                           ; BSR set to: 0
  2573   0010DC  5177               	movf	___flmul@temp& (0+255),w,b
  2574   0010DE  6F68               	movwf	??___flmul& (0+255),b
  2575   0010E0  5178               	movf	(___flmul@temp+1)& (0+255),w,b
  2576   0010E2  6F69               	movwf	(??___flmul+1)& (0+255),b
  2577   0010E4  6B6A               	clrf	(??___flmul+2)& (0+255),b
  2578   0010E6  6B6B               	clrf	(??___flmul+3)& (0+255),b
  2579   0010E8  C06A  F06B         	movff	??___flmul+2,??___flmul+3
  2580   0010EC  C069  F06A         	movff	??___flmul+1,??___flmul+2
  2581   0010F0  C068  F069         	movff	??___flmul,??___flmul+1
  2582   0010F4  6B68               	clrf	??___flmul& (0+255),b
  2583   0010F6  5168               	movf	??___flmul& (0+255),w,b
  2584   0010F8  2773               	addwf	___flmul@prod& (0+255),f,b
  2585   0010FA  5169               	movf	(??___flmul+1)& (0+255),w,b
  2586   0010FC  2374               	addwfc	(___flmul@prod+1)& (0+255),f,b
  2587   0010FE  516A               	movf	(??___flmul+2)& (0+255),w,b
  2588   001100  2375               	addwfc	(___flmul@prod+2)& (0+255),f,b
  2589   001102  516B               	movf	(??___flmul+3)& (0+255),w,b
  2590   001104  2376               	addwfc	(___flmul@prod+3)& (0+255),f,b
  2591   001106                     
  2592                           ; BSR set to: 0
  2593   001106  C06D  F068         	movff	___flmul@grs,??___flmul
  2594   00110A  C06E  F069         	movff	___flmul@grs+1,??___flmul+1
  2595   00110E  C06F  F06A         	movff	___flmul@grs+2,??___flmul+2
  2596   001112  C070  F06B         	movff	___flmul@grs+3,??___flmul+3
  2597   001116  0E19               	movlw	25
  2598   001118  EF93  F008         	goto	u3310
  2599   00111C                     u3315:
  2600   00111C  90D8               	bcf	status,0,c
  2601   00111E  336B               	rrcf	(??___flmul+3)& (0+255),f,b
  2602   001120  336A               	rrcf	(??___flmul+2)& (0+255),f,b
  2603   001122  3369               	rrcf	(??___flmul+1)& (0+255),f,b
  2604   001124  3368               	rrcf	??___flmul& (0+255),f,b
  2605   001126                     u3310:
  2606   001126  2EE8               	decfsz	wreg,f,c
  2607   001128  EF8E  F008         	goto	u3315
  2608   00112C  5168               	movf	??___flmul& (0+255),w,b
  2609   00112E  2773               	addwf	___flmul@prod& (0+255),f,b
  2610   001130  5169               	movf	(??___flmul+1)& (0+255),w,b
  2611   001132  2374               	addwfc	(___flmul@prod+1)& (0+255),f,b
  2612   001134  516A               	movf	(??___flmul+2)& (0+255),w,b
  2613   001136  2375               	addwfc	(___flmul@prod+2)& (0+255),f,b
  2614   001138  516B               	movf	(??___flmul+3)& (0+255),w,b
  2615   00113A  2376               	addwfc	(___flmul@prod+3)& (0+255),f,b
  2616   00113C                     
  2617                           ; BSR set to: 0
  2618   00113C  C06F  F070         	movff	___flmul@grs+2,___flmul@grs+3
  2619   001140  C06E  F06F         	movff	___flmul@grs+1,___flmul@grs+2
  2620   001144  C06D  F06E         	movff	___flmul@grs,___flmul@grs+1
  2621   001148  6B6D               	clrf	___flmul@grs& (0+255),b
  2622   00114A                     
  2623                           ; BSR set to: 0
  2624   00114A  5171               	movf	___flmul@aexp& (0+255),w,b
  2625   00114C  C072  F068         	movff	___flmul@bexp,??___flmul
  2626   001150  6B69               	clrf	(??___flmul+1)& (0+255),b
  2627   001152  2768               	addwf	??___flmul& (0+255),f,b
  2628   001154  0E00               	movlw	0
  2629   001156  2369               	addwfc	(??___flmul+1)& (0+255),f,b
  2630   001158  0E82               	movlw	130
  2631   00115A  2568               	addwf	??___flmul& (0+255),w,b
  2632   00115C  6F77               	movwf	___flmul@temp& (0+255),b
  2633   00115E  0EFF               	movlw	255
  2634   001160  2169               	addwfc	(??___flmul+1)& (0+255),w,b
  2635   001162  6F78               	movwf	(___flmul@temp+1)& (0+255),b
  2636   001164  EFC9  F008         	goto	l2674
  2637   001168                     l2668:
  2638                           
  2639                           ; BSR set to: 0
  2640   001168  90D8               	bcf	status,0,c
  2641   00116A  3773               	rlcf	___flmul@prod& (0+255),f,b
  2642   00116C  3774               	rlcf	(___flmul@prod+1)& (0+255),f,b
  2643   00116E  3775               	rlcf	(___flmul@prod+2)& (0+255),f,b
  2644   001170  3776               	rlcf	(___flmul@prod+3)& (0+255),f,b
  2645   001172                     
  2646                           ; BSR set to: 0
  2647   001172  AF70               	btfss	(___flmul@grs+3)& (0+255),7,b
  2648   001174  EFBE  F008         	goto	u3321
  2649   001178  EFC0  F008         	goto	u3320
  2650   00117C                     u3321:
  2651   00117C  EFC1  F008         	goto	l740
  2652   001180                     u3320:
  2653   001180                     
  2654                           ; BSR set to: 0
  2655   001180  8173               	bsf	___flmul@prod& (0+255),0,b
  2656   001182                     l740:
  2657                           
  2658                           ; BSR set to: 0
  2659   001182  90D8               	bcf	status,0,c
  2660   001184  376D               	rlcf	___flmul@grs& (0+255),f,b
  2661   001186  376E               	rlcf	(___flmul@grs+1)& (0+255),f,b
  2662   001188  376F               	rlcf	(___flmul@grs+2)& (0+255),f,b
  2663   00118A  3770               	rlcf	(___flmul@grs+3)& (0+255),f,b
  2664   00118C  0777               	decf	___flmul@temp& (0+255),f,b
  2665   00118E  A0D8               	btfss	status,0,c
  2666   001190  0778               	decf	(___flmul@temp+1)& (0+255),f,b
  2667   001192                     l2674:
  2668                           
  2669                           ; BSR set to: 0
  2670   001192  AF75               	btfss	(___flmul@prod+2)& (0+255),7,b
  2671   001194  EFCE  F008         	goto	u3331
  2672   001198  EFD0  F008         	goto	u3330
  2673   00119C                     u3331:
  2674   00119C  EFB4  F008         	goto	l2668
  2675   0011A0                     u3330:
  2676   0011A0                     
  2677                           ; BSR set to: 0
  2678   0011A0  0E00               	movlw	0
  2679   0011A2  6F71               	movwf	___flmul@aexp& (0+255),b
  2680   0011A4                     
  2681                           ; BSR set to: 0
  2682   0011A4  AF70               	btfss	(___flmul@grs+3)& (0+255),7,b
  2683   0011A6  EFD7  F008         	goto	u3341
  2684   0011AA  EFD9  F008         	goto	u3340
  2685   0011AE                     u3341:
  2686   0011AE  EFFD  F008         	goto	l742
  2687   0011B2                     u3340:
  2688   0011B2                     
  2689                           ; BSR set to: 0
  2690   0011B2  0EFF               	movlw	255
  2691   0011B4  156D               	andwf	___flmul@grs& (0+255),w,b
  2692   0011B6  6F68               	movwf	??___flmul& (0+255),b
  2693   0011B8  0EFF               	movlw	255
  2694   0011BA  156E               	andwf	(___flmul@grs+1)& (0+255),w,b
  2695   0011BC  6F69               	movwf	(??___flmul+1)& (0+255),b
  2696   0011BE  0EFF               	movlw	255
  2697   0011C0  156F               	andwf	(___flmul@grs+2)& (0+255),w,b
  2698   0011C2  6F6A               	movwf	(??___flmul+2)& (0+255),b
  2699   0011C4  0E7F               	movlw	127
  2700   0011C6  1570               	andwf	(___flmul@grs+3)& (0+255),w,b
  2701   0011C8  6F6B               	movwf	(??___flmul+3)& (0+255),b
  2702   0011CA  5168               	movf	??___flmul& (0+255),w,b
  2703   0011CC  1169               	iorwf	(??___flmul+1)& (0+255),w,b
  2704   0011CE  116A               	iorwf	(??___flmul+2)& (0+255),w,b
  2705   0011D0  116B               	iorwf	(??___flmul+3)& (0+255),w,b
  2706   0011D2  B4D8               	btfsc	status,2,c
  2707   0011D4  EFEE  F008         	goto	u3351
  2708   0011D8  EFF0  F008         	goto	u3350
  2709   0011DC                     u3351:
  2710   0011DC  EFF4  F008         	goto	l743
  2711   0011E0                     u3350:
  2712   0011E0                     l2682:
  2713                           
  2714                           ; BSR set to: 0
  2715   0011E0  0E01               	movlw	1
  2716   0011E2  6F71               	movwf	___flmul@aexp& (0+255),b
  2717   0011E4  EFFD  F008         	goto	l742
  2718   0011E8                     l743:
  2719                           
  2720                           ; BSR set to: 0
  2721   0011E8  A173               	btfss	___flmul@prod& (0+255),0,b
  2722   0011EA  EFF9  F008         	goto	u3361
  2723   0011EE  EFFB  F008         	goto	u3360
  2724   0011F2                     u3361:
  2725   0011F2  EFFD  F008         	goto	l742
  2726   0011F6                     u3360:
  2727   0011F6  EFF0  F008         	goto	l2682
  2728   0011FA                     l742:
  2729                           
  2730                           ; BSR set to: 0
  2731   0011FA  5171               	movf	___flmul@aexp& (0+255),w,b
  2732   0011FC  B4D8               	btfsc	status,2,c
  2733   0011FE  EF03  F009         	goto	u3371
  2734   001202  EF05  F009         	goto	u3370
  2735   001206                     u3371:
  2736   001206  EF29  F009         	goto	l2694
  2737   00120A                     u3370:
  2738   00120A                     
  2739                           ; BSR set to: 0
  2740   00120A  0E01               	movlw	1
  2741   00120C  2773               	addwf	___flmul@prod& (0+255),f,b
  2742   00120E  0E00               	movlw	0
  2743   001210  2374               	addwfc	(___flmul@prod+1)& (0+255),f,b
  2744   001212  2375               	addwfc	(___flmul@prod+2)& (0+255),f,b
  2745   001214  2376               	addwfc	(___flmul@prod+3)& (0+255),f,b
  2746   001216                     
  2747                           ; BSR set to: 0
  2748   001216  A176               	btfss	(___flmul@prod+3)& (0+255),0,b
  2749   001218  EF10  F009         	goto	u3381
  2750   00121C  EF12  F009         	goto	u3380
  2751   001220                     u3381:
  2752   001220  EF29  F009         	goto	l2694
  2753   001224                     u3380:
  2754   001224                     
  2755                           ; BSR set to: 0
  2756   001224  C073  F068         	movff	___flmul@prod,??___flmul
  2757   001228  C074  F069         	movff	___flmul@prod+1,??___flmul+1
  2758   00122C  C075  F06A         	movff	___flmul@prod+2,??___flmul+2
  2759   001230  C076  F06B         	movff	___flmul@prod+3,??___flmul+3
  2760   001234  356B               	rlcf	(??___flmul+3)& (0+255),w,b
  2761   001236  336B               	rrcf	(??___flmul+3)& (0+255),f,b
  2762   001238  336A               	rrcf	(??___flmul+2)& (0+255),f,b
  2763   00123A  3369               	rrcf	(??___flmul+1)& (0+255),f,b
  2764   00123C  3368               	rrcf	??___flmul& (0+255),f,b
  2765   00123E  C068  F073         	movff	??___flmul,___flmul@prod
  2766   001242  C069  F074         	movff	??___flmul+1,___flmul@prod+1
  2767   001246  C06A  F075         	movff	??___flmul+2,___flmul@prod+2
  2768   00124A  C06B  F076         	movff	??___flmul+3,___flmul@prod+3
  2769   00124E                     
  2770                           ; BSR set to: 0
  2771   00124E  4B77               	infsnz	___flmul@temp& (0+255),f,b
  2772   001250  2B78               	incf	(___flmul@temp+1)& (0+255),f,b
  2773   001252                     l2694:
  2774                           
  2775                           ; BSR set to: 0
  2776   001252  BF78               	btfsc	(___flmul@temp+1)& (0+255),7,b
  2777   001254  EF34  F009         	goto	u3391
  2778   001258  5178               	movf	(___flmul@temp+1)& (0+255),w,b
  2779   00125A  E108               	bnz	u3390
  2780   00125C  2977               	incf	___flmul@temp& (0+255),w,b
  2781   00125E  A0D8               	btfss	status,0,c
  2782   001260  EF34  F009         	goto	u3391
  2783   001264  EF36  F009         	goto	u3390
  2784   001268                     u3391:
  2785   001268  EF40  F009         	goto	l2698
  2786   00126C                     u3390:
  2787   00126C                     
  2788                           ; BSR set to: 0
  2789   00126C  0E00               	movlw	0
  2790   00126E  6F73               	movwf	___flmul@prod& (0+255),b
  2791   001270  0E00               	movlw	0
  2792   001272  6F74               	movwf	(___flmul@prod+1)& (0+255),b
  2793   001274  0E80               	movlw	128
  2794   001276  6F75               	movwf	(___flmul@prod+2)& (0+255),b
  2795   001278  0E7F               	movlw	127
  2796   00127A  6F76               	movwf	(___flmul@prod+3)& (0+255),b
  2797   00127C  EF6E  F009         	goto	l2710
  2798   001280                     l2698:
  2799                           
  2800                           ; BSR set to: 0
  2801   001280  BF78               	btfsc	(___flmul@temp+1)& (0+255),7,b
  2802   001282  EF4D  F009         	goto	u3400
  2803   001286  5178               	movf	(___flmul@temp+1)& (0+255),w,b
  2804   001288  E106               	bnz	u3401
  2805   00128A  0577               	decf	___flmul@temp& (0+255),w,b
  2806   00128C  B0D8               	btfsc	status,0,c
  2807   00128E  EF4B  F009         	goto	u3401
  2808   001292  EF4D  F009         	goto	u3400
  2809   001296                     u3401:
  2810   001296  EF59  F009         	goto	l750
  2811   00129A                     u3400:
  2812   00129A                     
  2813                           ; BSR set to: 0
  2814   00129A  0E00               	movlw	0
  2815   00129C  6F73               	movwf	___flmul@prod& (0+255),b
  2816   00129E  0E00               	movlw	0
  2817   0012A0  6F74               	movwf	(___flmul@prod+1)& (0+255),b
  2818   0012A2  0E00               	movlw	0
  2819   0012A4  6F75               	movwf	(___flmul@prod+2)& (0+255),b
  2820   0012A6  0E00               	movlw	0
  2821   0012A8  6F76               	movwf	(___flmul@prod+3)& (0+255),b
  2822   0012AA  0E00               	movlw	0
  2823   0012AC  6F6C               	movwf	___flmul@sign& (0+255),b
  2824   0012AE  EF6E  F009         	goto	l2710
  2825   0012B2                     l750:
  2826                           
  2827                           ; BSR set to: 0
  2828   0012B2  C077  F072         	movff	___flmul@temp,___flmul@bexp
  2829   0012B6                     
  2830                           ; BSR set to: 0
  2831   0012B6  0EFF               	movlw	255
  2832   0012B8  1773               	andwf	___flmul@prod& (0+255),f,b
  2833   0012BA  0EFF               	movlw	255
  2834   0012BC  1774               	andwf	(___flmul@prod+1)& (0+255),f,b
  2835   0012BE  0E7F               	movlw	127
  2836   0012C0  1775               	andwf	(___flmul@prod+2)& (0+255),f,b
  2837   0012C2  0E00               	movlw	0
  2838   0012C4  1776               	andwf	(___flmul@prod+3)& (0+255),f,b
  2839   0012C6                     
  2840                           ; BSR set to: 0
  2841   0012C6  A172               	btfss	___flmul@bexp& (0+255),0,b
  2842   0012C8  EF68  F009         	goto	u3411
  2843   0012CC  EF6A  F009         	goto	u3410
  2844   0012D0                     u3411:
  2845   0012D0  EF6B  F009         	goto	l2708
  2846   0012D4                     u3410:
  2847   0012D4                     
  2848                           ; BSR set to: 0
  2849   0012D4  8F75               	bsf	(___flmul@prod+2)& (0+255),7,b
  2850   0012D6                     l2708:
  2851                           
  2852                           ; BSR set to: 0
  2853   0012D6  90D8               	bcf	status,0,c
  2854   0012D8  3172               	rrcf	___flmul@bexp& (0+255),w,b
  2855   0012DA  6F76               	movwf	(___flmul@prod+3)& (0+255),b
  2856   0012DC                     l2710:
  2857                           
  2858                           ; BSR set to: 0
  2859   0012DC  516C               	movf	___flmul@sign& (0+255),w,b
  2860   0012DE  1376               	iorwf	(___flmul@prod+3)& (0+255),f,b
  2861   0012E0                     
  2862                           ; BSR set to: 0
  2863   0012E0  C073  F060         	movff	___flmul@prod,?___flmul
  2864   0012E4  C074  F061         	movff	___flmul@prod+1,?___flmul+1
  2865   0012E8  C075  F062         	movff	___flmul@prod+2,?___flmul+2
  2866   0012EC  C076  F063         	movff	___flmul@prod+3,?___flmul+3
  2867   0012F0                     l737:
  2868                           
  2869                           ; BSR set to: 0
  2870   0012F0  0012               	return		;funcret
  2871   0012F2                     __end_of___flmul:
  2872                           	callstack 0
  2873                           
  2874 ;; *************** function ___fldiv *****************
  2875 ;; Defined at:
  2876 ;;		line 11 in file "C:\Program Files\Microchip\xc8\v2.40\pic\sources\c99\common\sprcdiv.c"
  2877 ;; Parameters:    Size  Location     Type
  2878 ;;  b               4   25[BANK0 ] unsigned char 
  2879 ;;  a               4   29[BANK0 ] unsigned char 
  2880 ;; Auto vars:     Size  Location     Type
  2881 ;;  grs             4   44[BANK0 ] unsigned long 
  2882 ;;  rem             4   37[BANK0 ] unsigned long 
  2883 ;;  new_exp         2   42[BANK0 ] short 
  2884 ;;  aexp            1   49[BANK0 ] unsigned char 
  2885 ;;  bexp            1   48[BANK0 ] unsigned char 
  2886 ;;  sign            1   41[BANK0 ] unsigned char 
  2887 ;; Return value:  Size  Location     Type
  2888 ;;                  4   25[BANK0 ] unsigned char 
  2889 ;; Registers used:
  2890 ;;		wreg, status,2, status,0
  2891 ;; Tracked objects:
  2892 ;;		On entry : 0/0
  2893 ;;		On exit  : 0/0
  2894 ;;		Unchanged: 0/0
  2895 ;; Data sizes:     COMRAM   BANK0   BANK1   BANK2   BANK3   BANK4   BANK5   BANK6   BANK7
  2896 ;;      Params:         0       8       0       0       0       0       0       0       0
  2897 ;;      Locals:         0      13       0       0       0       0       0       0       0
  2898 ;;      Temps:          0       4       0       0       0       0       0       0       0
  2899 ;;      Totals:         0      25       0       0       0       0       0       0       0
  2900 ;;Total ram usage:       25 bytes
  2901 ;; Hardware stack levels used: 1
  2902 ;; Hardware stack levels required when called: 3
  2903 ;; This function calls:
  2904 ;;		Nothing
  2905 ;; This function is called by:
  2906 ;;		_main
  2907 ;; This function uses a non-reentrant model
  2908 ;;
  2909                           
  2910                           	psect	text6
  2911   00171C                     __ptext6:
  2912                           	callstack 0
  2913   00171C                     ___fldiv:
  2914                           	callstack 27
  2915   00171C  0100               	movlb	0	; () banked
  2916   00171E  517C               	movf	(___fldiv@b+3)& (0+255),w,b
  2917   001720  0B80               	andlw	128
  2918   001722  6F89               	movwf	___fldiv@sign& (0+255),b
  2919   001724  517C               	movf	(___fldiv@b+3)& (0+255),w,b
  2920   001726  257C               	addwf	(___fldiv@b+3)& (0+255),w,b
  2921   001728  6F90               	movwf	___fldiv@bexp& (0+255),b
  2922   00172A                     
  2923                           ; BSR set to: 0
  2924   00172A  AF7B               	btfss	(___fldiv@b+2)& (0+255),7,b
  2925   00172C  EF9A  F00B         	goto	u3001
  2926   001730  EF9C  F00B         	goto	u3000
  2927   001734                     u3001:
  2928   001734  EF9D  F00B         	goto	l2454
  2929   001738                     u3000:
  2930   001738                     
  2931                           ; BSR set to: 0
  2932   001738  8190               	bsf	___fldiv@bexp& (0+255),0,b
  2933   00173A                     l2454:
  2934                           
  2935                           ; BSR set to: 0
  2936   00173A  5190               	movf	___fldiv@bexp& (0+255),w,b
  2937   00173C  B4D8               	btfsc	status,2,c
  2938   00173E  EFA3  F00B         	goto	u3011
  2939   001742  EFA5  F00B         	goto	u3010
  2940   001746                     u3011:
  2941   001746  EFBA  F00B         	goto	l2464
  2942   00174A                     u3010:
  2943   00174A                     
  2944                           ; BSR set to: 0
  2945   00174A  2990               	incf	___fldiv@bexp& (0+255),w,b
  2946   00174C  A4D8               	btfss	status,2,c
  2947   00174E  EFAB  F00B         	goto	u3021
  2948   001752  EFAD  F00B         	goto	u3020
  2949   001756                     u3021:
  2950   001756  EFB5  F00B         	goto	l2460
  2951   00175A                     u3020:
  2952   00175A                     
  2953                           ; BSR set to: 0
  2954   00175A  0E00               	movlw	0
  2955   00175C  6F79               	movwf	___fldiv@b& (0+255),b
  2956   00175E  0E00               	movlw	0
  2957   001760  6F7A               	movwf	(___fldiv@b+1)& (0+255),b
  2958   001762  0E00               	movlw	0
  2959   001764  6F7B               	movwf	(___fldiv@b+2)& (0+255),b
  2960   001766  0E00               	movlw	0
  2961   001768  6F7C               	movwf	(___fldiv@b+3)& (0+255),b
  2962   00176A                     l2460:
  2963                           
  2964                           ; BSR set to: 0
  2965   00176A  8F7B               	bsf	(___fldiv@b+2)& (0+255),7,b
  2966   00176C                     
  2967                           ; BSR set to: 0
  2968   00176C  0E00               	movlw	0
  2969   00176E  6F7C               	movwf	(___fldiv@b+3)& (0+255),b
  2970   001770  EFC2  F00B         	goto	l2466
  2971   001774                     l2464:
  2972                           
  2973                           ; BSR set to: 0
  2974   001774  0E00               	movlw	0
  2975   001776  6F79               	movwf	___fldiv@b& (0+255),b
  2976   001778  0E00               	movlw	0
  2977   00177A  6F7A               	movwf	(___fldiv@b+1)& (0+255),b
  2978   00177C  0E00               	movlw	0
  2979   00177E  6F7B               	movwf	(___fldiv@b+2)& (0+255),b
  2980   001780  0E00               	movlw	0
  2981   001782  6F7C               	movwf	(___fldiv@b+3)& (0+255),b
  2982   001784                     l2466:
  2983                           
  2984                           ; BSR set to: 0
  2985   001784  5180               	movf	(___fldiv@a+3)& (0+255),w,b
  2986   001786  0B80               	andlw	128
  2987   001788  1B89               	xorwf	___fldiv@sign& (0+255),f,b
  2988   00178A                     
  2989                           ; BSR set to: 0
  2990   00178A  5180               	movf	(___fldiv@a+3)& (0+255),w,b
  2991   00178C  2580               	addwf	(___fldiv@a+3)& (0+255),w,b
  2992   00178E  6F91               	movwf	___fldiv@aexp& (0+255),b
  2993   001790                     
  2994                           ; BSR set to: 0
  2995   001790  AF7F               	btfss	(___fldiv@a+2)& (0+255),7,b
  2996   001792  EFCD  F00B         	goto	u3031
  2997   001796  EFCF  F00B         	goto	u3030
  2998   00179A                     u3031:
  2999   00179A  EFD0  F00B         	goto	l2474
  3000   00179E                     u3030:
  3001   00179E                     
  3002                           ; BSR set to: 0
  3003   00179E  8191               	bsf	___fldiv@aexp& (0+255),0,b
  3004   0017A0                     l2474:
  3005                           
  3006                           ; BSR set to: 0
  3007   0017A0  5191               	movf	___fldiv@aexp& (0+255),w,b
  3008   0017A2  B4D8               	btfsc	status,2,c
  3009   0017A4  EFD6  F00B         	goto	u3041
  3010   0017A8  EFD8  F00B         	goto	u3040
  3011   0017AC                     u3041:
  3012   0017AC  EFED  F00B         	goto	l2484
  3013   0017B0                     u3040:
  3014   0017B0                     
  3015                           ; BSR set to: 0
  3016   0017B0  2991               	incf	___fldiv@aexp& (0+255),w,b
  3017   0017B2  A4D8               	btfss	status,2,c
  3018   0017B4  EFDE  F00B         	goto	u3051
  3019   0017B8  EFE0  F00B         	goto	u3050
  3020   0017BC                     u3051:
  3021   0017BC  EFE8  F00B         	goto	l2480
  3022   0017C0                     u3050:
  3023   0017C0                     
  3024                           ; BSR set to: 0
  3025   0017C0  0E00               	movlw	0
  3026   0017C2  6F7D               	movwf	___fldiv@a& (0+255),b
  3027   0017C4  0E00               	movlw	0
  3028   0017C6  6F7E               	movwf	(___fldiv@a+1)& (0+255),b
  3029   0017C8  0E00               	movlw	0
  3030   0017CA  6F7F               	movwf	(___fldiv@a+2)& (0+255),b
  3031   0017CC  0E00               	movlw	0
  3032   0017CE  6F80               	movwf	(___fldiv@a+3)& (0+255),b
  3033   0017D0                     l2480:
  3034                           
  3035                           ; BSR set to: 0
  3036   0017D0  8F7F               	bsf	(___fldiv@a+2)& (0+255),7,b
  3037   0017D2                     
  3038                           ; BSR set to: 0
  3039   0017D2  0E00               	movlw	0
  3040   0017D4  6F80               	movwf	(___fldiv@a+3)& (0+255),b
  3041   0017D6  EFF5  F00B         	goto	l2486
  3042   0017DA                     l2484:
  3043                           
  3044                           ; BSR set to: 0
  3045   0017DA  0E00               	movlw	0
  3046   0017DC  6F7D               	movwf	___fldiv@a& (0+255),b
  3047   0017DE  0E00               	movlw	0
  3048   0017E0  6F7E               	movwf	(___fldiv@a+1)& (0+255),b
  3049   0017E2  0E00               	movlw	0
  3050   0017E4  6F7F               	movwf	(___fldiv@a+2)& (0+255),b
  3051   0017E6  0E00               	movlw	0
  3052   0017E8  6F80               	movwf	(___fldiv@a+3)& (0+255),b
  3053   0017EA                     l2486:
  3054                           
  3055                           ; BSR set to: 0
  3056   0017EA  517D               	movf	___fldiv@a& (0+255),w,b
  3057   0017EC  117E               	iorwf	(___fldiv@a+1)& (0+255),w,b
  3058   0017EE  117F               	iorwf	(___fldiv@a+2)& (0+255),w,b
  3059   0017F0  1180               	iorwf	(___fldiv@a+3)& (0+255),w,b
  3060   0017F2  A4D8               	btfss	status,2,c
  3061   0017F4  EFFE  F00B         	goto	u3061
  3062   0017F8  EF00  F00C         	goto	u3060
  3063   0017FC                     u3061:
  3064   0017FC  EF18  F00C         	goto	l2498
  3065   001800                     u3060:
  3066   001800                     
  3067                           ; BSR set to: 0
  3068   001800  0E00               	movlw	0
  3069   001802  6F79               	movwf	___fldiv@b& (0+255),b
  3070   001804  0E00               	movlw	0
  3071   001806  6F7A               	movwf	(___fldiv@b+1)& (0+255),b
  3072   001808  0E00               	movlw	0
  3073   00180A  6F7B               	movwf	(___fldiv@b+2)& (0+255),b
  3074   00180C  0E00               	movlw	0
  3075   00180E  6F7C               	movwf	(___fldiv@b+3)& (0+255),b
  3076   001810                     
  3077                           ; BSR set to: 0
  3078   001810  0E80               	movlw	128
  3079   001812  137B               	iorwf	(___fldiv@b+2)& (0+255),f,b
  3080   001814  0E7F               	movlw	127
  3081   001816  137C               	iorwf	(___fldiv@b+3)& (0+255),f,b
  3082   001818                     l2492:
  3083                           
  3084                           ; BSR set to: 0
  3085   001818  5189               	movf	___fldiv@sign& (0+255),w,b
  3086   00181A  137C               	iorwf	(___fldiv@b+3)& (0+255),f,b
  3087   00181C                     
  3088                           ; BSR set to: 0
  3089   00181C  C079  F079         	movff	___fldiv@b,?___fldiv
  3090   001820  C07A  F07A         	movff	___fldiv@b+1,?___fldiv+1
  3091   001824  C07B  F07B         	movff	___fldiv@b+2,?___fldiv+2
  3092   001828  C07C  F07C         	movff	___fldiv@b+3,?___fldiv+3
  3093   00182C  EF5B  F00D         	goto	l701
  3094   001830                     l2498:
  3095                           
  3096                           ; BSR set to: 0
  3097   001830  5190               	movf	___fldiv@bexp& (0+255),w,b
  3098   001832  A4D8               	btfss	status,2,c
  3099   001834  EF1E  F00C         	goto	u3071
  3100   001838  EF20  F00C         	goto	u3070
  3101   00183C                     u3071:
  3102   00183C  EF2A  F00C         	goto	l2506
  3103   001840                     u3070:
  3104   001840                     
  3105                           ; BSR set to: 0
  3106   001840  0E00               	movlw	0
  3107   001842  6F79               	movwf	?___fldiv& (0+255),b
  3108   001844  0E00               	movlw	0
  3109   001846  6F7A               	movwf	(?___fldiv+1)& (0+255),b
  3110   001848  0E00               	movlw	0
  3111   00184A  6F7B               	movwf	(?___fldiv+2)& (0+255),b
  3112   00184C  0E00               	movlw	0
  3113   00184E  6F7C               	movwf	(?___fldiv+3)& (0+255),b
  3114   001850  EF5B  F00D         	goto	l701
  3115   001854                     l2506:
  3116                           
  3117                           ; BSR set to: 0
  3118   001854  5191               	movf	___fldiv@aexp& (0+255),w,b
  3119   001856  C090  F081         	movff	___fldiv@bexp,??___fldiv
  3120   00185A  6B82               	clrf	(??___fldiv+1)& (0+255),b
  3121   00185C  5F81               	subwf	??___fldiv& (0+255),f,b
  3122   00185E  0E00               	movlw	0
  3123   001860  5B82               	subwfb	(??___fldiv+1)& (0+255),f,b
  3124   001862  0E7F               	movlw	127
  3125   001864  2581               	addwf	??___fldiv& (0+255),w,b
  3126   001866  6F8A               	movwf	___fldiv@new_exp& (0+255),b
  3127   001868  0E00               	movlw	0
  3128   00186A  2182               	addwfc	(??___fldiv+1)& (0+255),w,b
  3129   00186C  6F8B               	movwf	(___fldiv@new_exp+1)& (0+255),b
  3130   00186E                     
  3131                           ; BSR set to: 0
  3132   00186E  C079  F085         	movff	___fldiv@b,___fldiv@rem
  3133   001872  C07A  F086         	movff	___fldiv@b+1,___fldiv@rem+1
  3134   001876  C07B  F087         	movff	___fldiv@b+2,___fldiv@rem+2
  3135   00187A  C07C  F088         	movff	___fldiv@b+3,___fldiv@rem+3
  3136   00187E                     
  3137                           ; BSR set to: 0
  3138   00187E  0E00               	movlw	0
  3139   001880  6F79               	movwf	___fldiv@b& (0+255),b
  3140   001882  0E00               	movlw	0
  3141   001884  6F7A               	movwf	(___fldiv@b+1)& (0+255),b
  3142   001886  0E00               	movlw	0
  3143   001888  6F7B               	movwf	(___fldiv@b+2)& (0+255),b
  3144   00188A  0E00               	movlw	0
  3145   00188C  6F7C               	movwf	(___fldiv@b+3)& (0+255),b
  3146   00188E                     
  3147                           ; BSR set to: 0
  3148   00188E  0E00               	movlw	0
  3149   001890  6F8C               	movwf	___fldiv@grs& (0+255),b
  3150   001892  0E00               	movlw	0
  3151   001894  6F8D               	movwf	(___fldiv@grs+1)& (0+255),b
  3152   001896  0E00               	movlw	0
  3153   001898  6F8E               	movwf	(___fldiv@grs+2)& (0+255),b
  3154   00189A  0E00               	movlw	0
  3155   00189C  6F8F               	movwf	(___fldiv@grs+3)& (0+255),b
  3156   00189E                     
  3157                           ; BSR set to: 0
  3158   00189E  0E00               	movlw	0
  3159   0018A0  6F91               	movwf	___fldiv@aexp& (0+255),b
  3160   0018A2  EF8B  F00C         	goto	l703
  3161   0018A6                     l2516:
  3162                           
  3163                           ; BSR set to: 0
  3164   0018A6  5191               	movf	___fldiv@aexp& (0+255),w,b
  3165   0018A8  B4D8               	btfsc	status,2,c
  3166   0018AA  EF59  F00C         	goto	u3081
  3167   0018AE  EF5B  F00C         	goto	u3080
  3168   0018B2                     u3081:
  3169   0018B2  EF72  F00C         	goto	l2524
  3170   0018B6                     u3080:
  3171   0018B6                     
  3172                           ; BSR set to: 0
  3173   0018B6  90D8               	bcf	status,0,c
  3174   0018B8  3785               	rlcf	___fldiv@rem& (0+255),f,b
  3175   0018BA  3786               	rlcf	(___fldiv@rem+1)& (0+255),f,b
  3176   0018BC  3787               	rlcf	(___fldiv@rem+2)& (0+255),f,b
  3177   0018BE  3788               	rlcf	(___fldiv@rem+3)& (0+255),f,b
  3178   0018C0  90D8               	bcf	status,0,c
  3179   0018C2  3779               	rlcf	___fldiv@b& (0+255),f,b
  3180   0018C4  377A               	rlcf	(___fldiv@b+1)& (0+255),f,b
  3181   0018C6  377B               	rlcf	(___fldiv@b+2)& (0+255),f,b
  3182   0018C8  377C               	rlcf	(___fldiv@b+3)& (0+255),f,b
  3183   0018CA                     
  3184                           ; BSR set to: 0
  3185   0018CA  AF8F               	btfss	(___fldiv@grs+3)& (0+255),7,b
  3186   0018CC  EF6A  F00C         	goto	u3091
  3187   0018D0  EF6C  F00C         	goto	u3090
  3188   0018D4                     u3091:
  3189   0018D4  EF6D  F00C         	goto	l706
  3190   0018D8                     u3090:
  3191   0018D8                     
  3192                           ; BSR set to: 0
  3193   0018D8  8179               	bsf	___fldiv@b& (0+255),0,b
  3194   0018DA                     l706:
  3195                           
  3196                           ; BSR set to: 0
  3197   0018DA  90D8               	bcf	status,0,c
  3198   0018DC  378C               	rlcf	___fldiv@grs& (0+255),f,b
  3199   0018DE  378D               	rlcf	(___fldiv@grs+1)& (0+255),f,b
  3200   0018E0  378E               	rlcf	(___fldiv@grs+2)& (0+255),f,b
  3201   0018E2  378F               	rlcf	(___fldiv@grs+3)& (0+255),f,b
  3202   0018E4                     l2524:
  3203                           
  3204                           ; BSR set to: 0
  3205   0018E4  517D               	movf	___fldiv@a& (0+255),w,b
  3206   0018E6  5D85               	subwf	___fldiv@rem& (0+255),w,b
  3207   0018E8  517E               	movf	(___fldiv@a+1)& (0+255),w,b
  3208   0018EA  5986               	subwfb	(___fldiv@rem+1)& (0+255),w,b
  3209   0018EC  517F               	movf	(___fldiv@a+2)& (0+255),w,b
  3210   0018EE  5987               	subwfb	(___fldiv@rem+2)& (0+255),w,b
  3211   0018F0  5180               	movf	(___fldiv@a+3)& (0+255),w,b
  3212   0018F2  5988               	subwfb	(___fldiv@rem+3)& (0+255),w,b
  3213   0018F4  A0D8               	btfss	status,0,c
  3214   0018F6  EF7F  F00C         	goto	u3101
  3215   0018FA  EF81  F00C         	goto	u3100
  3216   0018FE                     u3101:
  3217   0018FE  EF8A  F00C         	goto	l2530
  3218   001902                     u3100:
  3219   001902                     
  3220                           ; BSR set to: 0
  3221   001902  8D8F               	bsf	(___fldiv@grs+3)& (0+255),6,b
  3222   001904                     
  3223                           ; BSR set to: 0
  3224   001904  517D               	movf	___fldiv@a& (0+255),w,b
  3225   001906  5F85               	subwf	___fldiv@rem& (0+255),f,b
  3226   001908  517E               	movf	(___fldiv@a+1)& (0+255),w,b
  3227   00190A  5B86               	subwfb	(___fldiv@rem+1)& (0+255),f,b
  3228   00190C  517F               	movf	(___fldiv@a+2)& (0+255),w,b
  3229   00190E  5B87               	subwfb	(___fldiv@rem+2)& (0+255),f,b
  3230   001910  5180               	movf	(___fldiv@a+3)& (0+255),w,b
  3231   001912  5B88               	subwfb	(___fldiv@rem+3)& (0+255),f,b
  3232   001914                     l2530:
  3233                           
  3234                           ; BSR set to: 0
  3235   001914  2B91               	incf	___fldiv@aexp& (0+255),f,b
  3236   001916                     l703:
  3237                           
  3238                           ; BSR set to: 0
  3239   001916  0E19               	movlw	25
  3240   001918  6591               	cpfsgt	___fldiv@aexp& (0+255),b
  3241   00191A  EF91  F00C         	goto	u3111
  3242   00191E  EF93  F00C         	goto	u3110
  3243   001922                     u3111:
  3244   001922  EF53  F00C         	goto	l2516
  3245   001926                     u3110:
  3246   001926                     
  3247                           ; BSR set to: 0
  3248   001926  5185               	movf	___fldiv@rem& (0+255),w,b
  3249   001928  1186               	iorwf	(___fldiv@rem+1)& (0+255),w,b
  3250   00192A  1187               	iorwf	(___fldiv@rem+2)& (0+255),w,b
  3251   00192C  1188               	iorwf	(___fldiv@rem+3)& (0+255),w,b
  3252   00192E  B4D8               	btfsc	status,2,c
  3253   001930  EF9C  F00C         	goto	u3121
  3254   001934  EF9E  F00C         	goto	u3120
  3255   001938                     u3121:
  3256   001938  EFB6  F00C         	goto	l2542
  3257   00193C                     u3120:
  3258   00193C                     
  3259                           ; BSR set to: 0
  3260   00193C  818C               	bsf	___fldiv@grs& (0+255),0,b
  3261   00193E  EFB6  F00C         	goto	l2542
  3262   001942                     l2536:
  3263                           
  3264                           ; BSR set to: 0
  3265   001942  90D8               	bcf	status,0,c
  3266   001944  3779               	rlcf	___fldiv@b& (0+255),f,b
  3267   001946  377A               	rlcf	(___fldiv@b+1)& (0+255),f,b
  3268   001948  377B               	rlcf	(___fldiv@b+2)& (0+255),f,b
  3269   00194A  377C               	rlcf	(___fldiv@b+3)& (0+255),f,b
  3270   00194C                     
  3271                           ; BSR set to: 0
  3272   00194C  AF8F               	btfss	(___fldiv@grs+3)& (0+255),7,b
  3273   00194E  EFAB  F00C         	goto	u3131
  3274   001952  EFAD  F00C         	goto	u3130
  3275   001956                     u3131:
  3276   001956  EFAE  F00C         	goto	l712
  3277   00195A                     u3130:
  3278   00195A                     
  3279                           ; BSR set to: 0
  3280   00195A  8179               	bsf	___fldiv@b& (0+255),0,b
  3281   00195C                     l712:
  3282                           
  3283                           ; BSR set to: 0
  3284   00195C  90D8               	bcf	status,0,c
  3285   00195E  378C               	rlcf	___fldiv@grs& (0+255),f,b
  3286   001960  378D               	rlcf	(___fldiv@grs+1)& (0+255),f,b
  3287   001962  378E               	rlcf	(___fldiv@grs+2)& (0+255),f,b
  3288   001964  378F               	rlcf	(___fldiv@grs+3)& (0+255),f,b
  3289   001966  078A               	decf	___fldiv@new_exp& (0+255),f,b
  3290   001968  A0D8               	btfss	status,0,c
  3291   00196A  078B               	decf	(___fldiv@new_exp+1)& (0+255),f,b
  3292   00196C                     l2542:
  3293                           
  3294                           ; BSR set to: 0
  3295   00196C  AF7B               	btfss	(___fldiv@b+2)& (0+255),7,b
  3296   00196E  EFBB  F00C         	goto	u3141
  3297   001972  EFBD  F00C         	goto	u3140
  3298   001976                     u3141:
  3299   001976  EFA1  F00C         	goto	l2536
  3300   00197A                     u3140:
  3301   00197A                     
  3302                           ; BSR set to: 0
  3303   00197A  0E00               	movlw	0
  3304   00197C  6F91               	movwf	___fldiv@aexp& (0+255),b
  3305   00197E                     
  3306                           ; BSR set to: 0
  3307   00197E  AF8F               	btfss	(___fldiv@grs+3)& (0+255),7,b
  3308   001980  EFC4  F00C         	goto	u3151
  3309   001984  EFC6  F00C         	goto	u3150
  3310   001988                     u3151:
  3311   001988  EFEA  F00C         	goto	l714
  3312   00198C                     u3150:
  3313   00198C                     
  3314                           ; BSR set to: 0
  3315   00198C  0EFF               	movlw	255
  3316   00198E  158C               	andwf	___fldiv@grs& (0+255),w,b
  3317   001990  6F81               	movwf	??___fldiv& (0+255),b
  3318   001992  0EFF               	movlw	255
  3319   001994  158D               	andwf	(___fldiv@grs+1)& (0+255),w,b
  3320   001996  6F82               	movwf	(??___fldiv+1)& (0+255),b
  3321   001998  0EFF               	movlw	255
  3322   00199A  158E               	andwf	(___fldiv@grs+2)& (0+255),w,b
  3323   00199C  6F83               	movwf	(??___fldiv+2)& (0+255),b
  3324   00199E  0E7F               	movlw	127
  3325   0019A0  158F               	andwf	(___fldiv@grs+3)& (0+255),w,b
  3326   0019A2  6F84               	movwf	(??___fldiv+3)& (0+255),b
  3327   0019A4  5181               	movf	??___fldiv& (0+255),w,b
  3328   0019A6  1182               	iorwf	(??___fldiv+1)& (0+255),w,b
  3329   0019A8  1183               	iorwf	(??___fldiv+2)& (0+255),w,b
  3330   0019AA  1184               	iorwf	(??___fldiv+3)& (0+255),w,b
  3331   0019AC  B4D8               	btfsc	status,2,c
  3332   0019AE  EFDB  F00C         	goto	u3161
  3333   0019B2  EFDD  F00C         	goto	u3160
  3334   0019B6                     u3161:
  3335   0019B6  EFE1  F00C         	goto	l715
  3336   0019BA                     u3160:
  3337   0019BA                     l2550:
  3338                           
  3339                           ; BSR set to: 0
  3340   0019BA  0E01               	movlw	1
  3341   0019BC  6F91               	movwf	___fldiv@aexp& (0+255),b
  3342   0019BE  EFEA  F00C         	goto	l714
  3343   0019C2                     l715:
  3344                           
  3345                           ; BSR set to: 0
  3346   0019C2  A179               	btfss	___fldiv@b& (0+255),0,b
  3347   0019C4  EFE6  F00C         	goto	u3171
  3348   0019C8  EFE8  F00C         	goto	u3170
  3349   0019CC                     u3171:
  3350   0019CC  EFEA  F00C         	goto	l714
  3351   0019D0                     u3170:
  3352   0019D0  EFDD  F00C         	goto	l2550
  3353   0019D4                     l714:
  3354                           
  3355                           ; BSR set to: 0
  3356   0019D4  5191               	movf	___fldiv@aexp& (0+255),w,b
  3357   0019D6  B4D8               	btfsc	status,2,c
  3358   0019D8  EFF0  F00C         	goto	u3181
  3359   0019DC  EFF2  F00C         	goto	u3180
  3360   0019E0                     u3181:
  3361   0019E0  EF16  F00D         	goto	l2562
  3362   0019E4                     u3180:
  3363   0019E4                     
  3364                           ; BSR set to: 0
  3365   0019E4  0E01               	movlw	1
  3366   0019E6  2779               	addwf	___fldiv@b& (0+255),f,b
  3367   0019E8  0E00               	movlw	0
  3368   0019EA  237A               	addwfc	(___fldiv@b+1)& (0+255),f,b
  3369   0019EC  237B               	addwfc	(___fldiv@b+2)& (0+255),f,b
  3370   0019EE  237C               	addwfc	(___fldiv@b+3)& (0+255),f,b
  3371   0019F0                     
  3372                           ; BSR set to: 0
  3373   0019F0  A17C               	btfss	(___fldiv@b+3)& (0+255),0,b
  3374   0019F2  EFFD  F00C         	goto	u3191
  3375   0019F6  EFFF  F00C         	goto	u3190
  3376   0019FA                     u3191:
  3377   0019FA  EF16  F00D         	goto	l2562
  3378   0019FE                     u3190:
  3379   0019FE                     
  3380                           ; BSR set to: 0
  3381   0019FE  C079  F081         	movff	___fldiv@b,??___fldiv
  3382   001A02  C07A  F082         	movff	___fldiv@b+1,??___fldiv+1
  3383   001A06  C07B  F083         	movff	___fldiv@b+2,??___fldiv+2
  3384   001A0A  C07C  F084         	movff	___fldiv@b+3,??___fldiv+3
  3385   001A0E  3584               	rlcf	(??___fldiv+3)& (0+255),w,b
  3386   001A10  3384               	rrcf	(??___fldiv+3)& (0+255),f,b
  3387   001A12  3383               	rrcf	(??___fldiv+2)& (0+255),f,b
  3388   001A14  3382               	rrcf	(??___fldiv+1)& (0+255),f,b
  3389   001A16  3381               	rrcf	??___fldiv& (0+255),f,b
  3390   001A18  C081  F079         	movff	??___fldiv,___fldiv@b
  3391   001A1C  C082  F07A         	movff	??___fldiv+1,___fldiv@b+1
  3392   001A20  C083  F07B         	movff	??___fldiv+2,___fldiv@b+2
  3393   001A24  C084  F07C         	movff	??___fldiv+3,___fldiv@b+3
  3394   001A28                     
  3395                           ; BSR set to: 0
  3396   001A28  4B8A               	infsnz	___fldiv@new_exp& (0+255),f,b
  3397   001A2A  2B8B               	incf	(___fldiv@new_exp+1)& (0+255),f,b
  3398   001A2C                     l2562:
  3399                           
  3400                           ; BSR set to: 0
  3401   001A2C  BF8B               	btfsc	(___fldiv@new_exp+1)& (0+255),7,b
  3402   001A2E  EF21  F00D         	goto	u3201
  3403   001A32  518B               	movf	(___fldiv@new_exp+1)& (0+255),w,b
  3404   001A34  E108               	bnz	u3200
  3405   001A36  298A               	incf	___fldiv@new_exp& (0+255),w,b
  3406   001A38  A0D8               	btfss	status,0,c
  3407   001A3A  EF21  F00D         	goto	u3201
  3408   001A3E  EF23  F00D         	goto	u3200
  3409   001A42                     u3201:
  3410   001A42  EF2E  F00D         	goto	l2566
  3411   001A46                     u3200:
  3412   001A46                     
  3413                           ; BSR set to: 0
  3414   001A46  0E00               	movlw	0
  3415   001A48  6F8B               	movwf	(___fldiv@new_exp+1)& (0+255),b
  3416   001A4A  698A               	setf	___fldiv@new_exp& (0+255),b
  3417   001A4C  0E00               	movlw	0
  3418   001A4E  6F79               	movwf	___fldiv@b& (0+255),b
  3419   001A50  0E00               	movlw	0
  3420   001A52  6F7A               	movwf	(___fldiv@b+1)& (0+255),b
  3421   001A54  0E00               	movlw	0
  3422   001A56  6F7B               	movwf	(___fldiv@b+2)& (0+255),b
  3423   001A58  0E00               	movlw	0
  3424   001A5A  6F7C               	movwf	(___fldiv@b+3)& (0+255),b
  3425   001A5C                     l2566:
  3426                           
  3427                           ; BSR set to: 0
  3428   001A5C  BF8B               	btfsc	(___fldiv@new_exp+1)& (0+255),7,b
  3429   001A5E  EF3B  F00D         	goto	u3210
  3430   001A62  518B               	movf	(___fldiv@new_exp+1)& (0+255),w,b
  3431   001A64  E106               	bnz	u3211
  3432   001A66  058A               	decf	___fldiv@new_exp& (0+255),w,b
  3433   001A68  B0D8               	btfsc	status,0,c
  3434   001A6A  EF39  F00D         	goto	u3211
  3435   001A6E  EF3B  F00D         	goto	u3210
  3436   001A72                     u3211:
  3437   001A72  EF49  F00D         	goto	l2570
  3438   001A76                     u3210:
  3439   001A76                     
  3440                           ; BSR set to: 0
  3441   001A76  0E00               	movlw	0
  3442   001A78  6F8B               	movwf	(___fldiv@new_exp+1)& (0+255),b
  3443   001A7A  0E00               	movlw	0
  3444   001A7C  6F8A               	movwf	___fldiv@new_exp& (0+255),b
  3445   001A7E  0E00               	movlw	0
  3446   001A80  6F79               	movwf	___fldiv@b& (0+255),b
  3447   001A82  0E00               	movlw	0
  3448   001A84  6F7A               	movwf	(___fldiv@b+1)& (0+255),b
  3449   001A86  0E00               	movlw	0
  3450   001A88  6F7B               	movwf	(___fldiv@b+2)& (0+255),b
  3451   001A8A  0E00               	movlw	0
  3452   001A8C  6F7C               	movwf	(___fldiv@b+3)& (0+255),b
  3453   001A8E  0E00               	movlw	0
  3454   001A90  6F89               	movwf	___fldiv@sign& (0+255),b
  3455   001A92                     l2570:
  3456                           
  3457                           ; BSR set to: 0
  3458   001A92  C08A  F090         	movff	___fldiv@new_exp,___fldiv@bexp
  3459   001A96                     
  3460                           ; BSR set to: 0
  3461   001A96  A190               	btfss	___fldiv@bexp& (0+255),0,b
  3462   001A98  EF50  F00D         	goto	u3221
  3463   001A9C  EF52  F00D         	goto	u3220
  3464   001AA0                     u3221:
  3465   001AA0  EF55  F00D         	goto	l2576
  3466   001AA4                     u3220:
  3467   001AA4                     
  3468                           ; BSR set to: 0
  3469   001AA4  8F7B               	bsf	(___fldiv@b+2)& (0+255),7,b
  3470   001AA6  EF56  F00D         	goto	l2578
  3471   001AAA                     l2576:
  3472                           
  3473                           ; BSR set to: 0
  3474   001AAA  9F7B               	bcf	(___fldiv@b+2)& (0+255),7,b
  3475   001AAC                     l2578:
  3476                           
  3477                           ; BSR set to: 0
  3478   001AAC  90D8               	bcf	status,0,c
  3479   001AAE  3190               	rrcf	___fldiv@bexp& (0+255),w,b
  3480   001AB0  6F7C               	movwf	(___fldiv@b+3)& (0+255),b
  3481   001AB2  EF0C  F00C         	goto	l2492
  3482   001AB6                     l701:
  3483                           
  3484                           ; BSR set to: 0
  3485   001AB6  0012               	return		;funcret
  3486   001AB8                     __end_of___fldiv:
  3487                           	callstack 0
  3488                           
  3489 ;; *************** function _ISR *****************
  3490 ;; Defined at:
  3491 ;;		line 81 in file "Aceleracion.c"
  3492 ;; Parameters:    Size  Location     Type
  3493 ;;		None
  3494 ;; Auto vars:     Size  Location     Type
  3495 ;;		None
  3496 ;; Return value:  Size  Location     Type
  3497 ;;                  1    wreg      void 
  3498 ;; Registers used:
  3499 ;;		wreg, status,2, status,0, prodl, prodh, cstack
  3500 ;; Tracked objects:
  3501 ;;		On entry : 0/0
  3502 ;;		On exit  : 0/0
  3503 ;;		Unchanged: 0/0
  3504 ;; Data sizes:     COMRAM   BANK0   BANK1   BANK2   BANK3   BANK4   BANK5   BANK6   BANK7
  3505 ;;      Params:         0       0       0       0       0       0       0       0       0
  3506 ;;      Locals:         0       0       0       0       0       0       0       0       0
  3507 ;;      Temps:          3       0       0       0       0       0       0       0       0
  3508 ;;      Totals:         3       0       0       0       0       0       0       0       0
  3509 ;;Total ram usage:        3 bytes
  3510 ;; Hardware stack levels used: 1
  3511 ;; Hardware stack levels required when called: 2
  3512 ;; This function calls:
  3513 ;;		i2___fldiv
  3514 ;;		i2___flmul
  3515 ;;		i2___flsub
  3516 ;;		i2___fltol
  3517 ;;		i2___xxtofl
  3518 ;; This function is called by:
  3519 ;;		Interrupt level 2
  3520 ;; This function uses a non-reentrant model
  3521 ;;
  3522                           
  3523                           	psect	intcode
  3524   000008                     __pintcode:
  3525                           	callstack 0
  3526   000008                     _ISR:
  3527                           	callstack 26
  3528                           
  3529                           ; BSR set to: 0
  3530                           ;incstack = 0
  3531   000008  825E               	bsf	int$flags,1,c	;set compiler interrupt flag (level 2)
  3532   00000A  ED09  F000         	call	int_func,f	;refresh shadow registers
  3533                           
  3534                           	psect	intcode_body
  3535   000012                     __pintcode_body:
  3536                           	callstack 26
  3537   000012                     int_func:
  3538                           	callstack 26
  3539   000012  0006               	pop		; remove dummy address from shadow register refresh
  3540   000014  CFF3 F054          	movff	prodl,??_ISR+1
  3541   000018  CFF4 F055          	movff	prodh,??_ISR+2
  3542   00001C                     
  3543                           ;Aceleracion.c: 82:         if(LATD1==1){
  3544   00001C  A09E               	btfss	3998,0,c	;volatile
  3545   00001E  EF13  F000         	goto	i2u418_41
  3546   000022  EF15  F000         	goto	i2u418_40
  3547   000026                     i2u418_41:
  3548   000026  EF3B  F000         	goto	i2l3230
  3549   00002A                     i2u418_40:
  3550   00002A                     
  3551                           ;Aceleracion.c: 83:             pasosYDados++;
  3552   00002A  0100               	movlb	0	; () banked
  3553   00002C  51D4               	movf	_pasosX& (0+255),w,b
  3554   00002E  5C5C               	subwf	_pasosXDados^0,w,c
  3555   000030  505D               	movf	(_pasosXDados+1)^0,w,c
  3556   000032  0A80               	xorlw	128
  3557   000034  6E53               	movwf	??_ISR^0,c
  3558   000036  51D5               	movf	(_pasosX+1)& (0+255),w,b
  3559   000038  0A80               	xorlw	128
  3560   00003A  5853               	subwfb	??_ISR^0,w,c
  3561   00003C  B0D8               	btfsc	status,0,c
  3562   00003E  EF23  F000         	goto	i2u419_41
  3563   000042  EF25  F000         	goto	i2u419_40
  3564   000046                     i2u419_41:
  3565   000046  EF2E  F000         	goto	i2l98
  3566   00004A                     i2u419_40:
  3567   00004A                     
  3568                           ; BSR set to: 0
  3569                           ;Aceleracion.c: 84:         }
  3570   00004A  A08C               	btfss	3980,0,c	;volatile
  3571   00004C  EF2A  F000         	goto	i2u420_41
  3572   000050  EF2D  F000         	goto	i2u420_40
  3573   000054                     i2u420_41:
  3574   000054  808C               	bsf	3980,0,c	;volatile
  3575   000056  EF2E  F000         	goto	i2u421_45
  3576   00005A                     i2u420_40:
  3577   00005A  908C               	bcf	3980,0,c	;volatile
  3578   00005C                     i2u421_45:
  3579   00005C                     i2l98:
  3580                           
  3581                           ;Aceleracion.c: 86: 
  3582   00005C  C0B6  FFCE         	movff	_precargaX,4046	;volatile
  3583   000060  C0B7  FFCF         	movff	_precargaX+1,4047	;volatile
  3584                           
  3585                           ;Aceleracion.c: 87:     if (TMR0IF == 1){
  3586   000064  A08C               	btfss	3980,0,c	;volatile
  3587   000066  EF37  F000         	goto	i2u422_41
  3588   00006A  EF39  F000         	goto	i2u422_40
  3589   00006E                     i2u422_41:
  3590   00006E  EF3B  F000         	goto	i2l3230
  3591   000072                     i2u422_40:
  3592   000072                     
  3593                           ;Aceleracion.c: 88: 
  3594   000072  4A5C               	infsnz	_pasosXDados^0,f,c
  3595   000074  2A5D               	incf	(_pasosXDados+1)^0,f,c
  3596   000076                     i2l3230:
  3597                           
  3598                           ;Aceleracion.c: 92:             counter-=1;
  3599   000076  A2A1               	btfss	4001,1,c	;volatile
  3600   000078  EF40  F000         	goto	i2u423_41
  3601   00007C  EF42  F000         	goto	i2u423_40
  3602   000080                     i2u423_41:
  3603   000080  EF68  F000         	goto	i2l3238
  3604   000084                     i2u423_40:
  3605   000084                     
  3606                           ;Aceleracion.c: 93:         }else if(cru ==1){
  3607   000084  0100               	movlb	0	; () banked
  3608   000086  51D2               	movf	_pasosY& (0+255),w,b
  3609   000088  5C5A               	subwf	_pasosYDados^0,w,c
  3610   00008A  505B               	movf	(_pasosYDados+1)^0,w,c
  3611   00008C  0A80               	xorlw	128
  3612   00008E  6E53               	movwf	??_ISR^0,c
  3613   000090  51D3               	movf	(_pasosY+1)& (0+255),w,b
  3614   000092  0A80               	xorlw	128
  3615   000094  5853               	subwfb	??_ISR^0,w,c
  3616   000096  B0D8               	btfsc	status,0,c
  3617   000098  EF50  F000         	goto	i2u424_41
  3618   00009C  EF52  F000         	goto	i2u424_40
  3619   0000A0                     i2u424_41:
  3620   0000A0  EF5B  F000         	goto	i2l101
  3621   0000A4                     i2u424_40:
  3622   0000A4                     
  3623                           ; BSR set to: 0
  3624                           ;Aceleracion.c: 94:             counterVC+=1;
  3625   0000A4  A28C               	btfss	3980,1,c	;volatile
  3626   0000A6  EF57  F000         	goto	i2u425_41
  3627   0000AA  EF5A  F000         	goto	i2u425_40
  3628   0000AE                     i2u425_41:
  3629   0000AE  828C               	bsf	3980,1,c	;volatile
  3630   0000B0  EF5B  F000         	goto	i2u426_45
  3631   0000B4                     i2u425_40:
  3632   0000B4  928C               	bcf	3980,1,c	;volatile
  3633   0000B6                     i2u426_45:
  3634   0000B6                     i2l101:
  3635                           
  3636                           ;Aceleracion.c: 96: 
  3637   0000B6  C0B4  FFB2         	movff	_precargaY,4018	;volatile
  3638   0000BA  C0B5  FFB3         	movff	_precargaY+1,4019	;volatile
  3639                           
  3640                           ;Aceleracion.c: 97:         if(counter>0 && (ac==1 || des == 1)){
  3641   0000BE  A28C               	btfss	3980,1,c	;volatile
  3642   0000C0  EF64  F000         	goto	i2u427_41
  3643   0000C4  EF66  F000         	goto	i2u427_40
  3644   0000C8                     i2u427_41:
  3645   0000C8  EF68  F000         	goto	i2l3238
  3646   0000CC                     i2u427_40:
  3647   0000CC                     
  3648                           ;Aceleracion.c: 98:             TMR1ON = 0;
  3649   0000CC  4A5A               	infsnz	_pasosYDados^0,f,c
  3650   0000CE  2A5B               	incf	(_pasosYDados+1)^0,f,c
  3651   0000D0                     i2l3238:
  3652                           
  3653                           ;Aceleracion.c: 102:             TIntx = 1/(vInsx*2);
  3654   0000D0  A4F2               	btfss	4082,2,c	;volatile
  3655   0000D2  EF6D  F000         	goto	i2u428_41
  3656   0000D6  EF6F  F000         	goto	i2u428_40
  3657   0000DA                     i2u428_41:
  3658   0000DA  EF9C  F002         	goto	i2l116
  3659   0000DE                     i2u428_40:
  3660   0000DE                     
  3661                           ;Aceleracion.c: 104:             precargaX = (int)(65536 - ((TIntx*250000)/1));
  3662   0000DE  0100               	movlb	0	; () banked
  3663   0000E0  05D0               	decf	_ac& (0+255),w,b
  3664   0000E2  11D1               	iorwf	(_ac+1)& (0+255),w,b
  3665   0000E4  A4D8               	btfss	status,2,c
  3666   0000E6  EF77  F000         	goto	i2u429_41
  3667   0000EA  EF79  F000         	goto	i2u429_40
  3668   0000EE                     i2u429_41:
  3669   0000EE  EF7D  F000         	goto	i2l3244
  3670   0000F2                     i2u429_40:
  3671   0000F2                     
  3672                           ; BSR set to: 0
  3673                           ;Aceleracion.c: 105:             precargaY = (int)(65536 - ((TInty*250000)/1));
  3674   0000F2  4A56               	infsnz	_counter^0,f,c
  3675   0000F4  2A57               	incf	(_counter+1)^0,f,c
  3676                           
  3677                           ;Aceleracion.c: 106:             TMR1 = precargaX;
  3678   0000F6  EF96  F000         	goto	i2l3252
  3679   0000FA                     i2l3244:
  3680                           
  3681                           ; BSR set to: 0
  3682   0000FA  0458               	decf	_des^0,w,c
  3683   0000FC  1059               	iorwf	(_des+1)^0,w,c
  3684   0000FE  A4D8               	btfss	status,2,c
  3685   000100  EF84  F000         	goto	i2u430_41
  3686   000104  EF86  F000         	goto	i2u430_40
  3687   000108                     i2u430_41:
  3688   000108  EF8B  F000         	goto	i2l3248
  3689   00010C                     i2u430_40:
  3690   00010C                     
  3691                           ; BSR set to: 0
  3692                           ;Aceleracion.c: 107:             TMR3 = precargaY;
  3693   00010C  0656               	decf	_counter^0,f,c
  3694   00010E  A0D8               	btfss	status,0,c
  3695   000110  0657               	decf	(_counter+1)^0,f,c
  3696                           
  3697                           ;Aceleracion.c: 108:             TMR1ON = 1;
  3698   000112  EF96  F000         	goto	i2l3252
  3699   000116                     i2l3248:
  3700                           
  3701                           ; BSR set to: 0
  3702   000116  05B2               	decf	_cru& (0+255),w,b
  3703   000118  11B3               	iorwf	(_cru+1)& (0+255),w,b
  3704   00011A  A4D8               	btfss	status,2,c
  3705   00011C  EF92  F000         	goto	i2u431_41
  3706   000120  EF94  F000         	goto	i2u431_40
  3707   000124                     i2u431_41:
  3708   000124  EF96  F000         	goto	i2l3252
  3709   000128                     i2u431_40:
  3710   000128                     
  3711                           ; BSR set to: 0
  3712                           ;Aceleracion.c: 109:             TMR3ON = 1;
  3713   000128  4BB0               	infsnz	_counterVC& (0+255),f,b
  3714   00012A  2BB1               	incf	(_counterVC+1)& (0+255),f,b
  3715   00012C                     i2l3252:
  3716                           
  3717                           ; BSR set to: 0
  3718                           ;Aceleracion.c: 112:         if(counter>=20 && ac==1){
  3719   00012C  BE57               	btfsc	(_counter+1)^0,7,c
  3720   00012E  EFA1  F000         	goto	i2u432_41
  3721   000132  5057               	movf	(_counter+1)^0,w,c
  3722   000134  E108               	bnz	i2u432_40
  3723   000136  0456               	decf	_counter^0,w,c
  3724   000138  A0D8               	btfss	status,0,c
  3725   00013A  EFA1  F000         	goto	i2u432_41
  3726   00013E  EFA3  F000         	goto	i2u432_40
  3727   000142                     i2u432_41:
  3728   000142  EF11  F002         	goto	i2l3268
  3729   000146                     i2u432_40:
  3730   000146                     
  3731                           ; BSR set to: 0
  3732   000146  05D0               	decf	_ac& (0+255),w,b
  3733   000148  11D1               	iorwf	(_ac+1)& (0+255),w,b
  3734   00014A  B4D8               	btfsc	status,2,c
  3735   00014C  EFAA  F000         	goto	i2u433_41
  3736   000150  EFAC  F000         	goto	i2u433_40
  3737   000154                     i2u433_41:
  3738   000154  EFB5  F000         	goto	i2l111
  3739   000158                     i2u433_40:
  3740   000158                     
  3741                           ; BSR set to: 0
  3742   000158  0458               	decf	_des^0,w,c
  3743   00015A  1059               	iorwf	(_des+1)^0,w,c
  3744   00015C  A4D8               	btfss	status,2,c
  3745   00015E  EFB3  F000         	goto	i2u434_41
  3746   000162  EFB5  F000         	goto	i2u434_40
  3747   000166                     i2u434_41:
  3748   000166  EF11  F002         	goto	i2l3268
  3749   00016A                     i2u434_40:
  3750   00016A                     i2l111:
  3751                           
  3752                           ; BSR set to: 0
  3753                           ;Aceleracion.c: 113:             ac=0;
  3754   00016A  90CD               	bcf	4045,0,c	;volatile
  3755                           
  3756                           ;Aceleracion.c: 114:             cru=1;
  3757   00016C  90B1               	bcf	4017,0,c	;volatile
  3758   00016E                     
  3759                           ; BSR set to: 0
  3760                           ;Aceleracion.c: 115:         }
  3761   00016E  C0C8  F013         	movff	_vCx,i2___flmul@a
  3762   000172  C0C9  F014         	movff	_vCx+1,i2___flmul@a+1
  3763   000176  C0CA  F015         	movff	_vCx+2,i2___flmul@a+2
  3764   00017A  C0CB  F016         	movff	_vCx+3,i2___flmul@a+3
  3765   00017E  C056  F001         	movff	_counter,i2___xxtofl@val
  3766   000182  C057  F002         	movff	_counter+1,i2___xxtofl@val+1
  3767   000186  0E00               	movlw	0
  3768   000188  BE02               	btfsc	(i2___xxtofl@val+1)^0,7,c
  3769   00018A  0EFF               	movlw	-1
  3770   00018C  6E03               	movwf	(i2___xxtofl@val+2)^0,c
  3771   00018E  6E04               	movwf	(i2___xxtofl@val+3)^0,c
  3772   000190  0E01               	movlw	1
  3773   000192  EC0B  F011         	call	i2___xxtofl
  3774   000196  C001  F00F         	movff	?i2___xxtofl,i2___flmul@b
  3775   00019A  C002  F010         	movff	?i2___xxtofl+1,i2___flmul@b+1
  3776   00019E  C003  F011         	movff	?i2___xxtofl+2,i2___flmul@b+2
  3777   0001A2  C004  F012         	movff	?i2___xxtofl+3,i2___flmul@b+3
  3778   0001A6  EC79  F009         	call	i2___flmul	;wreg free
  3779   0001AA  C00F  F028         	movff	?i2___flmul,i2___fldiv@b
  3780   0001AE  C010  F029         	movff	?i2___flmul+1,i2___fldiv@b+1
  3781   0001B2  C011  F02A         	movff	?i2___flmul+2,i2___fldiv@b+2
  3782   0001B6  C012  F02B         	movff	?i2___flmul+3,i2___fldiv@b+3
  3783   0001BA  0E00               	movlw	0
  3784   0001BC  6E2C               	movwf	i2___fldiv@a^0,c
  3785   0001BE  0E00               	movlw	0
  3786   0001C0  6E2D               	movwf	(i2___fldiv@a+1)^0,c
  3787   0001C2  0EA0               	movlw	160
  3788   0001C4  6E2E               	movwf	(i2___fldiv@a+2)^0,c
  3789   0001C6  0E41               	movlw	65
  3790   0001C8  6E2F               	movwf	(i2___fldiv@a+3)^0,c
  3791   0001CA  EC5C  F00D         	call	i2___fldiv	;wreg free
  3792   0001CE  C028  F0BC         	movff	?i2___fldiv,_vInsx
  3793   0001D2  C029  F0BD         	movff	?i2___fldiv+1,_vInsx+1
  3794   0001D6  C02A  F0BE         	movff	?i2___fldiv+2,_vInsx+2
  3795   0001DA  C02B  F0BF         	movff	?i2___fldiv+3,_vInsx+3
  3796                           
  3797                           ;Aceleracion.c: 116: 
  3798   0001DE  C0C4  F013         	movff	_vCy,i2___flmul@a
  3799   0001E2  C0C5  F014         	movff	_vCy+1,i2___flmul@a+1
  3800   0001E6  C0C6  F015         	movff	_vCy+2,i2___flmul@a+2
  3801   0001EA  C0C7  F016         	movff	_vCy+3,i2___flmul@a+3
  3802   0001EE  C056  F001         	movff	_counter,i2___xxtofl@val
  3803   0001F2  C057  F002         	movff	_counter+1,i2___xxtofl@val+1
  3804   0001F6  0E00               	movlw	0
  3805   0001F8  BE02               	btfsc	(i2___xxtofl@val+1)^0,7,c
  3806   0001FA  0EFF               	movlw	-1
  3807   0001FC  6E03               	movwf	(i2___xxtofl@val+2)^0,c
  3808   0001FE  6E04               	movwf	(i2___xxtofl@val+3)^0,c
  3809   000200  0E01               	movlw	1
  3810   000202  EC0B  F011         	call	i2___xxtofl
  3811   000206  C001  F00F         	movff	?i2___xxtofl,i2___flmul@b
  3812   00020A  C002  F010         	movff	?i2___xxtofl+1,i2___flmul@b+1
  3813   00020E  C003  F011         	movff	?i2___xxtofl+2,i2___flmul@b+2
  3814   000212  C004  F012         	movff	?i2___xxtofl+3,i2___flmul@b+3
  3815   000216  EC79  F009         	call	i2___flmul	;wreg free
  3816   00021A  C00F  F028         	movff	?i2___flmul,i2___fldiv@b
  3817   00021E  C010  F029         	movff	?i2___flmul+1,i2___fldiv@b+1
  3818   000222  C011  F02A         	movff	?i2___flmul+2,i2___fldiv@b+2
  3819   000226  C012  F02B         	movff	?i2___flmul+3,i2___fldiv@b+3
  3820   00022A  0E00               	movlw	0
  3821   00022C  6E2C               	movwf	i2___fldiv@a^0,c
  3822   00022E  0E00               	movlw	0
  3823   000230  6E2D               	movwf	(i2___fldiv@a+1)^0,c
  3824   000232  0EA0               	movlw	160
  3825   000234  6E2E               	movwf	(i2___fldiv@a+2)^0,c
  3826   000236  0E41               	movlw	65
  3827   000238  6E2F               	movwf	(i2___fldiv@a+3)^0,c
  3828   00023A  EC5C  F00D         	call	i2___fldiv	;wreg free
  3829   00023E  C028  F0AC         	movff	?i2___fldiv,_vInsy
  3830   000242  C029  F0AD         	movff	?i2___fldiv+1,_vInsy+1
  3831   000246  C02A  F0AE         	movff	?i2___fldiv+2,_vInsy+2
  3832   00024A  C02B  F0AF         	movff	?i2___fldiv+3,_vInsy+3
  3833                           
  3834                           ;Aceleracion.c: 117:         if(counterVC>=20&&cru ==1){
  3835   00024E  0E00               	movlw	0
  3836   000250  6E28               	movwf	i2___fldiv@b^0,c
  3837   000252  0E00               	movlw	0
  3838   000254  6E29               	movwf	(i2___fldiv@b+1)^0,c
  3839   000256  0E80               	movlw	128
  3840   000258  6E2A               	movwf	(i2___fldiv@b+2)^0,c
  3841   00025A  0E3F               	movlw	63
  3842   00025C  6E2B               	movwf	(i2___fldiv@b+3)^0,c
  3843   00025E  0E00               	movlw	0
  3844   000260  6E13               	movwf	i2___flmul@a^0,c
  3845   000262  0E00               	movlw	0
  3846   000264  6E14               	movwf	(i2___flmul@a+1)^0,c
  3847   000266  0E00               	movlw	0
  3848   000268  6E15               	movwf	(i2___flmul@a+2)^0,c
  3849   00026A  0E40               	movlw	64
  3850   00026C  6E16               	movwf	(i2___flmul@a+3)^0,c
  3851   00026E  C0BC  F00F         	movff	_vInsx,i2___flmul@b
  3852   000272  C0BD  F010         	movff	_vInsx+1,i2___flmul@b+1
  3853   000276  C0BE  F011         	movff	_vInsx+2,i2___flmul@b+2
  3854   00027A  C0BF  F012         	movff	_vInsx+3,i2___flmul@b+3
  3855   00027E  EC79  F009         	call	i2___flmul	;wreg free
  3856   000282  C00F  F02C         	movff	?i2___flmul,i2___fldiv@a
  3857   000286  C010  F02D         	movff	?i2___flmul+1,i2___fldiv@a+1
  3858   00028A  C011  F02E         	movff	?i2___flmul+2,i2___fldiv@a+2
  3859   00028E  C012  F02F         	movff	?i2___flmul+3,i2___fldiv@a+3
  3860   000292  EC5C  F00D         	call	i2___fldiv	;wreg free
  3861   000296  C028  F0A8         	movff	?i2___fldiv,_TIntx
  3862   00029A  C029  F0A9         	movff	?i2___fldiv+1,_TIntx+1
  3863   00029E  C02A  F0AA         	movff	?i2___fldiv+2,_TIntx+2
  3864   0002A2  C02B  F0AB         	movff	?i2___fldiv+3,_TIntx+3
  3865                           
  3866                           ;Aceleracion.c: 118:             cru=0;
  3867   0002A6  0E00               	movlw	0
  3868   0002A8  6E28               	movwf	i2___fldiv@b^0,c
  3869   0002AA  0E00               	movlw	0
  3870   0002AC  6E29               	movwf	(i2___fldiv@b+1)^0,c
  3871   0002AE  0E80               	movlw	128
  3872   0002B0  6E2A               	movwf	(i2___fldiv@b+2)^0,c
  3873   0002B2  0E3F               	movlw	63
  3874   0002B4  6E2B               	movwf	(i2___fldiv@b+3)^0,c
  3875   0002B6  0E00               	movlw	0
  3876   0002B8  6E13               	movwf	i2___flmul@a^0,c
  3877   0002BA  0E00               	movlw	0
  3878   0002BC  6E14               	movwf	(i2___flmul@a+1)^0,c
  3879   0002BE  0E00               	movlw	0
  3880   0002C0  6E15               	movwf	(i2___flmul@a+2)^0,c
  3881   0002C2  0E40               	movlw	64
  3882   0002C4  6E16               	movwf	(i2___flmul@a+3)^0,c
  3883   0002C6  C0BC  F00F         	movff	_vInsx,i2___flmul@b
  3884   0002CA  C0BD  F010         	movff	_vInsx+1,i2___flmul@b+1
  3885   0002CE  C0BE  F011         	movff	_vInsx+2,i2___flmul@b+2
  3886   0002D2  C0BF  F012         	movff	_vInsx+3,i2___flmul@b+3
  3887   0002D6  EC79  F009         	call	i2___flmul	;wreg free
  3888   0002DA  C00F  F02C         	movff	?i2___flmul,i2___fldiv@a
  3889   0002DE  C010  F02D         	movff	?i2___flmul+1,i2___fldiv@a+1
  3890   0002E2  C011  F02E         	movff	?i2___flmul+2,i2___fldiv@a+2
  3891   0002E6  C012  F02F         	movff	?i2___flmul+3,i2___fldiv@a+3
  3892   0002EA  EC5C  F00D         	call	i2___fldiv	;wreg free
  3893   0002EE  C028  F0A4         	movff	?i2___fldiv,_TInty
  3894   0002F2  C029  F0A5         	movff	?i2___fldiv+1,_TInty+1
  3895   0002F6  C02A  F0A6         	movff	?i2___fldiv+2,_TInty+2
  3896   0002FA  C02B  F0A7         	movff	?i2___fldiv+3,_TInty+3
  3897                           
  3898                           ;Aceleracion.c: 119:             counterVC = 0;
  3899   0002FE  0E00               	movlw	0
  3900   000300  6E2C               	movwf	i2___fldiv@a^0,c
  3901   000302  0E00               	movlw	0
  3902   000304  6E2D               	movwf	(i2___fldiv@a+1)^0,c
  3903   000306  0E80               	movlw	128
  3904   000308  6E2E               	movwf	(i2___fldiv@a+2)^0,c
  3905   00030A  0E3F               	movlw	63
  3906   00030C  6E2F               	movwf	(i2___fldiv@a+3)^0,c
  3907   00030E  0E00               	movlw	0
  3908   000310  6E13               	movwf	i2___flmul@a^0,c
  3909   000312  0E24               	movlw	36
  3910   000314  6E14               	movwf	(i2___flmul@a+1)^0,c
  3911   000316  0E74               	movlw	116
  3912   000318  6E15               	movwf	(i2___flmul@a+2)^0,c
  3913   00031A  0E48               	movlw	72
  3914   00031C  6E16               	movwf	(i2___flmul@a+3)^0,c
  3915   00031E  C0A8  F00F         	movff	_TIntx,i2___flmul@b
  3916   000322  C0A9  F010         	movff	_TIntx+1,i2___flmul@b+1
  3917   000326  C0AA  F011         	movff	_TIntx+2,i2___flmul@b+2
  3918   00032A  C0AB  F012         	movff	_TIntx+3,i2___flmul@b+3
  3919   00032E  EC79  F009         	call	i2___flmul	;wreg free
  3920   000332  C00F  F028         	movff	?i2___flmul,i2___fldiv@b
  3921   000336  C010  F029         	movff	?i2___flmul+1,i2___fldiv@b+1
  3922   00033A  C011  F02A         	movff	?i2___flmul+2,i2___fldiv@b+2
  3923   00033E  C012  F02B         	movff	?i2___flmul+3,i2___fldiv@b+3
  3924   000342  EC5C  F00D         	call	i2___fldiv	;wreg free
  3925   000346  C028  F045         	movff	?i2___fldiv,i2___flsub@a
  3926   00034A  C029  F046         	movff	?i2___fldiv+1,i2___flsub@a+1
  3927   00034E  C02A  F047         	movff	?i2___fldiv+2,i2___flsub@a+2
  3928   000352  C02B  F048         	movff	?i2___fldiv+3,i2___flsub@a+3
  3929   000356  0E00               	movlw	0
  3930   000358  6E41               	movwf	i2___flsub@b^0,c
  3931   00035A  0E00               	movlw	0
  3932   00035C  6E42               	movwf	(i2___flsub@b+1)^0,c
  3933   00035E  0E80               	movlw	128
  3934   000360  6E43               	movwf	(i2___flsub@b+2)^0,c
  3935   000362  0E47               	movlw	71
  3936   000364  6E44               	movwf	(i2___flsub@b+3)^0,c
  3937   000366  EC10  F013         	call	i2___flsub	;wreg free
  3938   00036A  C041  F049         	movff	?i2___flsub,i2___fltol@f1
  3939   00036E  C042  F04A         	movff	?i2___flsub+1,i2___fltol@f1+1
  3940   000372  C043  F04B         	movff	?i2___flsub+2,i2___fltol@f1+2
  3941   000376  C044  F04C         	movff	?i2___flsub+3,i2___fltol@f1+3
  3942   00037A  EC69  F012         	call	i2___fltol	;wreg free
  3943   00037E  C049  F0B6         	movff	?i2___fltol,_precargaX
  3944   000382  C04A  F0B7         	movff	?i2___fltol+1,_precargaX+1
  3945                           
  3946                           ;Aceleracion.c: 120:             des=1;
  3947   000386  0E00               	movlw	0
  3948   000388  6E2C               	movwf	i2___fldiv@a^0,c
  3949   00038A  0E00               	movlw	0
  3950   00038C  6E2D               	movwf	(i2___fldiv@a+1)^0,c
  3951   00038E  0E80               	movlw	128
  3952   000390  6E2E               	movwf	(i2___fldiv@a+2)^0,c
  3953   000392  0E3F               	movlw	63
  3954   000394  6E2F               	movwf	(i2___fldiv@a+3)^0,c
  3955   000396  0E00               	movlw	0
  3956   000398  6E13               	movwf	i2___flmul@a^0,c
  3957   00039A  0E24               	movlw	36
  3958   00039C  6E14               	movwf	(i2___flmul@a+1)^0,c
  3959   00039E  0E74               	movlw	116
  3960   0003A0  6E15               	movwf	(i2___flmul@a+2)^0,c
  3961   0003A2  0E48               	movlw	72
  3962   0003A4  6E16               	movwf	(i2___flmul@a+3)^0,c
  3963   0003A6  C0A4  F00F         	movff	_TInty,i2___flmul@b
  3964   0003AA  C0A5  F010         	movff	_TInty+1,i2___flmul@b+1
  3965   0003AE  C0A6  F011         	movff	_TInty+2,i2___flmul@b+2
  3966   0003B2  C0A7  F012         	movff	_TInty+3,i2___flmul@b+3
  3967   0003B6  EC79  F009         	call	i2___flmul	;wreg free
  3968   0003BA  C00F  F028         	movff	?i2___flmul,i2___fldiv@b
  3969   0003BE  C010  F029         	movff	?i2___flmul+1,i2___fldiv@b+1
  3970   0003C2  C011  F02A         	movff	?i2___flmul+2,i2___fldiv@b+2
  3971   0003C6  C012  F02B         	movff	?i2___flmul+3,i2___fldiv@b+3
  3972   0003CA  EC5C  F00D         	call	i2___fldiv	;wreg free
  3973   0003CE  C028  F045         	movff	?i2___fldiv,i2___flsub@a
  3974   0003D2  C029  F046         	movff	?i2___fldiv+1,i2___flsub@a+1
  3975   0003D6  C02A  F047         	movff	?i2___fldiv+2,i2___flsub@a+2
  3976   0003DA  C02B  F048         	movff	?i2___fldiv+3,i2___flsub@a+3
  3977   0003DE  0E00               	movlw	0
  3978   0003E0  6E41               	movwf	i2___flsub@b^0,c
  3979   0003E2  0E00               	movlw	0
  3980   0003E4  6E42               	movwf	(i2___flsub@b+1)^0,c
  3981   0003E6  0E80               	movlw	128
  3982   0003E8  6E43               	movwf	(i2___flsub@b+2)^0,c
  3983   0003EA  0E47               	movlw	71
  3984   0003EC  6E44               	movwf	(i2___flsub@b+3)^0,c
  3985   0003EE  EC10  F013         	call	i2___flsub	;wreg free
  3986   0003F2  C041  F049         	movff	?i2___flsub,i2___fltol@f1
  3987   0003F6  C042  F04A         	movff	?i2___flsub+1,i2___fltol@f1+1
  3988   0003FA  C043  F04B         	movff	?i2___flsub+2,i2___fltol@f1+2
  3989   0003FE  C044  F04C         	movff	?i2___flsub+3,i2___fltol@f1+3
  3990   000402  EC69  F012         	call	i2___fltol	;wreg free
  3991   000406  C049  F0B4         	movff	?i2___fltol,_precargaY
  3992   00040A  C04A  F0B5         	movff	?i2___fltol+1,_precargaY+1
  3993   00040E                     
  3994                           ;Aceleracion.c: 121:         }
  3995   00040E  C0B6  FFCE         	movff	_precargaX,4046	;volatile
  3996   000412  C0B7  FFCF         	movff	_precargaX+1,4047	;volatile
  3997   000416                     
  3998                           ;Aceleracion.c: 122: 
  3999   000416  C0B4  FFB2         	movff	_precargaY,4018	;volatile
  4000   00041A  C0B5  FFB3         	movff	_precargaY+1,4019	;volatile
  4001   00041E                     
  4002                           ;Aceleracion.c: 123:         if(counter<=0 && des==1){
  4003   00041E  80CD               	bsf	4045,0,c	;volatile
  4004   000420                     
  4005                           ;Aceleracion.c: 124:             if(pasosXDados>=pasosX && pasosYDados>=pasosY){
  4006   000420  80B1               	bsf	4017,0,c	;volatile
  4007   000422                     i2l3268:
  4008                           
  4009                           ;Aceleracion.c: 127:                 counter=0;
  4010   000422  BE57               	btfsc	(_counter+1)^0,7,c
  4011   000424  EF1D  F002         	goto	i2u435_41
  4012   000428  5057               	movf	(_counter+1)^0,w,c
  4013   00042A  E109               	bnz	i2u435_40
  4014   00042C  0E14               	movlw	20
  4015   00042E  5C56               	subwf	_counter^0,w,c
  4016   000430  A0D8               	btfss	status,0,c
  4017   000432  EF1D  F002         	goto	i2u435_41
  4018   000436  EF1F  F002         	goto	i2u435_40
  4019   00043A                     i2u435_41:
  4020   00043A  EF31  F002         	goto	i2l3274
  4021   00043E                     i2u435_40:
  4022   00043E  0100               	movlb	0	; () banked
  4023   000440  05D0               	decf	_ac& (0+255),w,b
  4024   000442  11D1               	iorwf	(_ac+1)& (0+255),w,b
  4025   000444  A4D8               	btfss	status,2,c
  4026   000446  EF27  F002         	goto	i2u436_41
  4027   00044A  EF29  F002         	goto	i2u436_40
  4028   00044E                     i2u436_41:
  4029   00044E  EF31  F002         	goto	i2l3274
  4030   000452                     i2u436_40:
  4031   000452                     
  4032                           ; BSR set to: 0
  4033                           ;Aceleracion.c: 128:                 des=0;
  4034   000452  0E00               	movlw	0
  4035   000454  6FD1               	movwf	(_ac+1)& (0+255),b
  4036   000456  0E00               	movlw	0
  4037   000458  6FD0               	movwf	_ac& (0+255),b
  4038                           
  4039                           ;Aceleracion.c: 129:                 TMR1ON = 0;
  4040   00045A  0E00               	movlw	0
  4041   00045C  6FB3               	movwf	(_cru+1)& (0+255),b
  4042   00045E  0E01               	movlw	1
  4043   000460  6FB2               	movwf	_cru& (0+255),b
  4044   000462                     i2l3274:
  4045                           
  4046                           ;Aceleracion.c: 132:             }
  4047   000462  0100               	movlb	0	; () banked
  4048   000464  BFB1               	btfsc	(_counterVC+1)& (0+255),7,b
  4049   000466  EF3E  F002         	goto	i2u437_41
  4050   00046A  51B1               	movf	(_counterVC+1)& (0+255),w,b
  4051   00046C  E109               	bnz	i2u437_40
  4052   00046E  0E14               	movlw	20
  4053   000470  5DB0               	subwf	_counterVC& (0+255),w,b
  4054   000472  A0D8               	btfss	status,0,c
  4055   000474  EF3E  F002         	goto	i2u437_41
  4056   000478  EF40  F002         	goto	i2u437_40
  4057   00047C                     i2u437_41:
  4058   00047C  EF55  F002         	goto	i2l3280
  4059   000480                     i2u437_40:
  4060   000480                     
  4061                           ; BSR set to: 0
  4062   000480  05B2               	decf	_cru& (0+255),w,b
  4063   000482  11B3               	iorwf	(_cru+1)& (0+255),w,b
  4064   000484  A4D8               	btfss	status,2,c
  4065   000486  EF47  F002         	goto	i2u438_41
  4066   00048A  EF49  F002         	goto	i2u438_40
  4067   00048E                     i2u438_41:
  4068   00048E  EF55  F002         	goto	i2l3280
  4069   000492                     i2u438_40:
  4070   000492                     
  4071                           ; BSR set to: 0
  4072                           ;Aceleracion.c: 133:         }
  4073   000492  0E00               	movlw	0
  4074   000494  6FB3               	movwf	(_cru+1)& (0+255),b
  4075   000496  0E00               	movlw	0
  4076   000498  6FB2               	movwf	_cru& (0+255),b
  4077                           
  4078                           ;Aceleracion.c: 134: 
  4079   00049A  0E00               	movlw	0
  4080   00049C  6FB1               	movwf	(_counterVC+1)& (0+255),b
  4081   00049E  0E00               	movlw	0
  4082   0004A0  6FB0               	movwf	_counterVC& (0+255),b
  4083                           
  4084                           ;Aceleracion.c: 135: 
  4085   0004A2  0E00               	movlw	0
  4086   0004A4  6E59               	movwf	(_des+1)^0,c
  4087   0004A6  0E01               	movlw	1
  4088   0004A8  6E58               	movwf	_des^0,c
  4089   0004AA                     i2l3280:
  4090                           
  4091                           ; BSR set to: 0
  4092   0004AA  BE57               	btfsc	(_counter+1)^0,7,c
  4093   0004AC  EF62  F002         	goto	i2u439_40
  4094   0004B0  5057               	movf	(_counter+1)^0,w,c
  4095   0004B2  E106               	bnz	i2u439_41
  4096   0004B4  0456               	decf	_counter^0,w,c
  4097   0004B6  B0D8               	btfsc	status,0,c
  4098   0004B8  EF60  F002         	goto	i2u439_41
  4099   0004BC  EF62  F002         	goto	i2u439_40
  4100   0004C0                     i2u439_41:
  4101   0004C0  EF9C  F002         	goto	i2l116
  4102   0004C4                     i2u439_40:
  4103   0004C4                     
  4104                           ; BSR set to: 0
  4105   0004C4  0458               	decf	_des^0,w,c
  4106   0004C6  1059               	iorwf	(_des+1)^0,w,c
  4107   0004C8  A4D8               	btfss	status,2,c
  4108   0004CA  EF69  F002         	goto	i2u440_41
  4109   0004CE  EF6B  F002         	goto	i2u440_40
  4110   0004D2                     i2u440_41:
  4111   0004D2  EF9C  F002         	goto	i2l116
  4112   0004D6                     i2u440_40:
  4113   0004D6                     
  4114                           ; BSR set to: 0
  4115   0004D6  51D4               	movf	_pasosX& (0+255),w,b
  4116   0004D8  5C5C               	subwf	_pasosXDados^0,w,c
  4117   0004DA  505D               	movf	(_pasosXDados+1)^0,w,c
  4118   0004DC  0A80               	xorlw	128
  4119   0004DE  6E53               	movwf	??_ISR^0,c
  4120   0004E0  51D5               	movf	(_pasosX+1)& (0+255),w,b
  4121   0004E2  0A80               	xorlw	128
  4122   0004E4  5853               	subwfb	??_ISR^0,w,c
  4123   0004E6  A0D8               	btfss	status,0,c
  4124   0004E8  EF78  F002         	goto	i2u441_41
  4125   0004EC  EF7A  F002         	goto	i2u441_40
  4126   0004F0                     i2u441_41:
  4127   0004F0  EF9C  F002         	goto	i2l116
  4128   0004F4                     i2u441_40:
  4129   0004F4                     
  4130                           ; BSR set to: 0
  4131   0004F4  51D2               	movf	_pasosY& (0+255),w,b
  4132   0004F6  5C5A               	subwf	_pasosYDados^0,w,c
  4133   0004F8  505B               	movf	(_pasosYDados+1)^0,w,c
  4134   0004FA  0A80               	xorlw	128
  4135   0004FC  6E53               	movwf	??_ISR^0,c
  4136   0004FE  51D3               	movf	(_pasosY+1)& (0+255),w,b
  4137   000500  0A80               	xorlw	128
  4138   000502  5853               	subwfb	??_ISR^0,w,c
  4139   000504  A0D8               	btfss	status,0,c
  4140   000506  EF87  F002         	goto	i2u442_41
  4141   00050A  EF89  F002         	goto	i2u442_40
  4142   00050E                     i2u442_41:
  4143   00050E  EF9C  F002         	goto	i2l116
  4144   000512                     i2u442_40:
  4145   000512                     
  4146                           ; BSR set to: 0
  4147   000512  0E00               	movlw	0
  4148   000514  6E5D               	movwf	(_pasosXDados+1)^0,c
  4149   000516  0E00               	movlw	0
  4150   000518  6E5C               	movwf	_pasosXDados^0,c
  4151   00051A  0E00               	movlw	0
  4152   00051C  6E5B               	movwf	(_pasosYDados+1)^0,c
  4153   00051E  0E00               	movlw	0
  4154   000520  6E5A               	movwf	_pasosYDados^0,c
  4155   000522  0E00               	movlw	0
  4156   000524  6E57               	movwf	(_counter+1)^0,c
  4157   000526  0E00               	movlw	0
  4158   000528  6E56               	movwf	_counter^0,c
  4159   00052A  0E00               	movlw	0
  4160   00052C  6E59               	movwf	(_des+1)^0,c
  4161   00052E  0E00               	movlw	0
  4162   000530  6E58               	movwf	_des^0,c
  4163   000532                     
  4164                           ; BSR set to: 0
  4165   000532  90CD               	bcf	4045,0,c	;volatile
  4166   000534                     
  4167                           ; BSR set to: 0
  4168   000534  90B1               	bcf	4017,0,c	;volatile
  4169   000536                     
  4170                           ; BSR set to: 0
  4171   000536  9ED5               	bcf	4053,7,c	;volatile
  4172   000538                     i2l116:
  4173   000538  C055  FFF4         	movff	??_ISR+2,prodh
  4174   00053C  C054  FFF3         	movff	??_ISR+1,prodl
  4175   000540  925E               	bcf	int$flags,1,c	;clear compiler interrupt flag (level 2)
  4176   000542  0011               	retfie		f
  4177   000544                     __end_of_ISR:
  4178                           	callstack 0
  4179                           
  4180 ;; *************** function i2___xxtofl *****************
  4181 ;; Defined at:
  4182 ;;		line 10 in file "C:\Program Files\Microchip\xc8\v2.40\pic\sources\c99\common\xxtofl.c"
  4183 ;; Parameters:    Size  Location     Type
  4184 ;;  sign            1    wreg     unsigned char 
  4185 ;;  val             4    0[COMRAM] long 
  4186 ;; Auto vars:     Size  Location     Type
  4187 ;;  sign            1    8[COMRAM] unsigned char 
  4188 ;;  arg             4   10[COMRAM] unsigned long 
  4189 ;;  exp             1    9[COMRAM] unsigned char 
  4190 ;; Return value:  Size  Location     Type
  4191 ;;                  4    0[COMRAM] unsigned char 
  4192 ;; Registers used:
  4193 ;;		wreg, status,2, status,0
  4194 ;; Tracked objects:
  4195 ;;		On entry : 0/0
  4196 ;;		On exit  : 0/0
  4197 ;;		Unchanged: 0/0
  4198 ;; Data sizes:     COMRAM   BANK0   BANK1   BANK2   BANK3   BANK4   BANK5   BANK6   BANK7
  4199 ;;      Params:         4       0       0       0       0       0       0       0       0
  4200 ;;      Locals:         6       0       0       0       0       0       0       0       0
  4201 ;;      Temps:          4       0       0       0       0       0       0       0       0
  4202 ;;      Totals:        14       0       0       0       0       0       0       0       0
  4203 ;;Total ram usage:       14 bytes
  4204 ;; Hardware stack levels used: 1
  4205 ;; This function calls:
  4206 ;;		Nothing
  4207 ;; This function is called by:
  4208 ;;		_ISR
  4209 ;; This function uses a non-reentrant model
  4210 ;;
  4211                           
  4212                           	psect	text8
  4213   002216                     __ptext8:
  4214                           	callstack 0
  4215   002216                     i2___xxtofl:
  4216                           	callstack 27
  4217                           
  4218                           ;incstack = 0
  4219                           ;i2___xxtofl@sign stored from wreg
  4220   002216  6E09               	movwf	i2___xxtofl@sign^0,c
  4221   002218  5009               	movf	i2___xxtofl@sign^0,w,c
  4222   00221A  B4D8               	btfsc	status,2,c
  4223   00221C  EF12  F011         	goto	i2u408_41
  4224   002220  EF14  F011         	goto	i2u408_40
  4225   002224                     i2u408_41:
  4226   002224  EF36  F011         	goto	i2l774
  4227   002228                     i2u408_40:
  4228   002228  BE04               	btfsc	(i2___xxtofl@val+3)^0,7,c
  4229   00222A  EF1B  F011         	goto	i2u409_40
  4230   00222E  EF19  F011         	goto	i2u409_41
  4231   002232                     i2u409_41:
  4232   002232  EF36  F011         	goto	i2l774
  4233   002236                     i2u409_40:
  4234   002236  C001  F005         	movff	i2___xxtofl@val,??i2___xxtofl
  4235   00223A  C002  F006         	movff	i2___xxtofl@val+1,??i2___xxtofl+1
  4236   00223E  C003  F007         	movff	i2___xxtofl@val+2,??i2___xxtofl+2
  4237   002242  C004  F008         	movff	i2___xxtofl@val+3,??i2___xxtofl+3
  4238   002246  1E05               	comf	??i2___xxtofl^0,f,c
  4239   002248  1E06               	comf	(??i2___xxtofl+1)^0,f,c
  4240   00224A  1E07               	comf	(??i2___xxtofl+2)^0,f,c
  4241   00224C  1E08               	comf	(??i2___xxtofl+3)^0,f,c
  4242   00224E  2A05               	incf	??i2___xxtofl^0,f,c
  4243   002250  0E00               	movlw	0
  4244   002252  2206               	addwfc	(??i2___xxtofl+1)^0,f,c
  4245   002254  2207               	addwfc	(??i2___xxtofl+2)^0,f,c
  4246   002256  2208               	addwfc	(??i2___xxtofl+3)^0,f,c
  4247   002258  C005  F00B         	movff	??i2___xxtofl,i2___xxtofl@arg
  4248   00225C  C006  F00C         	movff	??i2___xxtofl+1,i2___xxtofl@arg+1
  4249   002260  C007  F00D         	movff	??i2___xxtofl+2,i2___xxtofl@arg+2
  4250   002264  C008  F00E         	movff	??i2___xxtofl+3,i2___xxtofl@arg+3
  4251   002268  EF3E  F011         	goto	i2l3136
  4252   00226C                     i2l774:
  4253   00226C  C001  F00B         	movff	i2___xxtofl@val,i2___xxtofl@arg
  4254   002270  C002  F00C         	movff	i2___xxtofl@val+1,i2___xxtofl@arg+1
  4255   002274  C003  F00D         	movff	i2___xxtofl@val+2,i2___xxtofl@arg+2
  4256   002278  C004  F00E         	movff	i2___xxtofl@val+3,i2___xxtofl@arg+3
  4257   00227C                     i2l3136:
  4258   00227C  5001               	movf	i2___xxtofl@val^0,w,c
  4259   00227E  1002               	iorwf	(i2___xxtofl@val+1)^0,w,c
  4260   002280  1003               	iorwf	(i2___xxtofl@val+2)^0,w,c
  4261   002282  1004               	iorwf	(i2___xxtofl@val+3)^0,w,c
  4262   002284  A4D8               	btfss	status,2,c
  4263   002286  EF47  F011         	goto	i2u410_41
  4264   00228A  EF49  F011         	goto	i2u410_40
  4265   00228E                     i2u410_41:
  4266   00228E  EF53  F011         	goto	i2l3142
  4267   002292                     i2u410_40:
  4268   002292  0E00               	movlw	0
  4269   002294  6E01               	movwf	?i2___xxtofl^0,c
  4270   002296  0E00               	movlw	0
  4271   002298  6E02               	movwf	(?i2___xxtofl+1)^0,c
  4272   00229A  0E00               	movlw	0
  4273   00229C  6E03               	movwf	(?i2___xxtofl+2)^0,c
  4274   00229E  0E00               	movlw	0
  4275   0022A0  6E04               	movwf	(?i2___xxtofl+3)^0,c
  4276   0022A2  EFE4  F011         	goto	i2l777
  4277   0022A6                     i2l3142:
  4278   0022A6  0E96               	movlw	150
  4279   0022A8  6E0A               	movwf	i2___xxtofl@exp^0,c
  4280   0022AA  EF5D  F011         	goto	i2l3146
  4281   0022AE                     i2l3144:
  4282   0022AE  2A0A               	incf	i2___xxtofl@exp^0,f,c
  4283   0022B0  90D8               	bcf	status,0,c
  4284   0022B2  320E               	rrcf	(i2___xxtofl@arg+3)^0,f,c
  4285   0022B4  320D               	rrcf	(i2___xxtofl@arg+2)^0,f,c
  4286   0022B6  320C               	rrcf	(i2___xxtofl@arg+1)^0,f,c
  4287   0022B8  320B               	rrcf	i2___xxtofl@arg^0,f,c
  4288   0022BA                     i2l3146:
  4289   0022BA  0E00               	movlw	0
  4290   0022BC  140B               	andwf	i2___xxtofl@arg^0,w,c
  4291   0022BE  6E05               	movwf	??i2___xxtofl^0,c
  4292   0022C0  0E00               	movlw	0
  4293   0022C2  140C               	andwf	(i2___xxtofl@arg+1)^0,w,c
  4294   0022C4  6E06               	movwf	(??i2___xxtofl+1)^0,c
  4295   0022C6  0E00               	movlw	0
  4296   0022C8  140D               	andwf	(i2___xxtofl@arg+2)^0,w,c
  4297   0022CA  6E07               	movwf	(??i2___xxtofl+2)^0,c
  4298   0022CC  0EFE               	movlw	254
  4299   0022CE  140E               	andwf	(i2___xxtofl@arg+3)^0,w,c
  4300   0022D0  6E08               	movwf	(??i2___xxtofl+3)^0,c
  4301   0022D2  5005               	movf	??i2___xxtofl^0,w,c
  4302   0022D4  1006               	iorwf	(??i2___xxtofl+1)^0,w,c
  4303   0022D6  1007               	iorwf	(??i2___xxtofl+2)^0,w,c
  4304   0022D8  1008               	iorwf	(??i2___xxtofl+3)^0,w,c
  4305   0022DA  A4D8               	btfss	status,2,c
  4306   0022DC  EF72  F011         	goto	i2u411_41
  4307   0022E0  EF74  F011         	goto	i2u411_40
  4308   0022E4                     i2u411_41:
  4309   0022E4  EF57  F011         	goto	i2l3144
  4310   0022E8                     i2u411_40:
  4311   0022E8  EF82  F011         	goto	i2l781
  4312   0022EC                     i2l3148:
  4313   0022EC  2A0A               	incf	i2___xxtofl@exp^0,f,c
  4314   0022EE  0E01               	movlw	1
  4315   0022F0  260B               	addwf	i2___xxtofl@arg^0,f,c
  4316   0022F2  0E00               	movlw	0
  4317   0022F4  220C               	addwfc	(i2___xxtofl@arg+1)^0,f,c
  4318   0022F6  220D               	addwfc	(i2___xxtofl@arg+2)^0,f,c
  4319   0022F8  220E               	addwfc	(i2___xxtofl@arg+3)^0,f,c
  4320   0022FA  90D8               	bcf	status,0,c
  4321   0022FC  320E               	rrcf	(i2___xxtofl@arg+3)^0,f,c
  4322   0022FE  320D               	rrcf	(i2___xxtofl@arg+2)^0,f,c
  4323   002300  320C               	rrcf	(i2___xxtofl@arg+1)^0,f,c
  4324   002302  320B               	rrcf	i2___xxtofl@arg^0,f,c
  4325   002304                     i2l781:
  4326   002304  0E00               	movlw	0
  4327   002306  140B               	andwf	i2___xxtofl@arg^0,w,c
  4328   002308  6E05               	movwf	??i2___xxtofl^0,c
  4329   00230A  0E00               	movlw	0
  4330   00230C  140C               	andwf	(i2___xxtofl@arg+1)^0,w,c
  4331   00230E  6E06               	movwf	(??i2___xxtofl+1)^0,c
  4332   002310  0E00               	movlw	0
  4333   002312  140D               	andwf	(i2___xxtofl@arg+2)^0,w,c
  4334   002314  6E07               	movwf	(??i2___xxtofl+2)^0,c
  4335   002316  0EFF               	movlw	255
  4336   002318  140E               	andwf	(i2___xxtofl@arg+3)^0,w,c
  4337   00231A  6E08               	movwf	(??i2___xxtofl+3)^0,c
  4338   00231C  5005               	movf	??i2___xxtofl^0,w,c
  4339   00231E  1006               	iorwf	(??i2___xxtofl+1)^0,w,c
  4340   002320  1007               	iorwf	(??i2___xxtofl+2)^0,w,c
  4341   002322  1008               	iorwf	(??i2___xxtofl+3)^0,w,c
  4342   002324  A4D8               	btfss	status,2,c
  4343   002326  EF97  F011         	goto	i2u412_41
  4344   00232A  EF99  F011         	goto	i2u412_40
  4345   00232E                     i2u412_41:
  4346   00232E  EF76  F011         	goto	i2l3148
  4347   002332                     i2u412_40:
  4348   002332  EFA1  F011         	goto	i2l3156
  4349   002336                     i2l3154:
  4350   002336  060A               	decf	i2___xxtofl@exp^0,f,c
  4351   002338  90D8               	bcf	status,0,c
  4352   00233A  360B               	rlcf	i2___xxtofl@arg^0,f,c
  4353   00233C  360C               	rlcf	(i2___xxtofl@arg+1)^0,f,c
  4354   00233E  360D               	rlcf	(i2___xxtofl@arg+2)^0,f,c
  4355   002340  360E               	rlcf	(i2___xxtofl@arg+3)^0,f,c
  4356   002342                     i2l3156:
  4357   002342  BE0D               	btfsc	(i2___xxtofl@arg+2)^0,7,c
  4358   002344  EFA6  F011         	goto	i2u413_41
  4359   002348  EFA8  F011         	goto	i2u413_40
  4360   00234C                     i2u413_41:
  4361   00234C  EFB0  F011         	goto	i2l788
  4362   002350                     i2u413_40:
  4363   002350  0E02               	movlw	2
  4364   002352  600A               	cpfslt	i2___xxtofl@exp^0,c
  4365   002354  EFAE  F011         	goto	i2u414_41
  4366   002358  EFB0  F011         	goto	i2u414_40
  4367   00235C                     i2u414_41:
  4368   00235C  EF9B  F011         	goto	i2l3154
  4369   002360                     i2u414_40:
  4370   002360                     i2l788:
  4371   002360  B00A               	btfsc	i2___xxtofl@exp^0,0,c
  4372   002362  EFB5  F011         	goto	i2u415_41
  4373   002366  EFB7  F011         	goto	i2u415_40
  4374   00236A                     i2u415_41:
  4375   00236A  EFB8  F011         	goto	i2l3162
  4376   00236E                     i2u415_40:
  4377   00236E  9E0D               	bcf	(i2___xxtofl@arg+2)^0,7,c
  4378   002370                     i2l3162:
  4379   002370  90D8               	bcf	status,0,c
  4380   002372  320A               	rrcf	i2___xxtofl@exp^0,f,c
  4381   002374  C00A  F005         	movff	i2___xxtofl@exp,??i2___xxtofl
  4382   002378  6A06               	clrf	(??i2___xxtofl+1)^0,c
  4383   00237A  6A07               	clrf	(??i2___xxtofl+2)^0,c
  4384   00237C  6A08               	clrf	(??i2___xxtofl+3)^0,c
  4385   00237E  C005  F008         	movff	??i2___xxtofl,??i2___xxtofl+3
  4386   002382  6A07               	clrf	(??i2___xxtofl+2)^0,c
  4387   002384  6A06               	clrf	(??i2___xxtofl+1)^0,c
  4388   002386  6A05               	clrf	??i2___xxtofl^0,c
  4389   002388  5005               	movf	??i2___xxtofl^0,w,c
  4390   00238A  120B               	iorwf	i2___xxtofl@arg^0,f,c
  4391   00238C  5006               	movf	(??i2___xxtofl+1)^0,w,c
  4392   00238E  120C               	iorwf	(i2___xxtofl@arg+1)^0,f,c
  4393   002390  5007               	movf	(??i2___xxtofl+2)^0,w,c
  4394   002392  120D               	iorwf	(i2___xxtofl@arg+2)^0,f,c
  4395   002394  5008               	movf	(??i2___xxtofl+3)^0,w,c
  4396   002396  120E               	iorwf	(i2___xxtofl@arg+3)^0,f,c
  4397   002398  5009               	movf	i2___xxtofl@sign^0,w,c
  4398   00239A  B4D8               	btfsc	status,2,c
  4399   00239C  EFD2  F011         	goto	i2u416_41
  4400   0023A0  EFD4  F011         	goto	i2u416_40
  4401   0023A4                     i2u416_41:
  4402   0023A4  EFDC  F011         	goto	i2l3172
  4403   0023A8                     i2u416_40:
  4404   0023A8  BE04               	btfsc	(i2___xxtofl@val+3)^0,7,c
  4405   0023AA  EFDB  F011         	goto	i2u417_40
  4406   0023AE  EFD9  F011         	goto	i2u417_41
  4407   0023B2                     i2u417_41:
  4408   0023B2  EFDC  F011         	goto	i2l3172
  4409   0023B6                     i2u417_40:
  4410   0023B6  8E0E               	bsf	(i2___xxtofl@arg+3)^0,7,c
  4411   0023B8                     i2l3172:
  4412   0023B8  C00B  F001         	movff	i2___xxtofl@arg,?i2___xxtofl
  4413   0023BC  C00C  F002         	movff	i2___xxtofl@arg+1,?i2___xxtofl+1
  4414   0023C0  C00D  F003         	movff	i2___xxtofl@arg+2,?i2___xxtofl+2
  4415   0023C4  C00E  F004         	movff	i2___xxtofl@arg+3,?i2___xxtofl+3
  4416   0023C8                     i2l777:
  4417   0023C8  0012               	return		;funcret
  4418   0023CA                     __end_ofi2___xxtofl:
  4419                           	callstack 0
  4420                           
  4421 ;; *************** function i2___fltol *****************
  4422 ;; Defined at:
  4423 ;;		line 43 in file "C:\Program Files\Microchip\xc8\v2.40\pic\sources\c99\common\fltol.c"
  4424 ;; Parameters:    Size  Location     Type
  4425 ;;  f1              4   72[COMRAM] unsigned char 
  4426 ;; Auto vars:     Size  Location     Type
  4427 ;;  exp1            1   81[COMRAM] unsigned char 
  4428 ;;  sign1           1   80[COMRAM] unsigned char 
  4429 ;; Return value:  Size  Location     Type
  4430 ;;                  4   72[COMRAM] long 
  4431 ;; Registers used:
  4432 ;;		wreg, status,2, status,0
  4433 ;; Tracked objects:
  4434 ;;		On entry : 0/0
  4435 ;;		On exit  : 0/0
  4436 ;;		Unchanged: 0/0
  4437 ;; Data sizes:     COMRAM   BANK0   BANK1   BANK2   BANK3   BANK4   BANK5   BANK6   BANK7
  4438 ;;      Params:         4       0       0       0       0       0       0       0       0
  4439 ;;      Locals:         2       0       0       0       0       0       0       0       0
  4440 ;;      Temps:          4       0       0       0       0       0       0       0       0
  4441 ;;      Totals:        10       0       0       0       0       0       0       0       0
  4442 ;;Total ram usage:       10 bytes
  4443 ;; Hardware stack levels used: 1
  4444 ;; This function calls:
  4445 ;;		Nothing
  4446 ;; This function is called by:
  4447 ;;		_ISR
  4448 ;; This function uses a non-reentrant model
  4449 ;;
  4450                           
  4451                           	psect	text9
  4452   0024D2                     __ptext9:
  4453                           	callstack 0
  4454   0024D2                     i2___fltol:
  4455                           	callstack 27
  4456   0024D2  344B               	rlcf	(i2___fltol@f1+2)^0,w,c
  4457   0024D4  344C               	rlcf	(i2___fltol@f1+3)^0,w,c
  4458   0024D6  6E52               	movwf	i2___fltol@exp1^0,c
  4459   0024D8  5052               	movf	i2___fltol@exp1^0,w,c
  4460   0024DA  A4D8               	btfss	status,2,c
  4461   0024DC  EF72  F012         	goto	i2u359_41
  4462   0024E0  EF74  F012         	goto	i2u359_40
  4463   0024E4                     i2u359_41:
  4464   0024E4  EF7E  F012         	goto	i2l2818
  4465   0024E8                     i2u359_40:
  4466   0024E8                     i2l2814:
  4467   0024E8  0E00               	movlw	0
  4468   0024EA  6E49               	movwf	?i2___fltol^0,c
  4469   0024EC  0E00               	movlw	0
  4470   0024EE  6E4A               	movwf	(?i2___fltol+1)^0,c
  4471   0024F0  0E00               	movlw	0
  4472   0024F2  6E4B               	movwf	(?i2___fltol+2)^0,c
  4473   0024F4  0E00               	movlw	0
  4474   0024F6  6E4C               	movwf	(?i2___fltol+3)^0,c
  4475   0024F8  EFEB  F012         	goto	i2l416
  4476   0024FC                     i2l2818:
  4477   0024FC  C049  F04D         	movff	i2___fltol@f1,??i2___fltol
  4478   002500  C04A  F04E         	movff	i2___fltol@f1+1,??i2___fltol+1
  4479   002504  C04B  F04F         	movff	i2___fltol@f1+2,??i2___fltol+2
  4480   002508  C04C  F050         	movff	i2___fltol@f1+3,??i2___fltol+3
  4481   00250C  0E20               	movlw	32
  4482   00250E  EF8E  F012         	goto	i2u360_40
  4483   002512                     i2u360_45:
  4484   002512  90D8               	bcf	status,0,c
  4485   002514  3250               	rrcf	(??i2___fltol+3)^0,f,c
  4486   002516  324F               	rrcf	(??i2___fltol+2)^0,f,c
  4487   002518  324E               	rrcf	(??i2___fltol+1)^0,f,c
  4488   00251A  324D               	rrcf	??i2___fltol^0,f,c
  4489   00251C                     i2u360_40:
  4490   00251C  2EE8               	decfsz	wreg,f,c
  4491   00251E  EF89  F012         	goto	i2u360_45
  4492   002522  504D               	movf	??i2___fltol^0,w,c
  4493   002524  6E51               	movwf	i2___fltol@sign1^0,c
  4494   002526  8E4B               	bsf	(i2___fltol@f1+2)^0,7,c
  4495   002528  0EFF               	movlw	255
  4496   00252A  1649               	andwf	i2___fltol@f1^0,f,c
  4497   00252C  0EFF               	movlw	255
  4498   00252E  164A               	andwf	(i2___fltol@f1+1)^0,f,c
  4499   002530  0EFF               	movlw	255
  4500   002532  164B               	andwf	(i2___fltol@f1+2)^0,f,c
  4501   002534  0E00               	movlw	0
  4502   002536  164C               	andwf	(i2___fltol@f1+3)^0,f,c
  4503   002538  0E96               	movlw	150
  4504   00253A  5E52               	subwf	i2___fltol@exp1^0,f,c
  4505   00253C  BE52               	btfsc	i2___fltol@exp1^0,7,c
  4506   00253E  EFA5  F012         	goto	i2u361_40
  4507   002542  EFA3  F012         	goto	i2u361_41
  4508   002546                     i2u361_41:
  4509   002546  EFBB  F012         	goto	i2l2838
  4510   00254A                     i2u361_40:
  4511   00254A  5052               	movf	i2___fltol@exp1^0,w,c
  4512   00254C  0A80               	xorlw	128
  4513   00254E  0F97               	addlw	151
  4514   002550  B0D8               	btfsc	status,0,c
  4515   002552  EFAD  F012         	goto	i2u362_41
  4516   002556  EFAF  F012         	goto	i2u362_40
  4517   00255A                     i2u362_41:
  4518   00255A  EFB1  F012         	goto	i2l2834
  4519   00255E                     i2u362_40:
  4520   00255E  EF74  F012         	goto	i2l2814
  4521   002562                     i2l2834:
  4522   002562  90D8               	bcf	status,0,c
  4523   002564  324C               	rrcf	(i2___fltol@f1+3)^0,f,c
  4524   002566  324B               	rrcf	(i2___fltol@f1+2)^0,f,c
  4525   002568  324A               	rrcf	(i2___fltol@f1+1)^0,f,c
  4526   00256A  3249               	rrcf	i2___fltol@f1^0,f,c
  4527   00256C  3E52               	incfsz	i2___fltol@exp1^0,f,c
  4528   00256E  EFB1  F012         	goto	i2l2834
  4529   002572  EFD3  F012         	goto	i2l2848
  4530   002576                     i2l2838:
  4531   002576  0E1F               	movlw	31
  4532   002578  6452               	cpfsgt	i2___fltol@exp1^0,c
  4533   00257A  EFC1  F012         	goto	i2u363_41
  4534   00257E  EFC3  F012         	goto	i2u363_40
  4535   002582                     i2u363_41:
  4536   002582  EFCB  F012         	goto	i2l2846
  4537   002586                     i2u363_40:
  4538   002586  EF74  F012         	goto	i2l2814
  4539   00258A                     i2l2844:
  4540   00258A  90D8               	bcf	status,0,c
  4541   00258C  3649               	rlcf	i2___fltol@f1^0,f,c
  4542   00258E  364A               	rlcf	(i2___fltol@f1+1)^0,f,c
  4543   002590  364B               	rlcf	(i2___fltol@f1+2)^0,f,c
  4544   002592  364C               	rlcf	(i2___fltol@f1+3)^0,f,c
  4545   002594  0652               	decf	i2___fltol@exp1^0,f,c
  4546   002596                     i2l2846:
  4547   002596  5052               	movf	i2___fltol@exp1^0,w,c
  4548   002598  A4D8               	btfss	status,2,c
  4549   00259A  EFD1  F012         	goto	i2u364_41
  4550   00259E  EFD3  F012         	goto	i2u364_40
  4551   0025A2                     i2u364_41:
  4552   0025A2  EFC5  F012         	goto	i2l2844
  4553   0025A6                     i2u364_40:
  4554   0025A6                     i2l2848:
  4555   0025A6  5051               	movf	i2___fltol@sign1^0,w,c
  4556   0025A8  B4D8               	btfsc	status,2,c
  4557   0025AA  EFD9  F012         	goto	i2u365_41
  4558   0025AE  EFDB  F012         	goto	i2u365_40
  4559   0025B2                     i2u365_41:
  4560   0025B2  EFE3  F012         	goto	i2l2852
  4561   0025B6                     i2u365_40:
  4562   0025B6  1E4C               	comf	(i2___fltol@f1+3)^0,f,c
  4563   0025B8  1E4B               	comf	(i2___fltol@f1+2)^0,f,c
  4564   0025BA  1E4A               	comf	(i2___fltol@f1+1)^0,f,c
  4565   0025BC  6C49               	negf	i2___fltol@f1^0,c
  4566   0025BE  0E00               	movlw	0
  4567   0025C0  224A               	addwfc	(i2___fltol@f1+1)^0,f,c
  4568   0025C2  224B               	addwfc	(i2___fltol@f1+2)^0,f,c
  4569   0025C4  224C               	addwfc	(i2___fltol@f1+3)^0,f,c
  4570   0025C6                     i2l2852:
  4571   0025C6  C049  F049         	movff	i2___fltol@f1,?i2___fltol
  4572   0025CA  C04A  F04A         	movff	i2___fltol@f1+1,?i2___fltol+1
  4573   0025CE  C04B  F04B         	movff	i2___fltol@f1+2,?i2___fltol+2
  4574   0025D2  C04C  F04C         	movff	i2___fltol@f1+3,?i2___fltol+3
  4575   0025D6                     i2l416:
  4576   0025D6  0012               	return		;funcret
  4577   0025D8                     __end_ofi2___fltol:
  4578                           	callstack 0
  4579                           
  4580 ;; *************** function i2___flsub *****************
  4581 ;; Defined at:
  4582 ;;		line 245 in file "C:\Program Files\Microchip\xc8\v2.40\pic\sources\c99\common\sprcadd.c"
  4583 ;; Parameters:    Size  Location     Type
  4584 ;;  b               4   64[COMRAM] long 
  4585 ;;  a               4   68[COMRAM] long 
  4586 ;; Auto vars:     Size  Location     Type
  4587 ;;		None
  4588 ;; Return value:  Size  Location     Type
  4589 ;;                  4   64[COMRAM] long 
  4590 ;; Registers used:
  4591 ;;		wreg, status,2, status,0, cstack
  4592 ;; Tracked objects:
  4593 ;;		On entry : 0/0
  4594 ;;		On exit  : 0/0
  4595 ;;		Unchanged: 0/0
  4596 ;; Data sizes:     COMRAM   BANK0   BANK1   BANK2   BANK3   BANK4   BANK5   BANK6   BANK7
  4597 ;;      Params:         8       0       0       0       0       0       0       0       0
  4598 ;;      Locals:         0       0       0       0       0       0       0       0       0
  4599 ;;      Temps:          0       0       0       0       0       0       0       0       0
  4600 ;;      Totals:         8       0       0       0       0       0       0       0       0
  4601 ;;Total ram usage:        8 bytes
  4602 ;; Hardware stack levels used: 1
  4603 ;; Hardware stack levels required when called: 1
  4604 ;; This function calls:
  4605 ;;		i2___fladd
  4606 ;; This function is called by:
  4607 ;;		_ISR
  4608 ;; This function uses a non-reentrant model
  4609 ;;
  4610                           
  4611                           	psect	text10
  4612   002620                     __ptext10:
  4613                           	callstack 0
  4614   002620                     i2___flsub:
  4615                           	callstack 26
  4616   002620  0E00               	movlw	0
  4617   002622  1A45               	xorwf	i2___flsub@a^0,f,c
  4618   002624  0E00               	movlw	0
  4619   002626  1A46               	xorwf	(i2___flsub@a+1)^0,f,c
  4620   002628  0E00               	movlw	0
  4621   00262A  1A47               	xorwf	(i2___flsub@a+2)^0,f,c
  4622   00262C  0E80               	movlw	128
  4623   00262E  1A48               	xorwf	(i2___flsub@a+3)^0,f,c
  4624   002630  C041  F001         	movff	i2___flsub@b,i2___fladd@b
  4625   002634  C042  F002         	movff	i2___flsub@b+1,i2___fladd@b+1
  4626   002638  C043  F003         	movff	i2___flsub@b+2,i2___fladd@b+2
  4627   00263C  C044  F004         	movff	i2___flsub@b+3,i2___fladd@b+3
  4628   002640  C045  F005         	movff	i2___flsub@a,i2___fladd@a
  4629   002644  C046  F006         	movff	i2___flsub@a+1,i2___fladd@a+1
  4630   002648  C047  F007         	movff	i2___flsub@a+2,i2___fladd@a+2
  4631   00264C  C048  F008         	movff	i2___flsub@a+3,i2___fladd@a+3
  4632   002650  EC03  F005         	call	i2___fladd	;wreg free
  4633   002654  C001  F041         	movff	?i2___fladd,?i2___flsub
  4634   002658  C002  F042         	movff	?i2___fladd+1,?i2___flsub+1
  4635   00265C  C003  F043         	movff	?i2___fladd+2,?i2___flsub+2
  4636   002660  C004  F044         	movff	?i2___fladd+3,?i2___flsub+3
  4637   002664  0012               	return		;funcret
  4638   002666                     __end_ofi2___flsub:
  4639                           	callstack 0
  4640                           
  4641 ;; *************** function i2___fladd *****************
  4642 ;; Defined at:
  4643 ;;		line 10 in file "C:\Program Files\Microchip\xc8\v2.40\pic\sources\c99\common\sprcadd.c"
  4644 ;; Parameters:    Size  Location     Type
  4645 ;;  b               4    0[COMRAM] long 
  4646 ;;  a               4    4[COMRAM] long 
  4647 ;; Auto vars:     Size  Location     Type
  4648 ;;  grs             1   15[COMRAM] unsigned char 
  4649 ;;  bexp            1   14[COMRAM] unsigned char 
  4650 ;;  aexp            1   13[COMRAM] unsigned char 
  4651 ;;  signs           1   12[COMRAM] unsigned char 
  4652 ;; Return value:  Size  Location     Type
  4653 ;;                  4    0[COMRAM] unsigned char 
  4654 ;; Registers used:
  4655 ;;		wreg, status,2, status,0
  4656 ;; Tracked objects:
  4657 ;;		On entry : 0/0
  4658 ;;		On exit  : 0/0
  4659 ;;		Unchanged: 0/0
  4660 ;; Data sizes:     COMRAM   BANK0   BANK1   BANK2   BANK3   BANK4   BANK5   BANK6   BANK7
  4661 ;;      Params:         8       0       0       0       0       0       0       0       0
  4662 ;;      Locals:         4       0       0       0       0       0       0       0       0
  4663 ;;      Temps:          4       0       0       0       0       0       0       0       0
  4664 ;;      Totals:        16       0       0       0       0       0       0       0       0
  4665 ;;Total ram usage:       16 bytes
  4666 ;; Hardware stack levels used: 1
  4667 ;; This function calls:
  4668 ;;		Nothing
  4669 ;; This function is called by:
  4670 ;;		i2___flsub
  4671 ;; This function uses a non-reentrant model
  4672 ;;
  4673                           
  4674                           	psect	text11
  4675   000A06                     __ptext11:
  4676                           	callstack 0
  4677   000A06                     i2___fladd:
  4678                           	callstack 26
  4679   000A06  5004               	movf	(i2___fladd@b+3)^0,w,c
  4680   000A08  0B80               	andlw	128
  4681   000A0A  6E0D               	movwf	i2___fladd@signs^0,c
  4682   000A0C  5004               	movf	(i2___fladd@b+3)^0,w,c
  4683   000A0E  2404               	addwf	(i2___fladd@b+3)^0,w,c
  4684   000A10  6E0F               	movwf	i2___fladd@bexp^0,c
  4685   000A12  AE03               	btfss	(i2___fladd@b+2)^0,7,c
  4686   000A14  EF0E  F005         	goto	i2u261_41
  4687   000A18  EF10  F005         	goto	i2u261_40
  4688   000A1C                     i2u261_41:
  4689   000A1C  EF11  F005         	goto	i2l2252
  4690   000A20                     i2u261_40:
  4691   000A20  800F               	bsf	i2___fladd@bexp^0,0,c
  4692   000A22                     i2l2252:
  4693   000A22  500F               	movf	i2___fladd@bexp^0,w,c
  4694   000A24  B4D8               	btfsc	status,2,c
  4695   000A26  EF17  F005         	goto	i2u262_41
  4696   000A2A  EF19  F005         	goto	i2u262_40
  4697   000A2E                     i2u262_41:
  4698   000A2E  EF2E  F005         	goto	i2l2262
  4699   000A32                     i2u262_40:
  4700   000A32  280F               	incf	i2___fladd@bexp^0,w,c
  4701   000A34  A4D8               	btfss	status,2,c
  4702   000A36  EF1F  F005         	goto	i2u263_41
  4703   000A3A  EF21  F005         	goto	i2u263_40
  4704   000A3E                     i2u263_41:
  4705   000A3E  EF29  F005         	goto	i2l2258
  4706   000A42                     i2u263_40:
  4707   000A42  0E00               	movlw	0
  4708   000A44  6E01               	movwf	i2___fladd@b^0,c
  4709   000A46  0E00               	movlw	0
  4710   000A48  6E02               	movwf	(i2___fladd@b+1)^0,c
  4711   000A4A  0E00               	movlw	0
  4712   000A4C  6E03               	movwf	(i2___fladd@b+2)^0,c
  4713   000A4E  0E00               	movlw	0
  4714   000A50  6E04               	movwf	(i2___fladd@b+3)^0,c
  4715   000A52                     i2l2258:
  4716   000A52  8E03               	bsf	(i2___fladd@b+2)^0,7,c
  4717   000A54  0E00               	movlw	0
  4718   000A56  6E04               	movwf	(i2___fladd@b+3)^0,c
  4719   000A58  EF36  F005         	goto	i2l2264
  4720   000A5C                     i2l2262:
  4721   000A5C  0E00               	movlw	0
  4722   000A5E  6E01               	movwf	i2___fladd@b^0,c
  4723   000A60  0E00               	movlw	0
  4724   000A62  6E02               	movwf	(i2___fladd@b+1)^0,c
  4725   000A64  0E00               	movlw	0
  4726   000A66  6E03               	movwf	(i2___fladd@b+2)^0,c
  4727   000A68  0E00               	movlw	0
  4728   000A6A  6E04               	movwf	(i2___fladd@b+3)^0,c
  4729   000A6C                     i2l2264:
  4730   000A6C  5008               	movf	(i2___fladd@a+3)^0,w,c
  4731   000A6E  0B80               	andlw	128
  4732   000A70  6E0E               	movwf	i2___fladd@aexp^0,c
  4733   000A72  500D               	movf	i2___fladd@signs^0,w,c
  4734   000A74  180E               	xorwf	i2___fladd@aexp^0,w,c
  4735   000A76  B4D8               	btfsc	status,2,c
  4736   000A78  EF40  F005         	goto	i2u264_41
  4737   000A7C  EF42  F005         	goto	i2u264_40
  4738   000A80                     i2u264_41:
  4739   000A80  EF43  F005         	goto	i2l2270
  4740   000A84                     i2u264_40:
  4741   000A84  8C0D               	bsf	i2___fladd@signs^0,6,c
  4742   000A86                     i2l2270:
  4743   000A86  5008               	movf	(i2___fladd@a+3)^0,w,c
  4744   000A88  2408               	addwf	(i2___fladd@a+3)^0,w,c
  4745   000A8A  6E0E               	movwf	i2___fladd@aexp^0,c
  4746   000A8C  AE07               	btfss	(i2___fladd@a+2)^0,7,c
  4747   000A8E  EF4B  F005         	goto	i2u265_41
  4748   000A92  EF4D  F005         	goto	i2u265_40
  4749   000A96                     i2u265_41:
  4750   000A96  EF4E  F005         	goto	i2l2276
  4751   000A9A                     i2u265_40:
  4752   000A9A  800E               	bsf	i2___fladd@aexp^0,0,c
  4753   000A9C                     i2l2276:
  4754   000A9C  500E               	movf	i2___fladd@aexp^0,w,c
  4755   000A9E  B4D8               	btfsc	status,2,c
  4756   000AA0  EF54  F005         	goto	i2u266_41
  4757   000AA4  EF56  F005         	goto	i2u266_40
  4758   000AA8                     i2u266_41:
  4759   000AA8  EF6B  F005         	goto	i2l2286
  4760   000AAC                     i2u266_40:
  4761   000AAC  280E               	incf	i2___fladd@aexp^0,w,c
  4762   000AAE  A4D8               	btfss	status,2,c
  4763   000AB0  EF5C  F005         	goto	i2u267_41
  4764   000AB4  EF5E  F005         	goto	i2u267_40
  4765   000AB8                     i2u267_41:
  4766   000AB8  EF66  F005         	goto	i2l2282
  4767   000ABC                     i2u267_40:
  4768   000ABC  0E00               	movlw	0
  4769   000ABE  6E05               	movwf	i2___fladd@a^0,c
  4770   000AC0  0E00               	movlw	0
  4771   000AC2  6E06               	movwf	(i2___fladd@a+1)^0,c
  4772   000AC4  0E00               	movlw	0
  4773   000AC6  6E07               	movwf	(i2___fladd@a+2)^0,c
  4774   000AC8  0E00               	movlw	0
  4775   000ACA  6E08               	movwf	(i2___fladd@a+3)^0,c
  4776   000ACC                     i2l2282:
  4777   000ACC  8E07               	bsf	(i2___fladd@a+2)^0,7,c
  4778   000ACE  0E00               	movlw	0
  4779   000AD0  6E08               	movwf	(i2___fladd@a+3)^0,c
  4780   000AD2  EF73  F005         	goto	i2l2288
  4781   000AD6                     i2l2286:
  4782   000AD6  0E00               	movlw	0
  4783   000AD8  6E05               	movwf	i2___fladd@a^0,c
  4784   000ADA  0E00               	movlw	0
  4785   000ADC  6E06               	movwf	(i2___fladd@a+1)^0,c
  4786   000ADE  0E00               	movlw	0
  4787   000AE0  6E07               	movwf	(i2___fladd@a+2)^0,c
  4788   000AE2  0E00               	movlw	0
  4789   000AE4  6E08               	movwf	(i2___fladd@a+3)^0,c
  4790   000AE6                     i2l2288:
  4791   000AE6  500F               	movf	i2___fladd@bexp^0,w,c
  4792   000AE8  5C0E               	subwf	i2___fladd@aexp^0,w,c
  4793   000AEA  B0D8               	btfsc	status,0,c
  4794   000AEC  EF7A  F005         	goto	i2u268_41
  4795   000AF0  EF7C  F005         	goto	i2u268_40
  4796   000AF4                     i2u268_41:
  4797   000AF4  EFA3  F005         	goto	i2l2324
  4798   000AF8                     i2u268_40:
  4799   000AF8  AC0D               	btfss	i2___fladd@signs^0,6,c
  4800   000AFA  EF81  F005         	goto	i2u269_41
  4801   000AFE  EF83  F005         	goto	i2u269_40
  4802   000B02                     i2u269_41:
  4803   000B02  EF85  F005         	goto	i2l2294
  4804   000B06                     i2u269_40:
  4805   000B06  0E80               	movlw	128
  4806   000B08  1A0D               	xorwf	i2___fladd@signs^0,f,c
  4807   000B0A                     i2l2294:
  4808   000B0A  C00F  F010         	movff	i2___fladd@bexp,i2___fladd@grs
  4809   000B0E  C00E  F00F         	movff	i2___fladd@aexp,i2___fladd@bexp
  4810   000B12  C010  F00E         	movff	i2___fladd@grs,i2___fladd@aexp
  4811   000B16  C001  F010         	movff	i2___fladd@b,i2___fladd@grs
  4812   000B1A  C005  F001         	movff	i2___fladd@a,i2___fladd@b
  4813   000B1E  C010  F005         	movff	i2___fladd@grs,i2___fladd@a
  4814   000B22  C002  F010         	movff	i2___fladd@b+1,i2___fladd@grs
  4815   000B26  C006  F002         	movff	i2___fladd@a+1,i2___fladd@b+1
  4816   000B2A  C010  F006         	movff	i2___fladd@grs,i2___fladd@a+1
  4817   000B2E  C003  F010         	movff	i2___fladd@b+2,i2___fladd@grs
  4818   000B32  C007  F003         	movff	i2___fladd@a+2,i2___fladd@b+2
  4819   000B36  C010  F007         	movff	i2___fladd@grs,i2___fladd@a+2
  4820   000B3A  C004  F010         	movff	i2___fladd@b+3,i2___fladd@grs
  4821   000B3E  C008  F004         	movff	i2___fladd@a+3,i2___fladd@b+3
  4822   000B42  C010  F008         	movff	i2___fladd@grs,i2___fladd@a+3
  4823   000B46                     i2l2324:
  4824   000B46  0E00               	movlw	0
  4825   000B48  6E10               	movwf	i2___fladd@grs^0,c
  4826   000B4A  500F               	movf	i2___fladd@bexp^0,w,c
  4827   000B4C  C00E  F009         	movff	i2___fladd@aexp,??i2___fladd
  4828   000B50  6A0A               	clrf	(??i2___fladd+1)^0,c
  4829   000B52  5E09               	subwf	??i2___fladd^0,f,c
  4830   000B54  0E00               	movlw	0
  4831   000B56  5A0A               	subwfb	(??i2___fladd+1)^0,f,c
  4832   000B58  BE0A               	btfsc	(??i2___fladd+1)^0,7,c
  4833   000B5A  EFB8  F005         	goto	i2u270_41
  4834   000B5E  500A               	movf	(??i2___fladd+1)^0,w,c
  4835   000B60  E109               	bnz	i2u270_40
  4836   000B62  0E1A               	movlw	26
  4837   000B64  5C09               	subwf	??i2___fladd^0,w,c
  4838   000B66  A0D8               	btfss	status,0,c
  4839   000B68  EFB8  F005         	goto	i2u270_41
  4840   000B6C  EFBA  F005         	goto	i2u270_40
  4841   000B70                     i2u270_41:
  4842   000B70  EFF1  F005         	goto	i2l648
  4843   000B74                     i2u270_40:
  4844   000B74  5001               	movf	i2___fladd@b^0,w,c
  4845   000B76  1002               	iorwf	(i2___fladd@b+1)^0,w,c
  4846   000B78  1003               	iorwf	(i2___fladd@b+2)^0,w,c
  4847   000B7A  1004               	iorwf	(i2___fladd@b+3)^0,w,c
  4848   000B7C  A4D8               	btfss	status,2,c
  4849   000B7E  EFC3  F005         	goto	i2u271_41
  4850   000B82  EFC6  F005         	goto	i2u271_40
  4851   000B86                     i2u271_41:
  4852   000B86  0E01               	movlw	1
  4853   000B88  EFC7  F005         	goto	i2u272_40
  4854   000B8C                     i2u271_40:
  4855   000B8C  0E00               	movlw	0
  4856   000B8E                     i2u272_40:
  4857   000B8E  6E10               	movwf	i2___fladd@grs^0,c
  4858   000B90  0E00               	movlw	0
  4859   000B92  6E01               	movwf	i2___fladd@b^0,c
  4860   000B94  0E00               	movlw	0
  4861   000B96  6E02               	movwf	(i2___fladd@b+1)^0,c
  4862   000B98  0E00               	movlw	0
  4863   000B9A  6E03               	movwf	(i2___fladd@b+2)^0,c
  4864   000B9C  0E00               	movlw	0
  4865   000B9E  6E04               	movwf	(i2___fladd@b+3)^0,c
  4866   000BA0  C00E  F00F         	movff	i2___fladd@aexp,i2___fladd@bexp
  4867   000BA4  EFFA  F005         	goto	i2l647
  4868   000BA8                     i2l649:
  4869   000BA8  A010               	btfss	i2___fladd@grs^0,0,c
  4870   000BAA  EFD9  F005         	goto	i2u273_41
  4871   000BAE  EFDB  F005         	goto	i2u273_40
  4872   000BB2                     i2u273_41:
  4873   000BB2  EFE1  F005         	goto	i2l2336
  4874   000BB6                     i2u273_40:
  4875   000BB6  90D8               	bcf	status,0,c
  4876   000BB8  3010               	rrcf	i2___fladd@grs^0,w,c
  4877   000BBA  0901               	iorlw	1
  4878   000BBC  6E10               	movwf	i2___fladd@grs^0,c
  4879   000BBE  EFE3  F005         	goto	i2l2338
  4880   000BC2                     i2l2336:
  4881   000BC2  90D8               	bcf	status,0,c
  4882   000BC4  3210               	rrcf	i2___fladd@grs^0,f,c
  4883   000BC6                     i2l2338:
  4884   000BC6  A001               	btfss	i2___fladd@b^0,0,c
  4885   000BC8  EFE8  F005         	goto	i2u274_41
  4886   000BCC  EFEA  F005         	goto	i2u274_40
  4887   000BD0                     i2u274_41:
  4888   000BD0  EFEB  F005         	goto	i2l2342
  4889   000BD4                     i2u274_40:
  4890   000BD4  8E10               	bsf	i2___fladd@grs^0,7,c
  4891   000BD6                     i2l2342:
  4892   000BD6  3404               	rlcf	(i2___fladd@b+3)^0,w,c
  4893   000BD8  3204               	rrcf	(i2___fladd@b+3)^0,f,c
  4894   000BDA  3203               	rrcf	(i2___fladd@b+2)^0,f,c
  4895   000BDC  3202               	rrcf	(i2___fladd@b+1)^0,f,c
  4896   000BDE  3201               	rrcf	i2___fladd@b^0,f,c
  4897   000BE0  2A0F               	incf	i2___fladd@bexp^0,f,c
  4898   000BE2                     i2l648:
  4899   000BE2  500E               	movf	i2___fladd@aexp^0,w,c
  4900   000BE4  5C0F               	subwf	i2___fladd@bexp^0,w,c
  4901   000BE6  A0D8               	btfss	status,0,c
  4902   000BE8  EFF8  F005         	goto	i2u275_41
  4903   000BEC  EFFA  F005         	goto	i2u275_40
  4904   000BF0                     i2u275_41:
  4905   000BF0  EFD4  F005         	goto	i2l649
  4906   000BF4                     i2u275_40:
  4907   000BF4                     i2l647:
  4908   000BF4  BC0D               	btfsc	i2___fladd@signs^0,6,c
  4909   000BF6  EFFF  F005         	goto	i2u276_41
  4910   000BFA  EF01  F006         	goto	i2u276_40
  4911   000BFE                     i2u276_41:
  4912   000BFE  EF41  F006         	goto	i2l2370
  4913   000C02                     i2u276_40:
  4914   000C02  500F               	movf	i2___fladd@bexp^0,w,c
  4915   000C04  A4D8               	btfss	status,2,c
  4916   000C06  EF07  F006         	goto	i2u277_41
  4917   000C0A  EF09  F006         	goto	i2u277_40
  4918   000C0E                     i2u277_41:
  4919   000C0E  EF13  F006         	goto	i2l2352
  4920   000C12                     i2u277_40:
  4921   000C12  0E00               	movlw	0
  4922   000C14  6E01               	movwf	?i2___fladd^0,c
  4923   000C16  0E00               	movlw	0
  4924   000C18  6E02               	movwf	(?i2___fladd+1)^0,c
  4925   000C1A  0E00               	movlw	0
  4926   000C1C  6E03               	movwf	(?i2___fladd+2)^0,c
  4927   000C1E  0E00               	movlw	0
  4928   000C20  6E04               	movwf	(?i2___fladd+3)^0,c
  4929   000C22  EF62  F007         	goto	i2l656
  4930   000C26                     i2l2352:
  4931   000C26  5005               	movf	i2___fladd@a^0,w,c
  4932   000C28  2601               	addwf	i2___fladd@b^0,f,c
  4933   000C2A  5006               	movf	(i2___fladd@a+1)^0,w,c
  4934   000C2C  2202               	addwfc	(i2___fladd@b+1)^0,f,c
  4935   000C2E  5007               	movf	(i2___fladd@a+2)^0,w,c
  4936   000C30  2203               	addwfc	(i2___fladd@b+2)^0,f,c
  4937   000C32  5008               	movf	(i2___fladd@a+3)^0,w,c
  4938   000C34  2204               	addwfc	(i2___fladd@b+3)^0,f,c
  4939   000C36  A004               	btfss	(i2___fladd@b+3)^0,0,c
  4940   000C38  EF20  F006         	goto	i2u278_41
  4941   000C3C  EF22  F006         	goto	i2u278_40
  4942   000C40                     i2u278_41:
  4943   000C40  EFCE  F006         	goto	i2l2406
  4944   000C44                     i2u278_40:
  4945   000C44  A010               	btfss	i2___fladd@grs^0,0,c
  4946   000C46  EF27  F006         	goto	i2u279_41
  4947   000C4A  EF29  F006         	goto	i2u279_40
  4948   000C4E                     i2u279_41:
  4949   000C4E  EF2F  F006         	goto	i2l2360
  4950   000C52                     i2u279_40:
  4951   000C52  90D8               	bcf	status,0,c
  4952   000C54  3010               	rrcf	i2___fladd@grs^0,w,c
  4953   000C56  0901               	iorlw	1
  4954   000C58  6E10               	movwf	i2___fladd@grs^0,c
  4955   000C5A  EF31  F006         	goto	i2l2362
  4956   000C5E                     i2l2360:
  4957   000C5E  90D8               	bcf	status,0,c
  4958   000C60  3210               	rrcf	i2___fladd@grs^0,f,c
  4959   000C62                     i2l2362:
  4960   000C62  A001               	btfss	i2___fladd@b^0,0,c
  4961   000C64  EF36  F006         	goto	i2u280_41
  4962   000C68  EF38  F006         	goto	i2u280_40
  4963   000C6C                     i2u280_41:
  4964   000C6C  EF39  F006         	goto	i2l2366
  4965   000C70                     i2u280_40:
  4966   000C70  8E10               	bsf	i2___fladd@grs^0,7,c
  4967   000C72                     i2l2366:
  4968   000C72  3404               	rlcf	(i2___fladd@b+3)^0,w,c
  4969   000C74  3204               	rrcf	(i2___fladd@b+3)^0,f,c
  4970   000C76  3203               	rrcf	(i2___fladd@b+2)^0,f,c
  4971   000C78  3202               	rrcf	(i2___fladd@b+1)^0,f,c
  4972   000C7A  3201               	rrcf	i2___fladd@b^0,f,c
  4973   000C7C  2A0F               	incf	i2___fladd@bexp^0,f,c
  4974   000C7E  EFCE  F006         	goto	i2l2406
  4975   000C82                     i2l2370:
  4976   000C82  5005               	movf	i2___fladd@a^0,w,c
  4977   000C84  5C01               	subwf	i2___fladd@b^0,w,c
  4978   000C86  5006               	movf	(i2___fladd@a+1)^0,w,c
  4979   000C88  5802               	subwfb	(i2___fladd@b+1)^0,w,c
  4980   000C8A  5007               	movf	(i2___fladd@a+2)^0,w,c
  4981   000C8C  5803               	subwfb	(i2___fladd@b+2)^0,w,c
  4982   000C8E  5004               	movf	(i2___fladd@b+3)^0,w,c
  4983   000C90  0A80               	xorlw	128
  4984   000C92  6E09               	movwf	??i2___fladd^0,c
  4985   000C94  5008               	movf	(i2___fladd@a+3)^0,w,c
  4986   000C96  0A80               	xorlw	128
  4987   000C98  5809               	subwfb	??i2___fladd^0,w,c
  4988   000C9A  B0D8               	btfsc	status,0,c
  4989   000C9C  EF52  F006         	goto	i2u281_41
  4990   000CA0  EF54  F006         	goto	i2u281_40
  4991   000CA4                     i2u281_41:
  4992   000CA4  EF7F  F006         	goto	i2l2380
  4993   000CA8                     i2u281_40:
  4994   000CA8  5001               	movf	i2___fladd@b^0,w,c
  4995   000CAA  5C05               	subwf	i2___fladd@a^0,w,c
  4996   000CAC  6E09               	movwf	??i2___fladd^0,c
  4997   000CAE  5002               	movf	(i2___fladd@b+1)^0,w,c
  4998   000CB0  5806               	subwfb	(i2___fladd@a+1)^0,w,c
  4999   000CB2  6E0A               	movwf	(??i2___fladd+1)^0,c
  5000   000CB4  5003               	movf	(i2___fladd@b+2)^0,w,c
  5001   000CB6  5807               	subwfb	(i2___fladd@a+2)^0,w,c
  5002   000CB8  6E0B               	movwf	(??i2___fladd+2)^0,c
  5003   000CBA  5004               	movf	(i2___fladd@b+3)^0,w,c
  5004   000CBC  5808               	subwfb	(i2___fladd@a+3)^0,w,c
  5005   000CBE  6E0C               	movwf	(??i2___fladd+3)^0,c
  5006   000CC0  0EFF               	movlw	255
  5007   000CC2  2409               	addwf	??i2___fladd^0,w,c
  5008   000CC4  6E01               	movwf	i2___fladd@b^0,c
  5009   000CC6  0EFF               	movlw	255
  5010   000CC8  200A               	addwfc	(??i2___fladd+1)^0,w,c
  5011   000CCA  6E02               	movwf	(i2___fladd@b+1)^0,c
  5012   000CCC  0EFF               	movlw	255
  5013   000CCE  200B               	addwfc	(??i2___fladd+2)^0,w,c
  5014   000CD0  6E03               	movwf	(i2___fladd@b+2)^0,c
  5015   000CD2  0EFF               	movlw	255
  5016   000CD4  200C               	addwfc	(??i2___fladd+3)^0,w,c
  5017   000CD6  6E04               	movwf	(i2___fladd@b+3)^0,c
  5018   000CD8  0E80               	movlw	128
  5019   000CDA  1A0D               	xorwf	i2___fladd@signs^0,f,c
  5020   000CDC  6C10               	negf	i2___fladd@grs^0,c
  5021   000CDE  5010               	movf	i2___fladd@grs^0,w,c
  5022   000CE0  A4D8               	btfss	status,2,c
  5023   000CE2  EF75  F006         	goto	i2u282_41
  5024   000CE6  EF77  F006         	goto	i2u282_40
  5025   000CEA                     i2u282_41:
  5026   000CEA  EF87  F006         	goto	i2l664
  5027   000CEE                     i2u282_40:
  5028   000CEE  0E01               	movlw	1
  5029   000CF0  2601               	addwf	i2___fladd@b^0,f,c
  5030   000CF2  0E00               	movlw	0
  5031   000CF4  2202               	addwfc	(i2___fladd@b+1)^0,f,c
  5032   000CF6  2203               	addwfc	(i2___fladd@b+2)^0,f,c
  5033   000CF8  2204               	addwfc	(i2___fladd@b+3)^0,f,c
  5034   000CFA  EF87  F006         	goto	i2l664
  5035   000CFE                     i2l2380:
  5036   000CFE  5005               	movf	i2___fladd@a^0,w,c
  5037   000D00  5E01               	subwf	i2___fladd@b^0,f,c
  5038   000D02  5006               	movf	(i2___fladd@a+1)^0,w,c
  5039   000D04  5A02               	subwfb	(i2___fladd@b+1)^0,f,c
  5040   000D06  5007               	movf	(i2___fladd@a+2)^0,w,c
  5041   000D08  5A03               	subwfb	(i2___fladd@b+2)^0,f,c
  5042   000D0A  5008               	movf	(i2___fladd@a+3)^0,w,c
  5043   000D0C  5A04               	subwfb	(i2___fladd@b+3)^0,f,c
  5044   000D0E                     i2l664:
  5045   000D0E  5001               	movf	i2___fladd@b^0,w,c
  5046   000D10  1002               	iorwf	(i2___fladd@b+1)^0,w,c
  5047   000D12  1003               	iorwf	(i2___fladd@b+2)^0,w,c
  5048   000D14  1004               	iorwf	(i2___fladd@b+3)^0,w,c
  5049   000D16  A4D8               	btfss	status,2,c
  5050   000D18  EF90  F006         	goto	i2u283_41
  5051   000D1C  EF92  F006         	goto	i2u283_40
  5052   000D20                     i2u283_41:
  5053   000D20  EFC7  F006         	goto	i2l2404
  5054   000D24                     i2u283_40:
  5055   000D24  5010               	movf	i2___fladd@grs^0,w,c
  5056   000D26  A4D8               	btfss	status,2,c
  5057   000D28  EF98  F006         	goto	i2u284_41
  5058   000D2C  EF9A  F006         	goto	i2u284_40
  5059   000D30                     i2u284_41:
  5060   000D30  EFC7  F006         	goto	i2l2404
  5061   000D34                     i2u284_40:
  5062   000D34  0E00               	movlw	0
  5063   000D36  6E01               	movwf	?i2___fladd^0,c
  5064   000D38  0E00               	movlw	0
  5065   000D3A  6E02               	movwf	(?i2___fladd+1)^0,c
  5066   000D3C  0E00               	movlw	0
  5067   000D3E  6E03               	movwf	(?i2___fladd+2)^0,c
  5068   000D40  0E00               	movlw	0
  5069   000D42  6E04               	movwf	(?i2___fladd+3)^0,c
  5070   000D44  EF62  F007         	goto	i2l656
  5071   000D48                     i2l2388:
  5072   000D48  90D8               	bcf	status,0,c
  5073   000D4A  3601               	rlcf	i2___fladd@b^0,f,c
  5074   000D4C  3602               	rlcf	(i2___fladd@b+1)^0,f,c
  5075   000D4E  3603               	rlcf	(i2___fladd@b+2)^0,f,c
  5076   000D50  3604               	rlcf	(i2___fladd@b+3)^0,f,c
  5077   000D52  AE10               	btfss	i2___fladd@grs^0,7,c
  5078   000D54  EFAE  F006         	goto	i2u285_41
  5079   000D58  EFB0  F006         	goto	i2u285_40
  5080   000D5C                     i2u285_41:
  5081   000D5C  EFB1  F006         	goto	i2l2394
  5082   000D60                     i2u285_40:
  5083   000D60  8001               	bsf	i2___fladd@b^0,0,c
  5084   000D62                     i2l2394:
  5085   000D62  A010               	btfss	i2___fladd@grs^0,0,c
  5086   000D64  EFB6  F006         	goto	i2u286_41
  5087   000D68  EFB8  F006         	goto	i2u286_40
  5088   000D6C                     i2u286_41:
  5089   000D6C  EFBC  F006         	goto	i2l2398
  5090   000D70                     i2u286_40:
  5091   000D70  80D8               	bsf	status,0,c
  5092   000D72  3610               	rlcf	i2___fladd@grs^0,f,c
  5093   000D74  EFBE  F006         	goto	i2l2400
  5094   000D78                     i2l2398:
  5095   000D78  90D8               	bcf	status,0,c
  5096   000D7A  3610               	rlcf	i2___fladd@grs^0,f,c
  5097   000D7C                     i2l2400:
  5098   000D7C  500F               	movf	i2___fladd@bexp^0,w,c
  5099   000D7E  B4D8               	btfsc	status,2,c
  5100   000D80  EFC4  F006         	goto	i2u287_41
  5101   000D84  EFC6  F006         	goto	i2u287_40
  5102   000D88                     i2u287_41:
  5103   000D88  EFC7  F006         	goto	i2l2404
  5104   000D8C                     i2u287_40:
  5105   000D8C  060F               	decf	i2___fladd@bexp^0,f,c
  5106   000D8E                     i2l2404:
  5107   000D8E  AE03               	btfss	(i2___fladd@b+2)^0,7,c
  5108   000D90  EFCC  F006         	goto	i2u288_41
  5109   000D94  EFCE  F006         	goto	i2u288_40
  5110   000D98                     i2u288_41:
  5111   000D98  EFA4  F006         	goto	i2l2388
  5112   000D9C                     i2u288_40:
  5113   000D9C                     i2l2406:
  5114   000D9C  0E00               	movlw	0
  5115   000D9E  6E0E               	movwf	i2___fladd@aexp^0,c
  5116   000DA0  AE10               	btfss	i2___fladd@grs^0,7,c
  5117   000DA2  EFD5  F006         	goto	i2u289_41
  5118   000DA6  EFD7  F006         	goto	i2u289_40
  5119   000DAA                     i2u289_41:
  5120   000DAA  EFEF  F006         	goto	i2l673
  5121   000DAE                     i2u289_40:
  5122   000DAE  C010  F009         	movff	i2___fladd@grs,??i2___fladd
  5123   000DB2  0E7F               	movlw	127
  5124   000DB4  1609               	andwf	??i2___fladd^0,f,c
  5125   000DB6  B4D8               	btfsc	status,2,c
  5126   000DB8  EFE0  F006         	goto	i2u290_41
  5127   000DBC  EFE2  F006         	goto	i2u290_40
  5128   000DC0                     i2u290_41:
  5129   000DC0  EFE6  F006         	goto	i2l674
  5130   000DC4                     i2u290_40:
  5131   000DC4                     i2l2412:
  5132   000DC4  0E01               	movlw	1
  5133   000DC6  6E0E               	movwf	i2___fladd@aexp^0,c
  5134   000DC8  EFEF  F006         	goto	i2l673
  5135   000DCC                     i2l674:
  5136   000DCC  A001               	btfss	i2___fladd@b^0,0,c
  5137   000DCE  EFEB  F006         	goto	i2u291_41
  5138   000DD2  EFED  F006         	goto	i2u291_40
  5139   000DD6                     i2u291_41:
  5140   000DD6  EFEF  F006         	goto	i2l673
  5141   000DDA                     i2u291_40:
  5142   000DDA  EFE2  F006         	goto	i2l2412
  5143   000DDE                     i2l673:
  5144   000DDE  500E               	movf	i2___fladd@aexp^0,w,c
  5145   000DE0  B4D8               	btfsc	status,2,c
  5146   000DE2  EFF5  F006         	goto	i2u292_41
  5147   000DE6  EFF7  F006         	goto	i2u292_40
  5148   000DEA                     i2u292_41:
  5149   000DEA  EF22  F007         	goto	i2l2424
  5150   000DEE                     i2u292_40:
  5151   000DEE  0E01               	movlw	1
  5152   000DF0  2601               	addwf	i2___fladd@b^0,f,c
  5153   000DF2  0E00               	movlw	0
  5154   000DF4  2202               	addwfc	(i2___fladd@b+1)^0,f,c
  5155   000DF6  2203               	addwfc	(i2___fladd@b+2)^0,f,c
  5156   000DF8  2204               	addwfc	(i2___fladd@b+3)^0,f,c
  5157   000DFA  A004               	btfss	(i2___fladd@b+3)^0,0,c
  5158   000DFC  EF02  F007         	goto	i2u293_41
  5159   000E00  EF04  F007         	goto	i2u293_40
  5160   000E04                     i2u293_41:
  5161   000E04  EF22  F007         	goto	i2l2424
  5162   000E08                     i2u293_40:
  5163   000E08  C001  F009         	movff	i2___fladd@b,??i2___fladd
  5164   000E0C  C002  F00A         	movff	i2___fladd@b+1,??i2___fladd+1
  5165   000E10  C003  F00B         	movff	i2___fladd@b+2,??i2___fladd+2
  5166   000E14  C004  F00C         	movff	i2___fladd@b+3,??i2___fladd+3
  5167   000E18  340C               	rlcf	(??i2___fladd+3)^0,w,c
  5168   000E1A  320C               	rrcf	(??i2___fladd+3)^0,f,c
  5169   000E1C  320B               	rrcf	(??i2___fladd+2)^0,f,c
  5170   000E1E  320A               	rrcf	(??i2___fladd+1)^0,f,c
  5171   000E20  3209               	rrcf	??i2___fladd^0,f,c
  5172   000E22  C009  F001         	movff	??i2___fladd,i2___fladd@b
  5173   000E26  C00A  F002         	movff	??i2___fladd+1,i2___fladd@b+1
  5174   000E2A  C00B  F003         	movff	??i2___fladd+2,i2___fladd@b+2
  5175   000E2E  C00C  F004         	movff	??i2___fladd+3,i2___fladd@b+3
  5176   000E32  280F               	incf	i2___fladd@bexp^0,w,c
  5177   000E34  B4D8               	btfsc	status,2,c
  5178   000E36  EF1F  F007         	goto	i2u294_41
  5179   000E3A  EF21  F007         	goto	i2u294_40
  5180   000E3E                     i2u294_41:
  5181   000E3E  EF22  F007         	goto	i2l2424
  5182   000E42                     i2u294_40:
  5183   000E42  2A0F               	incf	i2___fladd@bexp^0,f,c
  5184   000E44                     i2l2424:
  5185   000E44  280F               	incf	i2___fladd@bexp^0,w,c
  5186   000E46  B4D8               	btfsc	status,2,c
  5187   000E48  EF28  F007         	goto	i2u295_41
  5188   000E4C  EF2A  F007         	goto	i2u295_40
  5189   000E50                     i2u295_41:
  5190   000E50  EF32  F007         	goto	i2l2428
  5191   000E54                     i2u295_40:
  5192   000E54  500F               	movf	i2___fladd@bexp^0,w,c
  5193   000E56  A4D8               	btfss	status,2,c
  5194   000E58  EF30  F007         	goto	i2u296_41
  5195   000E5C  EF32  F007         	goto	i2u296_40
  5196   000E60                     i2u296_41:
  5197   000E60  EF44  F007         	goto	i2l2432
  5198   000E64                     i2u296_40:
  5199   000E64                     i2l2428:
  5200   000E64  0E00               	movlw	0
  5201   000E66  6E01               	movwf	i2___fladd@b^0,c
  5202   000E68  0E00               	movlw	0
  5203   000E6A  6E02               	movwf	(i2___fladd@b+1)^0,c
  5204   000E6C  0E00               	movlw	0
  5205   000E6E  6E03               	movwf	(i2___fladd@b+2)^0,c
  5206   000E70  0E00               	movlw	0
  5207   000E72  6E04               	movwf	(i2___fladd@b+3)^0,c
  5208   000E74  500F               	movf	i2___fladd@bexp^0,w,c
  5209   000E76  A4D8               	btfss	status,2,c
  5210   000E78  EF40  F007         	goto	i2u297_41
  5211   000E7C  EF42  F007         	goto	i2u297_40
  5212   000E80                     i2u297_41:
  5213   000E80  EF44  F007         	goto	i2l2432
  5214   000E84                     i2u297_40:
  5215   000E84  0E00               	movlw	0
  5216   000E86  6E0D               	movwf	i2___fladd@signs^0,c
  5217   000E88                     i2l2432:
  5218   000E88  A00F               	btfss	i2___fladd@bexp^0,0,c
  5219   000E8A  EF49  F007         	goto	i2u298_41
  5220   000E8E  EF4B  F007         	goto	i2u298_40
  5221   000E92                     i2u298_41:
  5222   000E92  EF4E  F007         	goto	i2l2436
  5223   000E96                     i2u298_40:
  5224   000E96  8E03               	bsf	(i2___fladd@b+2)^0,7,c
  5225   000E98  EF4F  F007         	goto	i2l2438
  5226   000E9C                     i2l2436:
  5227   000E9C  9E03               	bcf	(i2___fladd@b+2)^0,7,c
  5228   000E9E                     i2l2438:
  5229   000E9E  90D8               	bcf	status,0,c
  5230   000EA0  300F               	rrcf	i2___fladd@bexp^0,w,c
  5231   000EA2  6E04               	movwf	(i2___fladd@b+3)^0,c
  5232   000EA4  AE0D               	btfss	i2___fladd@signs^0,7,c
  5233   000EA6  EF57  F007         	goto	i2u299_41
  5234   000EAA  EF59  F007         	goto	i2u299_40
  5235   000EAE                     i2u299_41:
  5236   000EAE  EF5A  F007         	goto	i2l2444
  5237   000EB2                     i2u299_40:
  5238   000EB2  8E04               	bsf	(i2___fladd@b+3)^0,7,c
  5239   000EB4                     i2l2444:
  5240   000EB4  C001  F001         	movff	i2___fladd@b,?i2___fladd
  5241   000EB8  C002  F002         	movff	i2___fladd@b+1,?i2___fladd+1
  5242   000EBC  C003  F003         	movff	i2___fladd@b+2,?i2___fladd+2
  5243   000EC0  C004  F004         	movff	i2___fladd@b+3,?i2___fladd+3
  5244   000EC4                     i2l656:
  5245   000EC4  0012               	return		;funcret
  5246   000EC6                     __end_ofi2___fladd:
  5247                           	callstack 0
  5248                           
  5249 ;; *************** function i2___flmul *****************
  5250 ;; Defined at:
  5251 ;;		line 8 in file "C:\Program Files\Microchip\xc8\v2.40\pic\sources\c99\common\sprcmul.c"
  5252 ;; Parameters:    Size  Location     Type
  5253 ;;  b               4   14[COMRAM] unsigned char 
  5254 ;;  a               4   18[COMRAM] unsigned char 
  5255 ;; Auto vars:     Size  Location     Type
  5256 ;;  prod            4   33[COMRAM] struct .
  5257 ;;  grs             4   27[COMRAM] unsigned long 
  5258 ;;  temp            2   37[COMRAM] struct .
  5259 ;;  bexp            1   32[COMRAM] unsigned char 
  5260 ;;  aexp            1   31[COMRAM] unsigned char 
  5261 ;;  sign            1   26[COMRAM] unsigned char 
  5262 ;; Return value:  Size  Location     Type
  5263 ;;                  4   14[COMRAM] unsigned char 
  5264 ;; Registers used:
  5265 ;;		wreg, status,2, status,0, prodl, prodh
  5266 ;; Tracked objects:
  5267 ;;		On entry : 0/0
  5268 ;;		On exit  : 0/0
  5269 ;;		Unchanged: 0/0
  5270 ;; Data sizes:     COMRAM   BANK0   BANK1   BANK2   BANK3   BANK4   BANK5   BANK6   BANK7
  5271 ;;      Params:         8       0       0       0       0       0       0       0       0
  5272 ;;      Locals:        13       0       0       0       0       0       0       0       0
  5273 ;;      Temps:          4       0       0       0       0       0       0       0       0
  5274 ;;      Totals:        25       0       0       0       0       0       0       0       0
  5275 ;;Total ram usage:       25 bytes
  5276 ;; Hardware stack levels used: 1
  5277 ;; This function calls:
  5278 ;;		Nothing
  5279 ;; This function is called by:
  5280 ;;		_ISR
  5281 ;; This function uses a non-reentrant model
  5282 ;;
  5283                           
  5284                           	psect	text12
  5285   0012F2                     __ptext12:
  5286                           	callstack 0
  5287   0012F2                     i2___flmul:
  5288                           	callstack 27
  5289   0012F2  5012               	movf	(i2___flmul@b+3)^0,w,c
  5290   0012F4  0B80               	andlw	128
  5291   0012F6  6E1B               	movwf	i2___flmul@sign^0,c
  5292   0012F8  5012               	movf	(i2___flmul@b+3)^0,w,c
  5293   0012FA  2412               	addwf	(i2___flmul@b+3)^0,w,c
  5294   0012FC  6E21               	movwf	i2___flmul@bexp^0,c
  5295   0012FE  AE11               	btfss	(i2___flmul@b+2)^0,7,c
  5296   001300  EF84  F009         	goto	i2u389_41
  5297   001304  EF86  F009         	goto	i2u389_40
  5298   001308                     i2u389_41:
  5299   001308  EF87  F009         	goto	i2l3006
  5300   00130C                     i2u389_40:
  5301   00130C  8021               	bsf	i2___flmul@bexp^0,0,c
  5302   00130E                     i2l3006:
  5303   00130E  5021               	movf	i2___flmul@bexp^0,w,c
  5304   001310  B4D8               	btfsc	status,2,c
  5305   001312  EF8D  F009         	goto	i2u390_41
  5306   001316  EF8F  F009         	goto	i2u390_40
  5307   00131A                     i2u390_41:
  5308   00131A  EFA2  F009         	goto	i2l3014
  5309   00131E                     i2u390_40:
  5310   00131E  2821               	incf	i2___flmul@bexp^0,w,c
  5311   001320  A4D8               	btfss	status,2,c
  5312   001322  EF95  F009         	goto	i2u391_41
  5313   001326  EF97  F009         	goto	i2u391_40
  5314   00132A                     i2u391_41:
  5315   00132A  EF9F  F009         	goto	i2l3012
  5316   00132E                     i2u391_40:
  5317   00132E  0E00               	movlw	0
  5318   001330  6E0F               	movwf	i2___flmul@b^0,c
  5319   001332  0E00               	movlw	0
  5320   001334  6E10               	movwf	(i2___flmul@b+1)^0,c
  5321   001336  0E00               	movlw	0
  5322   001338  6E11               	movwf	(i2___flmul@b+2)^0,c
  5323   00133A  0E00               	movlw	0
  5324   00133C  6E12               	movwf	(i2___flmul@b+3)^0,c
  5325   00133E                     i2l3012:
  5326   00133E  8E11               	bsf	(i2___flmul@b+2)^0,7,c
  5327   001340  EFAA  F009         	goto	i2l3016
  5328   001344                     i2l3014:
  5329   001344  0E00               	movlw	0
  5330   001346  6E0F               	movwf	i2___flmul@b^0,c
  5331   001348  0E00               	movlw	0
  5332   00134A  6E10               	movwf	(i2___flmul@b+1)^0,c
  5333   00134C  0E00               	movlw	0
  5334   00134E  6E11               	movwf	(i2___flmul@b+2)^0,c
  5335   001350  0E00               	movlw	0
  5336   001352  6E12               	movwf	(i2___flmul@b+3)^0,c
  5337   001354                     i2l3016:
  5338   001354  5016               	movf	(i2___flmul@a+3)^0,w,c
  5339   001356  0B80               	andlw	128
  5340   001358  1A1B               	xorwf	i2___flmul@sign^0,f,c
  5341   00135A  5016               	movf	(i2___flmul@a+3)^0,w,c
  5342   00135C  2416               	addwf	(i2___flmul@a+3)^0,w,c
  5343   00135E  6E20               	movwf	i2___flmul@aexp^0,c
  5344   001360  AE15               	btfss	(i2___flmul@a+2)^0,7,c
  5345   001362  EFB5  F009         	goto	i2u392_41
  5346   001366  EFB7  F009         	goto	i2u392_40
  5347   00136A                     i2u392_41:
  5348   00136A  EFB8  F009         	goto	i2l3024
  5349   00136E                     i2u392_40:
  5350   00136E  8020               	bsf	i2___flmul@aexp^0,0,c
  5351   001370                     i2l3024:
  5352   001370  5020               	movf	i2___flmul@aexp^0,w,c
  5353   001372  B4D8               	btfsc	status,2,c
  5354   001374  EFBE  F009         	goto	i2u393_41
  5355   001378  EFC0  F009         	goto	i2u393_40
  5356   00137C                     i2u393_41:
  5357   00137C  EFD3  F009         	goto	i2l3032
  5358   001380                     i2u393_40:
  5359   001380  2820               	incf	i2___flmul@aexp^0,w,c
  5360   001382  A4D8               	btfss	status,2,c
  5361   001384  EFC6  F009         	goto	i2u394_41
  5362   001388  EFC8  F009         	goto	i2u394_40
  5363   00138C                     i2u394_41:
  5364   00138C  EFD0  F009         	goto	i2l3030
  5365   001390                     i2u394_40:
  5366   001390  0E00               	movlw	0
  5367   001392  6E13               	movwf	i2___flmul@a^0,c
  5368   001394  0E00               	movlw	0
  5369   001396  6E14               	movwf	(i2___flmul@a+1)^0,c
  5370   001398  0E00               	movlw	0
  5371   00139A  6E15               	movwf	(i2___flmul@a+2)^0,c
  5372   00139C  0E00               	movlw	0
  5373   00139E  6E16               	movwf	(i2___flmul@a+3)^0,c
  5374   0013A0                     i2l3030:
  5375   0013A0  8E15               	bsf	(i2___flmul@a+2)^0,7,c
  5376   0013A2  EFDB  F009         	goto	i2l733
  5377   0013A6                     i2l3032:
  5378   0013A6  0E00               	movlw	0
  5379   0013A8  6E13               	movwf	i2___flmul@a^0,c
  5380   0013AA  0E00               	movlw	0
  5381   0013AC  6E14               	movwf	(i2___flmul@a+1)^0,c
  5382   0013AE  0E00               	movlw	0
  5383   0013B0  6E15               	movwf	(i2___flmul@a+2)^0,c
  5384   0013B2  0E00               	movlw	0
  5385   0013B4  6E16               	movwf	(i2___flmul@a+3)^0,c
  5386   0013B6                     i2l733:
  5387   0013B6  5020               	movf	i2___flmul@aexp^0,w,c
  5388   0013B8  B4D8               	btfsc	status,2,c
  5389   0013BA  EFE1  F009         	goto	i2u395_41
  5390   0013BE  EFE3  F009         	goto	i2u395_40
  5391   0013C2                     i2u395_41:
  5392   0013C2  EFEB  F009         	goto	i2l3036
  5393   0013C6                     i2u395_40:
  5394   0013C6  5021               	movf	i2___flmul@bexp^0,w,c
  5395   0013C8  A4D8               	btfss	status,2,c
  5396   0013CA  EFE9  F009         	goto	i2u396_41
  5397   0013CE  EFEB  F009         	goto	i2u396_40
  5398   0013D2                     i2u396_41:
  5399   0013D2  EFF5  F009         	goto	i2l3040
  5400   0013D6                     i2u396_40:
  5401   0013D6                     i2l3036:
  5402   0013D6  0E00               	movlw	0
  5403   0013D8  6E0F               	movwf	?i2___flmul^0,c
  5404   0013DA  0E00               	movlw	0
  5405   0013DC  6E10               	movwf	(?i2___flmul+1)^0,c
  5406   0013DE  0E00               	movlw	0
  5407   0013E0  6E11               	movwf	(?i2___flmul+2)^0,c
  5408   0013E2  0E00               	movlw	0
  5409   0013E4  6E12               	movwf	(?i2___flmul+3)^0,c
  5410   0013E6  EF8D  F00B         	goto	i2l737
  5411   0013EA                     i2l3040:
  5412   0013EA  5015               	movf	(i2___flmul@a+2)^0,w,c
  5413   0013EC  020F               	mulwf	i2___flmul@b^0,c
  5414   0013EE  CFF3 F026          	movff	prodl,i2___flmul@temp
  5415   0013F2  CFF4 F027          	movff	prodh,i2___flmul@temp+1
  5416   0013F6  5026               	movf	i2___flmul@temp^0,w,c
  5417   0013F8  6E1C               	movwf	i2___flmul@grs^0,c
  5418   0013FA  6A1D               	clrf	(i2___flmul@grs+1)^0,c
  5419   0013FC  6A1E               	clrf	(i2___flmul@grs+2)^0,c
  5420   0013FE  6A1F               	clrf	(i2___flmul@grs+3)^0,c
  5421   001400  5027               	movf	(i2___flmul@temp+1)^0,w,c
  5422   001402  6E22               	movwf	i2___flmul@prod^0,c
  5423   001404  6A23               	clrf	(i2___flmul@prod+1)^0,c
  5424   001406  6A24               	clrf	(i2___flmul@prod+2)^0,c
  5425   001408  6A25               	clrf	(i2___flmul@prod+3)^0,c
  5426   00140A  5014               	movf	(i2___flmul@a+1)^0,w,c
  5427   00140C  0210               	mulwf	(i2___flmul@b+1)^0,c
  5428   00140E  CFF3 F026          	movff	prodl,i2___flmul@temp
  5429   001412  CFF4 F027          	movff	prodh,i2___flmul@temp+1
  5430   001416  5026               	movf	i2___flmul@temp^0,w,c
  5431   001418  261C               	addwf	i2___flmul@grs^0,f,c
  5432   00141A  0E00               	movlw	0
  5433   00141C  221D               	addwfc	(i2___flmul@grs+1)^0,f,c
  5434   00141E  221E               	addwfc	(i2___flmul@grs+2)^0,f,c
  5435   001420  221F               	addwfc	(i2___flmul@grs+3)^0,f,c
  5436   001422  5027               	movf	(i2___flmul@temp+1)^0,w,c
  5437   001424  2622               	addwf	i2___flmul@prod^0,f,c
  5438   001426  0E00               	movlw	0
  5439   001428  2223               	addwfc	(i2___flmul@prod+1)^0,f,c
  5440   00142A  2224               	addwfc	(i2___flmul@prod+2)^0,f,c
  5441   00142C  2225               	addwfc	(i2___flmul@prod+3)^0,f,c
  5442   00142E  5013               	movf	i2___flmul@a^0,w,c
  5443   001430  0211               	mulwf	(i2___flmul@b+2)^0,c
  5444   001432  CFF3 F026          	movff	prodl,i2___flmul@temp
  5445   001436  CFF4 F027          	movff	prodh,i2___flmul@temp+1
  5446   00143A  5026               	movf	i2___flmul@temp^0,w,c
  5447   00143C  261C               	addwf	i2___flmul@grs^0,f,c
  5448   00143E  0E00               	movlw	0
  5449   001440  221D               	addwfc	(i2___flmul@grs+1)^0,f,c
  5450   001442  221E               	addwfc	(i2___flmul@grs+2)^0,f,c
  5451   001444  221F               	addwfc	(i2___flmul@grs+3)^0,f,c
  5452   001446  5027               	movf	(i2___flmul@temp+1)^0,w,c
  5453   001448  2622               	addwf	i2___flmul@prod^0,f,c
  5454   00144A  0E00               	movlw	0
  5455   00144C  2223               	addwfc	(i2___flmul@prod+1)^0,f,c
  5456   00144E  2224               	addwfc	(i2___flmul@prod+2)^0,f,c
  5457   001450  2225               	addwfc	(i2___flmul@prod+3)^0,f,c
  5458   001452  C01E  F01F         	movff	i2___flmul@grs+2,i2___flmul@grs+3
  5459   001456  C01D  F01E         	movff	i2___flmul@grs+1,i2___flmul@grs+2
  5460   00145A  C01C  F01D         	movff	i2___flmul@grs,i2___flmul@grs+1
  5461   00145E  6A1C               	clrf	i2___flmul@grs^0,c
  5462   001460  5013               	movf	i2___flmul@a^0,w,c
  5463   001462  0210               	mulwf	(i2___flmul@b+1)^0,c
  5464   001464  CFF3 F026          	movff	prodl,i2___flmul@temp
  5465   001468  CFF4 F027          	movff	prodh,i2___flmul@temp+1
  5466   00146C  5026               	movf	i2___flmul@temp^0,w,c
  5467   00146E  261C               	addwf	i2___flmul@grs^0,f,c
  5468   001470  5027               	movf	(i2___flmul@temp+1)^0,w,c
  5469   001472  221D               	addwfc	(i2___flmul@grs+1)^0,f,c
  5470   001474  0E00               	movlw	0
  5471   001476  221E               	addwfc	(i2___flmul@grs+2)^0,f,c
  5472   001478  0E00               	movlw	0
  5473   00147A  221F               	addwfc	(i2___flmul@grs+3)^0,f,c
  5474   00147C  5014               	movf	(i2___flmul@a+1)^0,w,c
  5475   00147E  020F               	mulwf	i2___flmul@b^0,c
  5476   001480  CFF3 F026          	movff	prodl,i2___flmul@temp
  5477   001484  CFF4 F027          	movff	prodh,i2___flmul@temp+1
  5478   001488  5026               	movf	i2___flmul@temp^0,w,c
  5479   00148A  261C               	addwf	i2___flmul@grs^0,f,c
  5480   00148C  5027               	movf	(i2___flmul@temp+1)^0,w,c
  5481   00148E  221D               	addwfc	(i2___flmul@grs+1)^0,f,c
  5482   001490  0E00               	movlw	0
  5483   001492  221E               	addwfc	(i2___flmul@grs+2)^0,f,c
  5484   001494  0E00               	movlw	0
  5485   001496  221F               	addwfc	(i2___flmul@grs+3)^0,f,c
  5486   001498  C01E  F01F         	movff	i2___flmul@grs+2,i2___flmul@grs+3
  5487   00149C  C01D  F01E         	movff	i2___flmul@grs+1,i2___flmul@grs+2
  5488   0014A0  C01C  F01D         	movff	i2___flmul@grs,i2___flmul@grs+1
  5489   0014A4  6A1C               	clrf	i2___flmul@grs^0,c
  5490   0014A6  5013               	movf	i2___flmul@a^0,w,c
  5491   0014A8  020F               	mulwf	i2___flmul@b^0,c
  5492   0014AA  CFF3 F026          	movff	prodl,i2___flmul@temp
  5493   0014AE  CFF4 F027          	movff	prodh,i2___flmul@temp+1
  5494   0014B2  5026               	movf	i2___flmul@temp^0,w,c
  5495   0014B4  261C               	addwf	i2___flmul@grs^0,f,c
  5496   0014B6  5027               	movf	(i2___flmul@temp+1)^0,w,c
  5497   0014B8  221D               	addwfc	(i2___flmul@grs+1)^0,f,c
  5498   0014BA  0E00               	movlw	0
  5499   0014BC  221E               	addwfc	(i2___flmul@grs+2)^0,f,c
  5500   0014BE  0E00               	movlw	0
  5501   0014C0  221F               	addwfc	(i2___flmul@grs+3)^0,f,c
  5502   0014C2  5015               	movf	(i2___flmul@a+2)^0,w,c
  5503   0014C4  0210               	mulwf	(i2___flmul@b+1)^0,c
  5504   0014C6  CFF3 F026          	movff	prodl,i2___flmul@temp
  5505   0014CA  CFF4 F027          	movff	prodh,i2___flmul@temp+1
  5506   0014CE  5026               	movf	i2___flmul@temp^0,w,c
  5507   0014D0  2622               	addwf	i2___flmul@prod^0,f,c
  5508   0014D2  5027               	movf	(i2___flmul@temp+1)^0,w,c
  5509   0014D4  2223               	addwfc	(i2___flmul@prod+1)^0,f,c
  5510   0014D6  0E00               	movlw	0
  5511   0014D8  2224               	addwfc	(i2___flmul@prod+2)^0,f,c
  5512   0014DA  0E00               	movlw	0
  5513   0014DC  2225               	addwfc	(i2___flmul@prod+3)^0,f,c
  5514   0014DE  5014               	movf	(i2___flmul@a+1)^0,w,c
  5515   0014E0  0211               	mulwf	(i2___flmul@b+2)^0,c
  5516   0014E2  CFF3 F026          	movff	prodl,i2___flmul@temp
  5517   0014E6  CFF4 F027          	movff	prodh,i2___flmul@temp+1
  5518   0014EA  5026               	movf	i2___flmul@temp^0,w,c
  5519   0014EC  2622               	addwf	i2___flmul@prod^0,f,c
  5520   0014EE  5027               	movf	(i2___flmul@temp+1)^0,w,c
  5521   0014F0  2223               	addwfc	(i2___flmul@prod+1)^0,f,c
  5522   0014F2  0E00               	movlw	0
  5523   0014F4  2224               	addwfc	(i2___flmul@prod+2)^0,f,c
  5524   0014F6  0E00               	movlw	0
  5525   0014F8  2225               	addwfc	(i2___flmul@prod+3)^0,f,c
  5526   0014FA  5015               	movf	(i2___flmul@a+2)^0,w,c
  5527   0014FC  0211               	mulwf	(i2___flmul@b+2)^0,c
  5528   0014FE  CFF3 F026          	movff	prodl,i2___flmul@temp
  5529   001502  CFF4 F027          	movff	prodh,i2___flmul@temp+1
  5530   001506  5026               	movf	i2___flmul@temp^0,w,c
  5531   001508  6E17               	movwf	??i2___flmul^0,c
  5532   00150A  5027               	movf	(i2___flmul@temp+1)^0,w,c
  5533   00150C  6E18               	movwf	(??i2___flmul+1)^0,c
  5534   00150E  6A19               	clrf	(??i2___flmul+2)^0,c
  5535   001510  6A1A               	clrf	(??i2___flmul+3)^0,c
  5536   001512  C019  F01A         	movff	??i2___flmul+2,??i2___flmul+3
  5537   001516  C018  F019         	movff	??i2___flmul+1,??i2___flmul+2
  5538   00151A  C017  F018         	movff	??i2___flmul,??i2___flmul+1
  5539   00151E  6A17               	clrf	??i2___flmul^0,c
  5540   001520  5017               	movf	??i2___flmul^0,w,c
  5541   001522  2622               	addwf	i2___flmul@prod^0,f,c
  5542   001524  5018               	movf	(??i2___flmul+1)^0,w,c
  5543   001526  2223               	addwfc	(i2___flmul@prod+1)^0,f,c
  5544   001528  5019               	movf	(??i2___flmul+2)^0,w,c
  5545   00152A  2224               	addwfc	(i2___flmul@prod+2)^0,f,c
  5546   00152C  501A               	movf	(??i2___flmul+3)^0,w,c
  5547   00152E  2225               	addwfc	(i2___flmul@prod+3)^0,f,c
  5548   001530  C01C  F017         	movff	i2___flmul@grs,??i2___flmul
  5549   001534  C01D  F018         	movff	i2___flmul@grs+1,??i2___flmul+1
  5550   001538  C01E  F019         	movff	i2___flmul@grs+2,??i2___flmul+2
  5551   00153C  C01F  F01A         	movff	i2___flmul@grs+3,??i2___flmul+3
  5552   001540  0E19               	movlw	25
  5553   001542  EFA8  F00A         	goto	i2u397_40
  5554   001546                     i2u397_45:
  5555   001546  90D8               	bcf	status,0,c
  5556   001548  321A               	rrcf	(??i2___flmul+3)^0,f,c
  5557   00154A  3219               	rrcf	(??i2___flmul+2)^0,f,c
  5558   00154C  3218               	rrcf	(??i2___flmul+1)^0,f,c
  5559   00154E  3217               	rrcf	??i2___flmul^0,f,c
  5560   001550                     i2u397_40:
  5561   001550  2EE8               	decfsz	wreg,f,c
  5562   001552  EFA3  F00A         	goto	i2u397_45
  5563   001556  5017               	movf	??i2___flmul^0,w,c
  5564   001558  2622               	addwf	i2___flmul@prod^0,f,c
  5565   00155A  5018               	movf	(??i2___flmul+1)^0,w,c
  5566   00155C  2223               	addwfc	(i2___flmul@prod+1)^0,f,c
  5567   00155E  5019               	movf	(??i2___flmul+2)^0,w,c
  5568   001560  2224               	addwfc	(i2___flmul@prod+2)^0,f,c
  5569   001562  501A               	movf	(??i2___flmul+3)^0,w,c
  5570   001564  2225               	addwfc	(i2___flmul@prod+3)^0,f,c
  5571   001566  C01E  F01F         	movff	i2___flmul@grs+2,i2___flmul@grs+3
  5572   00156A  C01D  F01E         	movff	i2___flmul@grs+1,i2___flmul@grs+2
  5573   00156E  C01C  F01D         	movff	i2___flmul@grs,i2___flmul@grs+1
  5574   001572  6A1C               	clrf	i2___flmul@grs^0,c
  5575   001574  5020               	movf	i2___flmul@aexp^0,w,c
  5576   001576  C021  F017         	movff	i2___flmul@bexp,??i2___flmul
  5577   00157A  6A18               	clrf	(??i2___flmul+1)^0,c
  5578   00157C  2617               	addwf	??i2___flmul^0,f,c
  5579   00157E  0E00               	movlw	0
  5580   001580  2218               	addwfc	(??i2___flmul+1)^0,f,c
  5581   001582  0E82               	movlw	130
  5582   001584  2417               	addwf	??i2___flmul^0,w,c
  5583   001586  6E26               	movwf	i2___flmul@temp^0,c
  5584   001588  0EFF               	movlw	255
  5585   00158A  2018               	addwfc	(??i2___flmul+1)^0,w,c
  5586   00158C  6E27               	movwf	(i2___flmul@temp+1)^0,c
  5587   00158E  EFDE  F00A         	goto	i2l3088
  5588   001592                     i2l3082:
  5589   001592  90D8               	bcf	status,0,c
  5590   001594  3622               	rlcf	i2___flmul@prod^0,f,c
  5591   001596  3623               	rlcf	(i2___flmul@prod+1)^0,f,c
  5592   001598  3624               	rlcf	(i2___flmul@prod+2)^0,f,c
  5593   00159A  3625               	rlcf	(i2___flmul@prod+3)^0,f,c
  5594   00159C  AE1F               	btfss	(i2___flmul@grs+3)^0,7,c
  5595   00159E  EFD3  F00A         	goto	i2u398_41
  5596   0015A2  EFD5  F00A         	goto	i2u398_40
  5597   0015A6                     i2u398_41:
  5598   0015A6  EFD6  F00A         	goto	i2l740
  5599   0015AA                     i2u398_40:
  5600   0015AA  8022               	bsf	i2___flmul@prod^0,0,c
  5601   0015AC                     i2l740:
  5602   0015AC  90D8               	bcf	status,0,c
  5603   0015AE  361C               	rlcf	i2___flmul@grs^0,f,c
  5604   0015B0  361D               	rlcf	(i2___flmul@grs+1)^0,f,c
  5605   0015B2  361E               	rlcf	(i2___flmul@grs+2)^0,f,c
  5606   0015B4  361F               	rlcf	(i2___flmul@grs+3)^0,f,c
  5607   0015B6  0626               	decf	i2___flmul@temp^0,f,c
  5608   0015B8  A0D8               	btfss	status,0,c
  5609   0015BA  0627               	decf	(i2___flmul@temp+1)^0,f,c
  5610   0015BC                     i2l3088:
  5611   0015BC  AE24               	btfss	(i2___flmul@prod+2)^0,7,c
  5612   0015BE  EFE3  F00A         	goto	i2u399_41
  5613   0015C2  EFE5  F00A         	goto	i2u399_40
  5614   0015C6                     i2u399_41:
  5615   0015C6  EFC9  F00A         	goto	i2l3082
  5616   0015CA                     i2u399_40:
  5617   0015CA  0E00               	movlw	0
  5618   0015CC  6E20               	movwf	i2___flmul@aexp^0,c
  5619   0015CE  AE1F               	btfss	(i2___flmul@grs+3)^0,7,c
  5620   0015D0  EFEC  F00A         	goto	i2u400_41
  5621   0015D4  EFEE  F00A         	goto	i2u400_40
  5622   0015D8                     i2u400_41:
  5623   0015D8  EF12  F00B         	goto	i2l742
  5624   0015DC                     i2u400_40:
  5625   0015DC  0EFF               	movlw	255
  5626   0015DE  141C               	andwf	i2___flmul@grs^0,w,c
  5627   0015E0  6E17               	movwf	??i2___flmul^0,c
  5628   0015E2  0EFF               	movlw	255
  5629   0015E4  141D               	andwf	(i2___flmul@grs+1)^0,w,c
  5630   0015E6  6E18               	movwf	(??i2___flmul+1)^0,c
  5631   0015E8  0EFF               	movlw	255
  5632   0015EA  141E               	andwf	(i2___flmul@grs+2)^0,w,c
  5633   0015EC  6E19               	movwf	(??i2___flmul+2)^0,c
  5634   0015EE  0E7F               	movlw	127
  5635   0015F0  141F               	andwf	(i2___flmul@grs+3)^0,w,c
  5636   0015F2  6E1A               	movwf	(??i2___flmul+3)^0,c
  5637   0015F4  5017               	movf	??i2___flmul^0,w,c
  5638   0015F6  1018               	iorwf	(??i2___flmul+1)^0,w,c
  5639   0015F8  1019               	iorwf	(??i2___flmul+2)^0,w,c
  5640   0015FA  101A               	iorwf	(??i2___flmul+3)^0,w,c
  5641   0015FC  B4D8               	btfsc	status,2,c
  5642   0015FE  EF03  F00B         	goto	i2u401_41
  5643   001602  EF05  F00B         	goto	i2u401_40
  5644   001606                     i2u401_41:
  5645   001606  EF09  F00B         	goto	i2l743
  5646   00160A                     i2u401_40:
  5647   00160A                     i2l3096:
  5648   00160A  0E01               	movlw	1
  5649   00160C  6E20               	movwf	i2___flmul@aexp^0,c
  5650   00160E  EF12  F00B         	goto	i2l742
  5651   001612                     i2l743:
  5652   001612  A022               	btfss	i2___flmul@prod^0,0,c
  5653   001614  EF0E  F00B         	goto	i2u402_41
  5654   001618  EF10  F00B         	goto	i2u402_40
  5655   00161C                     i2u402_41:
  5656   00161C  EF12  F00B         	goto	i2l742
  5657   001620                     i2u402_40:
  5658   001620  EF05  F00B         	goto	i2l3096
  5659   001624                     i2l742:
  5660   001624  5020               	movf	i2___flmul@aexp^0,w,c
  5661   001626  B4D8               	btfsc	status,2,c
  5662   001628  EF18  F00B         	goto	i2u403_41
  5663   00162C  EF1A  F00B         	goto	i2u403_40
  5664   001630                     i2u403_41:
  5665   001630  EF3E  F00B         	goto	i2l3108
  5666   001634                     i2u403_40:
  5667   001634  0E01               	movlw	1
  5668   001636  2622               	addwf	i2___flmul@prod^0,f,c
  5669   001638  0E00               	movlw	0
  5670   00163A  2223               	addwfc	(i2___flmul@prod+1)^0,f,c
  5671   00163C  2224               	addwfc	(i2___flmul@prod+2)^0,f,c
  5672   00163E  2225               	addwfc	(i2___flmul@prod+3)^0,f,c
  5673   001640  A025               	btfss	(i2___flmul@prod+3)^0,0,c
  5674   001642  EF25  F00B         	goto	i2u404_41
  5675   001646  EF27  F00B         	goto	i2u404_40
  5676   00164A                     i2u404_41:
  5677   00164A  EF3E  F00B         	goto	i2l3108
  5678   00164E                     i2u404_40:
  5679   00164E  C022  F017         	movff	i2___flmul@prod,??i2___flmul
  5680   001652  C023  F018         	movff	i2___flmul@prod+1,??i2___flmul+1
  5681   001656  C024  F019         	movff	i2___flmul@prod+2,??i2___flmul+2
  5682   00165A  C025  F01A         	movff	i2___flmul@prod+3,??i2___flmul+3
  5683   00165E  341A               	rlcf	(??i2___flmul+3)^0,w,c
  5684   001660  321A               	rrcf	(??i2___flmul+3)^0,f,c
  5685   001662  3219               	rrcf	(??i2___flmul+2)^0,f,c
  5686   001664  3218               	rrcf	(??i2___flmul+1)^0,f,c
  5687   001666  3217               	rrcf	??i2___flmul^0,f,c
  5688   001668  C017  F022         	movff	??i2___flmul,i2___flmul@prod
  5689   00166C  C018  F023         	movff	??i2___flmul+1,i2___flmul@prod+1
  5690   001670  C019  F024         	movff	??i2___flmul+2,i2___flmul@prod+2
  5691   001674  C01A  F025         	movff	??i2___flmul+3,i2___flmul@prod+3
  5692   001678  4A26               	infsnz	i2___flmul@temp^0,f,c
  5693   00167A  2A27               	incf	(i2___flmul@temp+1)^0,f,c
  5694   00167C                     i2l3108:
  5695   00167C  BE27               	btfsc	(i2___flmul@temp+1)^0,7,c
  5696   00167E  EF49  F00B         	goto	i2u405_41
  5697   001682  5027               	movf	(i2___flmul@temp+1)^0,w,c
  5698   001684  E108               	bnz	i2u405_40
  5699   001686  2826               	incf	i2___flmul@temp^0,w,c
  5700   001688  A0D8               	btfss	status,0,c
  5701   00168A  EF49  F00B         	goto	i2u405_41
  5702   00168E  EF4B  F00B         	goto	i2u405_40
  5703   001692                     i2u405_41:
  5704   001692  EF55  F00B         	goto	i2l3112
  5705   001696                     i2u405_40:
  5706   001696  0E00               	movlw	0
  5707   001698  6E22               	movwf	i2___flmul@prod^0,c
  5708   00169A  0E00               	movlw	0
  5709   00169C  6E23               	movwf	(i2___flmul@prod+1)^0,c
  5710   00169E  0E80               	movlw	128
  5711   0016A0  6E24               	movwf	(i2___flmul@prod+2)^0,c
  5712   0016A2  0E7F               	movlw	127
  5713   0016A4  6E25               	movwf	(i2___flmul@prod+3)^0,c
  5714   0016A6  EF83  F00B         	goto	i2l3124
  5715   0016AA                     i2l3112:
  5716   0016AA  BE27               	btfsc	(i2___flmul@temp+1)^0,7,c
  5717   0016AC  EF62  F00B         	goto	i2u406_40
  5718   0016B0  5027               	movf	(i2___flmul@temp+1)^0,w,c
  5719   0016B2  E106               	bnz	i2u406_41
  5720   0016B4  0426               	decf	i2___flmul@temp^0,w,c
  5721   0016B6  B0D8               	btfsc	status,0,c
  5722   0016B8  EF60  F00B         	goto	i2u406_41
  5723   0016BC  EF62  F00B         	goto	i2u406_40
  5724   0016C0                     i2u406_41:
  5725   0016C0  EF6E  F00B         	goto	i2l750
  5726   0016C4                     i2u406_40:
  5727   0016C4  0E00               	movlw	0
  5728   0016C6  6E22               	movwf	i2___flmul@prod^0,c
  5729   0016C8  0E00               	movlw	0
  5730   0016CA  6E23               	movwf	(i2___flmul@prod+1)^0,c
  5731   0016CC  0E00               	movlw	0
  5732   0016CE  6E24               	movwf	(i2___flmul@prod+2)^0,c
  5733   0016D0  0E00               	movlw	0
  5734   0016D2  6E25               	movwf	(i2___flmul@prod+3)^0,c
  5735   0016D4  0E00               	movlw	0
  5736   0016D6  6E1B               	movwf	i2___flmul@sign^0,c
  5737   0016D8  EF83  F00B         	goto	i2l3124
  5738   0016DC                     i2l750:
  5739   0016DC  C026  F021         	movff	i2___flmul@temp,i2___flmul@bexp
  5740   0016E0  0EFF               	movlw	255
  5741   0016E2  1622               	andwf	i2___flmul@prod^0,f,c
  5742   0016E4  0EFF               	movlw	255
  5743   0016E6  1623               	andwf	(i2___flmul@prod+1)^0,f,c
  5744   0016E8  0E7F               	movlw	127
  5745   0016EA  1624               	andwf	(i2___flmul@prod+2)^0,f,c
  5746   0016EC  0E00               	movlw	0
  5747   0016EE  1625               	andwf	(i2___flmul@prod+3)^0,f,c
  5748   0016F0  A021               	btfss	i2___flmul@bexp^0,0,c
  5749   0016F2  EF7D  F00B         	goto	i2u407_41
  5750   0016F6  EF7F  F00B         	goto	i2u407_40
  5751   0016FA                     i2u407_41:
  5752   0016FA  EF80  F00B         	goto	i2l3122
  5753   0016FE                     i2u407_40:
  5754   0016FE  8E24               	bsf	(i2___flmul@prod+2)^0,7,c
  5755   001700                     i2l3122:
  5756   001700  90D8               	bcf	status,0,c
  5757   001702  3021               	rrcf	i2___flmul@bexp^0,w,c
  5758   001704  6E25               	movwf	(i2___flmul@prod+3)^0,c
  5759   001706                     i2l3124:
  5760   001706  501B               	movf	i2___flmul@sign^0,w,c
  5761   001708  1225               	iorwf	(i2___flmul@prod+3)^0,f,c
  5762   00170A  C022  F00F         	movff	i2___flmul@prod,?i2___flmul
  5763   00170E  C023  F010         	movff	i2___flmul@prod+1,?i2___flmul+1
  5764   001712  C024  F011         	movff	i2___flmul@prod+2,?i2___flmul+2
  5765   001716  C025  F012         	movff	i2___flmul@prod+3,?i2___flmul+3
  5766   00171A                     i2l737:
  5767   00171A  0012               	return		;funcret
  5768   00171C                     __end_ofi2___flmul:
  5769                           	callstack 0
  5770                           
  5771 ;; *************** function i2___fldiv *****************
  5772 ;; Defined at:
  5773 ;;		line 11 in file "C:\Program Files\Microchip\xc8\v2.40\pic\sources\c99\common\sprcdiv.c"
  5774 ;; Parameters:    Size  Location     Type
  5775 ;;  b               4   39[COMRAM] unsigned char 
  5776 ;;  a               4   43[COMRAM] unsigned char 
  5777 ;; Auto vars:     Size  Location     Type
  5778 ;;  grs             4   58[COMRAM] unsigned long 
  5779 ;;  rem             4   51[COMRAM] unsigned long 
  5780 ;;  new_exp         2   56[COMRAM] short 
  5781 ;;  aexp            1   63[COMRAM] unsigned char 
  5782 ;;  bexp            1   62[COMRAM] unsigned char 
  5783 ;;  sign            1   55[COMRAM] unsigned char 
  5784 ;; Return value:  Size  Location     Type
  5785 ;;                  4   39[COMRAM] unsigned char 
  5786 ;; Registers used:
  5787 ;;		wreg, status,2, status,0
  5788 ;; Tracked objects:
  5789 ;;		On entry : 0/0
  5790 ;;		On exit  : 0/0
  5791 ;;		Unchanged: 0/0
  5792 ;; Data sizes:     COMRAM   BANK0   BANK1   BANK2   BANK3   BANK4   BANK5   BANK6   BANK7
  5793 ;;      Params:         8       0       0       0       0       0       0       0       0
  5794 ;;      Locals:        13       0       0       0       0       0       0       0       0
  5795 ;;      Temps:          4       0       0       0       0       0       0       0       0
  5796 ;;      Totals:        25       0       0       0       0       0       0       0       0
  5797 ;;Total ram usage:       25 bytes
  5798 ;; Hardware stack levels used: 1
  5799 ;; This function calls:
  5800 ;;		Nothing
  5801 ;; This function is called by:
  5802 ;;		_ISR
  5803 ;; This function uses a non-reentrant model
  5804 ;;
  5805                           
  5806                           	psect	text13
  5807   001AB8                     __ptext13:
  5808                           	callstack 0
  5809   001AB8                     i2___fldiv:
  5810                           	callstack 27
  5811   001AB8  502B               	movf	(i2___fldiv@b+3)^0,w,c
  5812   001ABA  0B80               	andlw	128
  5813   001ABC  6E38               	movwf	i2___fldiv@sign^0,c
  5814   001ABE  502B               	movf	(i2___fldiv@b+3)^0,w,c
  5815   001AC0  242B               	addwf	(i2___fldiv@b+3)^0,w,c
  5816   001AC2  6E3F               	movwf	i2___fldiv@bexp^0,c
  5817   001AC4  AE2A               	btfss	(i2___fldiv@b+2)^0,7,c
  5818   001AC6  EF67  F00D         	goto	i2u366_41
  5819   001ACA  EF69  F00D         	goto	i2u366_40
  5820   001ACE                     i2u366_41:
  5821   001ACE  EF6A  F00D         	goto	i2l2868
  5822   001AD2                     i2u366_40:
  5823   001AD2  803F               	bsf	i2___fldiv@bexp^0,0,c
  5824   001AD4                     i2l2868:
  5825   001AD4  503F               	movf	i2___fldiv@bexp^0,w,c
  5826   001AD6  B4D8               	btfsc	status,2,c
  5827   001AD8  EF70  F00D         	goto	i2u367_41
  5828   001ADC  EF72  F00D         	goto	i2u367_40
  5829   001AE0                     i2u367_41:
  5830   001AE0  EF87  F00D         	goto	i2l2878
  5831   001AE4                     i2u367_40:
  5832   001AE4  283F               	incf	i2___fldiv@bexp^0,w,c
  5833   001AE6  A4D8               	btfss	status,2,c
  5834   001AE8  EF78  F00D         	goto	i2u368_41
  5835   001AEC  EF7A  F00D         	goto	i2u368_40
  5836   001AF0                     i2u368_41:
  5837   001AF0  EF82  F00D         	goto	i2l2874
  5838   001AF4                     i2u368_40:
  5839   001AF4  0E00               	movlw	0
  5840   001AF6  6E28               	movwf	i2___fldiv@b^0,c
  5841   001AF8  0E00               	movlw	0
  5842   001AFA  6E29               	movwf	(i2___fldiv@b+1)^0,c
  5843   001AFC  0E00               	movlw	0
  5844   001AFE  6E2A               	movwf	(i2___fldiv@b+2)^0,c
  5845   001B00  0E00               	movlw	0
  5846   001B02  6E2B               	movwf	(i2___fldiv@b+3)^0,c
  5847   001B04                     i2l2874:
  5848   001B04  8E2A               	bsf	(i2___fldiv@b+2)^0,7,c
  5849   001B06  0E00               	movlw	0
  5850   001B08  6E2B               	movwf	(i2___fldiv@b+3)^0,c
  5851   001B0A  EF8F  F00D         	goto	i2l2880
  5852   001B0E                     i2l2878:
  5853   001B0E  0E00               	movlw	0
  5854   001B10  6E28               	movwf	i2___fldiv@b^0,c
  5855   001B12  0E00               	movlw	0
  5856   001B14  6E29               	movwf	(i2___fldiv@b+1)^0,c
  5857   001B16  0E00               	movlw	0
  5858   001B18  6E2A               	movwf	(i2___fldiv@b+2)^0,c
  5859   001B1A  0E00               	movlw	0
  5860   001B1C  6E2B               	movwf	(i2___fldiv@b+3)^0,c
  5861   001B1E                     i2l2880:
  5862   001B1E  502F               	movf	(i2___fldiv@a+3)^0,w,c
  5863   001B20  0B80               	andlw	128
  5864   001B22  1A38               	xorwf	i2___fldiv@sign^0,f,c
  5865   001B24  502F               	movf	(i2___fldiv@a+3)^0,w,c
  5866   001B26  242F               	addwf	(i2___fldiv@a+3)^0,w,c
  5867   001B28  6E40               	movwf	i2___fldiv@aexp^0,c
  5868   001B2A  AE2E               	btfss	(i2___fldiv@a+2)^0,7,c
  5869   001B2C  EF9A  F00D         	goto	i2u369_41
  5870   001B30  EF9C  F00D         	goto	i2u369_40
  5871   001B34                     i2u369_41:
  5872   001B34  EF9D  F00D         	goto	i2l2888
  5873   001B38                     i2u369_40:
  5874   001B38  8040               	bsf	i2___fldiv@aexp^0,0,c
  5875   001B3A                     i2l2888:
  5876   001B3A  5040               	movf	i2___fldiv@aexp^0,w,c
  5877   001B3C  B4D8               	btfsc	status,2,c
  5878   001B3E  EFA3  F00D         	goto	i2u370_41
  5879   001B42  EFA5  F00D         	goto	i2u370_40
  5880   001B46                     i2u370_41:
  5881   001B46  EFBA  F00D         	goto	i2l2898
  5882   001B4A                     i2u370_40:
  5883   001B4A  2840               	incf	i2___fldiv@aexp^0,w,c
  5884   001B4C  A4D8               	btfss	status,2,c
  5885   001B4E  EFAB  F00D         	goto	i2u371_41
  5886   001B52  EFAD  F00D         	goto	i2u371_40
  5887   001B56                     i2u371_41:
  5888   001B56  EFB5  F00D         	goto	i2l2894
  5889   001B5A                     i2u371_40:
  5890   001B5A  0E00               	movlw	0
  5891   001B5C  6E2C               	movwf	i2___fldiv@a^0,c
  5892   001B5E  0E00               	movlw	0
  5893   001B60  6E2D               	movwf	(i2___fldiv@a+1)^0,c
  5894   001B62  0E00               	movlw	0
  5895   001B64  6E2E               	movwf	(i2___fldiv@a+2)^0,c
  5896   001B66  0E00               	movlw	0
  5897   001B68  6E2F               	movwf	(i2___fldiv@a+3)^0,c
  5898   001B6A                     i2l2894:
  5899   001B6A  8E2E               	bsf	(i2___fldiv@a+2)^0,7,c
  5900   001B6C  0E00               	movlw	0
  5901   001B6E  6E2F               	movwf	(i2___fldiv@a+3)^0,c
  5902   001B70  EFC2  F00D         	goto	i2l2900
  5903   001B74                     i2l2898:
  5904   001B74  0E00               	movlw	0
  5905   001B76  6E2C               	movwf	i2___fldiv@a^0,c
  5906   001B78  0E00               	movlw	0
  5907   001B7A  6E2D               	movwf	(i2___fldiv@a+1)^0,c
  5908   001B7C  0E00               	movlw	0
  5909   001B7E  6E2E               	movwf	(i2___fldiv@a+2)^0,c
  5910   001B80  0E00               	movlw	0
  5911   001B82  6E2F               	movwf	(i2___fldiv@a+3)^0,c
  5912   001B84                     i2l2900:
  5913   001B84  502C               	movf	i2___fldiv@a^0,w,c
  5914   001B86  102D               	iorwf	(i2___fldiv@a+1)^0,w,c
  5915   001B88  102E               	iorwf	(i2___fldiv@a+2)^0,w,c
  5916   001B8A  102F               	iorwf	(i2___fldiv@a+3)^0,w,c
  5917   001B8C  A4D8               	btfss	status,2,c
  5918   001B8E  EFCB  F00D         	goto	i2u372_41
  5919   001B92  EFCD  F00D         	goto	i2u372_40
  5920   001B96                     i2u372_41:
  5921   001B96  EFE5  F00D         	goto	i2l2912
  5922   001B9A                     i2u372_40:
  5923   001B9A  0E00               	movlw	0
  5924   001B9C  6E28               	movwf	i2___fldiv@b^0,c
  5925   001B9E  0E00               	movlw	0
  5926   001BA0  6E29               	movwf	(i2___fldiv@b+1)^0,c
  5927   001BA2  0E00               	movlw	0
  5928   001BA4  6E2A               	movwf	(i2___fldiv@b+2)^0,c
  5929   001BA6  0E00               	movlw	0
  5930   001BA8  6E2B               	movwf	(i2___fldiv@b+3)^0,c
  5931   001BAA  0E80               	movlw	128
  5932   001BAC  122A               	iorwf	(i2___fldiv@b+2)^0,f,c
  5933   001BAE  0E7F               	movlw	127
  5934   001BB0  122B               	iorwf	(i2___fldiv@b+3)^0,f,c
  5935   001BB2                     i2l2906:
  5936   001BB2  5038               	movf	i2___fldiv@sign^0,w,c
  5937   001BB4  122B               	iorwf	(i2___fldiv@b+3)^0,f,c
  5938   001BB6  C028  F028         	movff	i2___fldiv@b,?i2___fldiv
  5939   001BBA  C029  F029         	movff	i2___fldiv@b+1,?i2___fldiv+1
  5940   001BBE  C02A  F02A         	movff	i2___fldiv@b+2,?i2___fldiv+2
  5941   001BC2  C02B  F02B         	movff	i2___fldiv@b+3,?i2___fldiv+3
  5942   001BC6  EF28  F00F         	goto	i2l701
  5943   001BCA                     i2l2912:
  5944   001BCA  503F               	movf	i2___fldiv@bexp^0,w,c
  5945   001BCC  A4D8               	btfss	status,2,c
  5946   001BCE  EFEB  F00D         	goto	i2u373_41
  5947   001BD2  EFED  F00D         	goto	i2u373_40
  5948   001BD6                     i2u373_41:
  5949   001BD6  EFF7  F00D         	goto	i2l2920
  5950   001BDA                     i2u373_40:
  5951   001BDA  0E00               	movlw	0
  5952   001BDC  6E28               	movwf	?i2___fldiv^0,c
  5953   001BDE  0E00               	movlw	0
  5954   001BE0  6E29               	movwf	(?i2___fldiv+1)^0,c
  5955   001BE2  0E00               	movlw	0
  5956   001BE4  6E2A               	movwf	(?i2___fldiv+2)^0,c
  5957   001BE6  0E00               	movlw	0
  5958   001BE8  6E2B               	movwf	(?i2___fldiv+3)^0,c
  5959   001BEA  EF28  F00F         	goto	i2l701
  5960   001BEE                     i2l2920:
  5961   001BEE  5040               	movf	i2___fldiv@aexp^0,w,c
  5962   001BF0  C03F  F030         	movff	i2___fldiv@bexp,??i2___fldiv
  5963   001BF4  6A31               	clrf	(??i2___fldiv+1)^0,c
  5964   001BF6  5E30               	subwf	??i2___fldiv^0,f,c
  5965   001BF8  0E00               	movlw	0
  5966   001BFA  5A31               	subwfb	(??i2___fldiv+1)^0,f,c
  5967   001BFC  0E7F               	movlw	127
  5968   001BFE  2430               	addwf	??i2___fldiv^0,w,c
  5969   001C00  6E39               	movwf	i2___fldiv@new_exp^0,c
  5970   001C02  0E00               	movlw	0
  5971   001C04  2031               	addwfc	(??i2___fldiv+1)^0,w,c
  5972   001C06  6E3A               	movwf	(i2___fldiv@new_exp+1)^0,c
  5973   001C08  C028  F034         	movff	i2___fldiv@b,i2___fldiv@rem
  5974   001C0C  C029  F035         	movff	i2___fldiv@b+1,i2___fldiv@rem+1
  5975   001C10  C02A  F036         	movff	i2___fldiv@b+2,i2___fldiv@rem+2
  5976   001C14  C02B  F037         	movff	i2___fldiv@b+3,i2___fldiv@rem+3
  5977   001C18  0E00               	movlw	0
  5978   001C1A  6E28               	movwf	i2___fldiv@b^0,c
  5979   001C1C  0E00               	movlw	0
  5980   001C1E  6E29               	movwf	(i2___fldiv@b+1)^0,c
  5981   001C20  0E00               	movlw	0
  5982   001C22  6E2A               	movwf	(i2___fldiv@b+2)^0,c
  5983   001C24  0E00               	movlw	0
  5984   001C26  6E2B               	movwf	(i2___fldiv@b+3)^0,c
  5985   001C28  0E00               	movlw	0
  5986   001C2A  6E3B               	movwf	i2___fldiv@grs^0,c
  5987   001C2C  0E00               	movlw	0
  5988   001C2E  6E3C               	movwf	(i2___fldiv@grs+1)^0,c
  5989   001C30  0E00               	movlw	0
  5990   001C32  6E3D               	movwf	(i2___fldiv@grs+2)^0,c
  5991   001C34  0E00               	movlw	0
  5992   001C36  6E3E               	movwf	(i2___fldiv@grs+3)^0,c
  5993   001C38  0E00               	movlw	0
  5994   001C3A  6E40               	movwf	i2___fldiv@aexp^0,c
  5995   001C3C  EF58  F00E         	goto	i2l703
  5996   001C40                     i2l2930:
  5997   001C40  5040               	movf	i2___fldiv@aexp^0,w,c
  5998   001C42  B4D8               	btfsc	status,2,c
  5999   001C44  EF26  F00E         	goto	i2u374_41
  6000   001C48  EF28  F00E         	goto	i2u374_40
  6001   001C4C                     i2u374_41:
  6002   001C4C  EF3F  F00E         	goto	i2l2938
  6003   001C50                     i2u374_40:
  6004   001C50  90D8               	bcf	status,0,c
  6005   001C52  3634               	rlcf	i2___fldiv@rem^0,f,c
  6006   001C54  3635               	rlcf	(i2___fldiv@rem+1)^0,f,c
  6007   001C56  3636               	rlcf	(i2___fldiv@rem+2)^0,f,c
  6008   001C58  3637               	rlcf	(i2___fldiv@rem+3)^0,f,c
  6009   001C5A  90D8               	bcf	status,0,c
  6010   001C5C  3628               	rlcf	i2___fldiv@b^0,f,c
  6011   001C5E  3629               	rlcf	(i2___fldiv@b+1)^0,f,c
  6012   001C60  362A               	rlcf	(i2___fldiv@b+2)^0,f,c
  6013   001C62  362B               	rlcf	(i2___fldiv@b+3)^0,f,c
  6014   001C64  AE3E               	btfss	(i2___fldiv@grs+3)^0,7,c
  6015   001C66  EF37  F00E         	goto	i2u375_41
  6016   001C6A  EF39  F00E         	goto	i2u375_40
  6017   001C6E                     i2u375_41:
  6018   001C6E  EF3A  F00E         	goto	i2l706
  6019   001C72                     i2u375_40:
  6020   001C72  8028               	bsf	i2___fldiv@b^0,0,c
  6021   001C74                     i2l706:
  6022   001C74  90D8               	bcf	status,0,c
  6023   001C76  363B               	rlcf	i2___fldiv@grs^0,f,c
  6024   001C78  363C               	rlcf	(i2___fldiv@grs+1)^0,f,c
  6025   001C7A  363D               	rlcf	(i2___fldiv@grs+2)^0,f,c
  6026   001C7C  363E               	rlcf	(i2___fldiv@grs+3)^0,f,c
  6027   001C7E                     i2l2938:
  6028   001C7E  502C               	movf	i2___fldiv@a^0,w,c
  6029   001C80  5C34               	subwf	i2___fldiv@rem^0,w,c
  6030   001C82  502D               	movf	(i2___fldiv@a+1)^0,w,c
  6031   001C84  5835               	subwfb	(i2___fldiv@rem+1)^0,w,c
  6032   001C86  502E               	movf	(i2___fldiv@a+2)^0,w,c
  6033   001C88  5836               	subwfb	(i2___fldiv@rem+2)^0,w,c
  6034   001C8A  502F               	movf	(i2___fldiv@a+3)^0,w,c
  6035   001C8C  5837               	subwfb	(i2___fldiv@rem+3)^0,w,c
  6036   001C8E  A0D8               	btfss	status,0,c
  6037   001C90  EF4C  F00E         	goto	i2u376_41
  6038   001C94  EF4E  F00E         	goto	i2u376_40
  6039   001C98                     i2u376_41:
  6040   001C98  EF57  F00E         	goto	i2l2944
  6041   001C9C                     i2u376_40:
  6042   001C9C  8C3E               	bsf	(i2___fldiv@grs+3)^0,6,c
  6043   001C9E  502C               	movf	i2___fldiv@a^0,w,c
  6044   001CA0  5E34               	subwf	i2___fldiv@rem^0,f,c
  6045   001CA2  502D               	movf	(i2___fldiv@a+1)^0,w,c
  6046   001CA4  5A35               	subwfb	(i2___fldiv@rem+1)^0,f,c
  6047   001CA6  502E               	movf	(i2___fldiv@a+2)^0,w,c
  6048   001CA8  5A36               	subwfb	(i2___fldiv@rem+2)^0,f,c
  6049   001CAA  502F               	movf	(i2___fldiv@a+3)^0,w,c
  6050   001CAC  5A37               	subwfb	(i2___fldiv@rem+3)^0,f,c
  6051   001CAE                     i2l2944:
  6052   001CAE  2A40               	incf	i2___fldiv@aexp^0,f,c
  6053   001CB0                     i2l703:
  6054   001CB0  0E19               	movlw	25
  6055   001CB2  6440               	cpfsgt	i2___fldiv@aexp^0,c
  6056   001CB4  EF5E  F00E         	goto	i2u377_41
  6057   001CB8  EF60  F00E         	goto	i2u377_40
  6058   001CBC                     i2u377_41:
  6059   001CBC  EF20  F00E         	goto	i2l2930
  6060   001CC0                     i2u377_40:
  6061   001CC0  5034               	movf	i2___fldiv@rem^0,w,c
  6062   001CC2  1035               	iorwf	(i2___fldiv@rem+1)^0,w,c
  6063   001CC4  1036               	iorwf	(i2___fldiv@rem+2)^0,w,c
  6064   001CC6  1037               	iorwf	(i2___fldiv@rem+3)^0,w,c
  6065   001CC8  B4D8               	btfsc	status,2,c
  6066   001CCA  EF69  F00E         	goto	i2u378_41
  6067   001CCE  EF6B  F00E         	goto	i2u378_40
  6068   001CD2                     i2u378_41:
  6069   001CD2  EF83  F00E         	goto	i2l2956
  6070   001CD6                     i2u378_40:
  6071   001CD6  803B               	bsf	i2___fldiv@grs^0,0,c
  6072   001CD8  EF83  F00E         	goto	i2l2956
  6073   001CDC                     i2l2950:
  6074   001CDC  90D8               	bcf	status,0,c
  6075   001CDE  3628               	rlcf	i2___fldiv@b^0,f,c
  6076   001CE0  3629               	rlcf	(i2___fldiv@b+1)^0,f,c
  6077   001CE2  362A               	rlcf	(i2___fldiv@b+2)^0,f,c
  6078   001CE4  362B               	rlcf	(i2___fldiv@b+3)^0,f,c
  6079   001CE6  AE3E               	btfss	(i2___fldiv@grs+3)^0,7,c
  6080   001CE8  EF78  F00E         	goto	i2u379_41
  6081   001CEC  EF7A  F00E         	goto	i2u379_40
  6082   001CF0                     i2u379_41:
  6083   001CF0  EF7B  F00E         	goto	i2l712
  6084   001CF4                     i2u379_40:
  6085   001CF4  8028               	bsf	i2___fldiv@b^0,0,c
  6086   001CF6                     i2l712:
  6087   001CF6  90D8               	bcf	status,0,c
  6088   001CF8  363B               	rlcf	i2___fldiv@grs^0,f,c
  6089   001CFA  363C               	rlcf	(i2___fldiv@grs+1)^0,f,c
  6090   001CFC  363D               	rlcf	(i2___fldiv@grs+2)^0,f,c
  6091   001CFE  363E               	rlcf	(i2___fldiv@grs+3)^0,f,c
  6092   001D00  0639               	decf	i2___fldiv@new_exp^0,f,c
  6093   001D02  A0D8               	btfss	status,0,c
  6094   001D04  063A               	decf	(i2___fldiv@new_exp+1)^0,f,c
  6095   001D06                     i2l2956:
  6096   001D06  AE2A               	btfss	(i2___fldiv@b+2)^0,7,c
  6097   001D08  EF88  F00E         	goto	i2u380_41
  6098   001D0C  EF8A  F00E         	goto	i2u380_40
  6099   001D10                     i2u380_41:
  6100   001D10  EF6E  F00E         	goto	i2l2950
  6101   001D14                     i2u380_40:
  6102   001D14  0E00               	movlw	0
  6103   001D16  6E40               	movwf	i2___fldiv@aexp^0,c
  6104   001D18  AE3E               	btfss	(i2___fldiv@grs+3)^0,7,c
  6105   001D1A  EF91  F00E         	goto	i2u381_41
  6106   001D1E  EF93  F00E         	goto	i2u381_40
  6107   001D22                     i2u381_41:
  6108   001D22  EFB7  F00E         	goto	i2l714
  6109   001D26                     i2u381_40:
  6110   001D26  0EFF               	movlw	255
  6111   001D28  143B               	andwf	i2___fldiv@grs^0,w,c
  6112   001D2A  6E30               	movwf	??i2___fldiv^0,c
  6113   001D2C  0EFF               	movlw	255
  6114   001D2E  143C               	andwf	(i2___fldiv@grs+1)^0,w,c
  6115   001D30  6E31               	movwf	(??i2___fldiv+1)^0,c
  6116   001D32  0EFF               	movlw	255
  6117   001D34  143D               	andwf	(i2___fldiv@grs+2)^0,w,c
  6118   001D36  6E32               	movwf	(??i2___fldiv+2)^0,c
  6119   001D38  0E7F               	movlw	127
  6120   001D3A  143E               	andwf	(i2___fldiv@grs+3)^0,w,c
  6121   001D3C  6E33               	movwf	(??i2___fldiv+3)^0,c
  6122   001D3E  5030               	movf	??i2___fldiv^0,w,c
  6123   001D40  1031               	iorwf	(??i2___fldiv+1)^0,w,c
  6124   001D42  1032               	iorwf	(??i2___fldiv+2)^0,w,c
  6125   001D44  1033               	iorwf	(??i2___fldiv+3)^0,w,c
  6126   001D46  B4D8               	btfsc	status,2,c
  6127   001D48  EFA8  F00E         	goto	i2u382_41
  6128   001D4C  EFAA  F00E         	goto	i2u382_40
  6129   001D50                     i2u382_41:
  6130   001D50  EFAE  F00E         	goto	i2l715
  6131   001D54                     i2u382_40:
  6132   001D54                     i2l2964:
  6133   001D54  0E01               	movlw	1
  6134   001D56  6E40               	movwf	i2___fldiv@aexp^0,c
  6135   001D58  EFB7  F00E         	goto	i2l714
  6136   001D5C                     i2l715:
  6137   001D5C  A028               	btfss	i2___fldiv@b^0,0,c
  6138   001D5E  EFB3  F00E         	goto	i2u383_41
  6139   001D62  EFB5  F00E         	goto	i2u383_40
  6140   001D66                     i2u383_41:
  6141   001D66  EFB7  F00E         	goto	i2l714
  6142   001D6A                     i2u383_40:
  6143   001D6A  EFAA  F00E         	goto	i2l2964
  6144   001D6E                     i2l714:
  6145   001D6E  5040               	movf	i2___fldiv@aexp^0,w,c
  6146   001D70  B4D8               	btfsc	status,2,c
  6147   001D72  EFBD  F00E         	goto	i2u384_41
  6148   001D76  EFBF  F00E         	goto	i2u384_40
  6149   001D7A                     i2u384_41:
  6150   001D7A  EFE3  F00E         	goto	i2l2976
  6151   001D7E                     i2u384_40:
  6152   001D7E  0E01               	movlw	1
  6153   001D80  2628               	addwf	i2___fldiv@b^0,f,c
  6154   001D82  0E00               	movlw	0
  6155   001D84  2229               	addwfc	(i2___fldiv@b+1)^0,f,c
  6156   001D86  222A               	addwfc	(i2___fldiv@b+2)^0,f,c
  6157   001D88  222B               	addwfc	(i2___fldiv@b+3)^0,f,c
  6158   001D8A  A02B               	btfss	(i2___fldiv@b+3)^0,0,c
  6159   001D8C  EFCA  F00E         	goto	i2u385_41
  6160   001D90  EFCC  F00E         	goto	i2u385_40
  6161   001D94                     i2u385_41:
  6162   001D94  EFE3  F00E         	goto	i2l2976
  6163   001D98                     i2u385_40:
  6164   001D98  C028  F030         	movff	i2___fldiv@b,??i2___fldiv
  6165   001D9C  C029  F031         	movff	i2___fldiv@b+1,??i2___fldiv+1
  6166   001DA0  C02A  F032         	movff	i2___fldiv@b+2,??i2___fldiv+2
  6167   001DA4  C02B  F033         	movff	i2___fldiv@b+3,??i2___fldiv+3
  6168   001DA8  3433               	rlcf	(??i2___fldiv+3)^0,w,c
  6169   001DAA  3233               	rrcf	(??i2___fldiv+3)^0,f,c
  6170   001DAC  3232               	rrcf	(??i2___fldiv+2)^0,f,c
  6171   001DAE  3231               	rrcf	(??i2___fldiv+1)^0,f,c
  6172   001DB0  3230               	rrcf	??i2___fldiv^0,f,c
  6173   001DB2  C030  F028         	movff	??i2___fldiv,i2___fldiv@b
  6174   001DB6  C031  F029         	movff	??i2___fldiv+1,i2___fldiv@b+1
  6175   001DBA  C032  F02A         	movff	??i2___fldiv+2,i2___fldiv@b+2
  6176   001DBE  C033  F02B         	movff	??i2___fldiv+3,i2___fldiv@b+3
  6177   001DC2  4A39               	infsnz	i2___fldiv@new_exp^0,f,c
  6178   001DC4  2A3A               	incf	(i2___fldiv@new_exp+1)^0,f,c
  6179   001DC6                     i2l2976:
  6180   001DC6  BE3A               	btfsc	(i2___fldiv@new_exp+1)^0,7,c
  6181   001DC8  EFEE  F00E         	goto	i2u386_41
  6182   001DCC  503A               	movf	(i2___fldiv@new_exp+1)^0,w,c
  6183   001DCE  E108               	bnz	i2u386_40
  6184   001DD0  2839               	incf	i2___fldiv@new_exp^0,w,c
  6185   001DD2  A0D8               	btfss	status,0,c
  6186   001DD4  EFEE  F00E         	goto	i2u386_41
  6187   001DD8  EFF0  F00E         	goto	i2u386_40
  6188   001DDC                     i2u386_41:
  6189   001DDC  EFFB  F00E         	goto	i2l2980
  6190   001DE0                     i2u386_40:
  6191   001DE0  0E00               	movlw	0
  6192   001DE2  6E3A               	movwf	(i2___fldiv@new_exp+1)^0,c
  6193   001DE4  6839               	setf	i2___fldiv@new_exp^0,c
  6194   001DE6  0E00               	movlw	0
  6195   001DE8  6E28               	movwf	i2___fldiv@b^0,c
  6196   001DEA  0E00               	movlw	0
  6197   001DEC  6E29               	movwf	(i2___fldiv@b+1)^0,c
  6198   001DEE  0E00               	movlw	0
  6199   001DF0  6E2A               	movwf	(i2___fldiv@b+2)^0,c
  6200   001DF2  0E00               	movlw	0
  6201   001DF4  6E2B               	movwf	(i2___fldiv@b+3)^0,c
  6202   001DF6                     i2l2980:
  6203   001DF6  BE3A               	btfsc	(i2___fldiv@new_exp+1)^0,7,c
  6204   001DF8  EF08  F00F         	goto	i2u387_40
  6205   001DFC  503A               	movf	(i2___fldiv@new_exp+1)^0,w,c
  6206   001DFE  E106               	bnz	i2u387_41
  6207   001E00  0439               	decf	i2___fldiv@new_exp^0,w,c
  6208   001E02  B0D8               	btfsc	status,0,c
  6209   001E04  EF06  F00F         	goto	i2u387_41
  6210   001E08  EF08  F00F         	goto	i2u387_40
  6211   001E0C                     i2u387_41:
  6212   001E0C  EF16  F00F         	goto	i2l2984
  6213   001E10                     i2u387_40:
  6214   001E10  0E00               	movlw	0
  6215   001E12  6E3A               	movwf	(i2___fldiv@new_exp+1)^0,c
  6216   001E14  0E00               	movlw	0
  6217   001E16  6E39               	movwf	i2___fldiv@new_exp^0,c
  6218   001E18  0E00               	movlw	0
  6219   001E1A  6E28               	movwf	i2___fldiv@b^0,c
  6220   001E1C  0E00               	movlw	0
  6221   001E1E  6E29               	movwf	(i2___fldiv@b+1)^0,c
  6222   001E20  0E00               	movlw	0
  6223   001E22  6E2A               	movwf	(i2___fldiv@b+2)^0,c
  6224   001E24  0E00               	movlw	0
  6225   001E26  6E2B               	movwf	(i2___fldiv@b+3)^0,c
  6226   001E28  0E00               	movlw	0
  6227   001E2A  6E38               	movwf	i2___fldiv@sign^0,c
  6228   001E2C                     i2l2984:
  6229   001E2C  C039  F03F         	movff	i2___fldiv@new_exp,i2___fldiv@bexp
  6230   001E30  A03F               	btfss	i2___fldiv@bexp^0,0,c
  6231   001E32  EF1D  F00F         	goto	i2u388_41
  6232   001E36  EF1F  F00F         	goto	i2u388_40
  6233   001E3A                     i2u388_41:
  6234   001E3A  EF22  F00F         	goto	i2l2990
  6235   001E3E                     i2u388_40:
  6236   001E3E  8E2A               	bsf	(i2___fldiv@b+2)^0,7,c
  6237   001E40  EF23  F00F         	goto	i2l2992
  6238   001E44                     i2l2990:
  6239   001E44  9E2A               	bcf	(i2___fldiv@b+2)^0,7,c
  6240   001E46                     i2l2992:
  6241   001E46  90D8               	bcf	status,0,c
  6242   001E48  303F               	rrcf	i2___fldiv@bexp^0,w,c
  6243   001E4A  6E2B               	movwf	(i2___fldiv@b+3)^0,c
  6244   001E4C  EFD9  F00D         	goto	i2l2906
  6245   001E50                     i2l701:
  6246   001E50  0012               	return		;funcret
  6247   001E52                     __end_ofi2___fldiv:
  6248                           	callstack 0
  6249   000000                     
  6250                           	psect	rparam
  6251   000000                     
  6252                           	psect	temp
  6253   00005E                     btemp:
  6254                           	callstack 0
  6255   00005E                     	ds	1
  6256   000000                     int$flags	set	btemp
  6257   000000                     wtemp8	set	btemp+1
  6258   000000                     ttemp5	set	btemp+1
  6259   000000                     ttemp6	set	btemp+4
  6260   000000                     ttemp7	set	btemp+8
  6261                           
  6262                           	psect	idloc
  6263                           
  6264                           ;Config register IDLOC0 @ 0x200000
  6265                           ;	unspecified, using default values
  6266   200000                     	org	2097152
  6267   200000  FF                 	db	255
  6268                           
  6269                           ;Config register IDLOC1 @ 0x200001
  6270                           ;	unspecified, using default values
  6271   200001                     	org	2097153
  6272   200001  FF                 	db	255
  6273                           
  6274                           ;Config register IDLOC2 @ 0x200002
  6275                           ;	unspecified, using default values
  6276   200002                     	org	2097154
  6277   200002  FF                 	db	255
  6278                           
  6279                           ;Config register IDLOC3 @ 0x200003
  6280                           ;	unspecified, using default values
  6281   200003                     	org	2097155
  6282   200003  FF                 	db	255
  6283                           
  6284                           ;Config register IDLOC4 @ 0x200004
  6285                           ;	unspecified, using default values
  6286   200004                     	org	2097156
  6287   200004  FF                 	db	255
  6288                           
  6289                           ;Config register IDLOC5 @ 0x200005
  6290                           ;	unspecified, using default values
  6291   200005                     	org	2097157
  6292   200005  FF                 	db	255
  6293                           
  6294                           ;Config register IDLOC6 @ 0x200006
  6295                           ;	unspecified, using default values
  6296   200006                     	org	2097158
  6297   200006  FF                 	db	255
  6298                           
  6299                           ;Config register IDLOC7 @ 0x200007
  6300                           ;	unspecified, using default values
  6301   200007                     	org	2097159
  6302   200007  FF                 	db	255
  6303                           
  6304                           	psect	config
  6305                           
  6306                           ;Config register CONFIG1L @ 0x300000
  6307                           ;	unspecified, using default values
  6308                           ;	PLL Prescaler Selection bits
  6309                           ;	PLLDIV = 0x0, unprogrammed default
  6310                           ;	System Clock Postscaler Selection bits
  6311                           ;	CPUDIV = 0x0, unprogrammed default
  6312                           ;	USB Clock Selection bit (used in Full-Speed USB mode only; UCFG:FSEN = 1)
  6313                           ;	USBDIV = 0x0, unprogrammed default
  6314   300000                     	org	3145728
  6315   300000  00                 	db	0
  6316                           
  6317                           ;Config register CONFIG1H @ 0x300001
  6318                           ;	Oscillator Selection bits
  6319                           ;	FOSC = INTOSC_EC, Internal oscillator, CLKO function on RA6, EC used by USB (INTCKO)
  6320                           ;	Fail-Safe Clock Monitor Enable bit
  6321                           ;	FCMEN = 0x0, unprogrammed default
  6322                           ;	Internal/External Oscillator Switchover bit
  6323                           ;	IESO = 0x0, unprogrammed default
  6324   300001                     	org	3145729
  6325   300001  09                 	db	9
  6326                           
  6327                           ;Config register CONFIG2L @ 0x300002
  6328                           ;	unspecified, using default values
  6329                           ;	Power-up Timer Enable bit
  6330                           ;	PWRT = 0x1, unprogrammed default
  6331                           ;	Brown-out Reset Enable bits
  6332                           ;	BOR = 0x3, unprogrammed default
  6333                           ;	Brown-out Reset Voltage bits
  6334                           ;	BORV = 0x3, unprogrammed default
  6335                           ;	USB Voltage Regulator Enable bit
  6336                           ;	VREGEN = 0x0, unprogrammed default
  6337   300002                     	org	3145730
  6338   300002  1F                 	db	31
  6339                           
  6340                           ;Config register CONFIG2H @ 0x300003
  6341                           ;	Watchdog Timer Enable bit
  6342                           ;	WDT = OFF, WDT disabled (control is placed on the SWDTEN bit)
  6343                           ;	Watchdog Timer Postscale Select bits
  6344                           ;	WDTPS = 0xF, unprogrammed default
  6345   300003                     	org	3145731
  6346   300003  1E                 	db	30
  6347                           
  6348                           ; Padding undefined space
  6349   300004                     	org	3145732
  6350   300004  FF                 	db	255
  6351                           
  6352                           ;Config register CONFIG3H @ 0x300005
  6353                           ;	CCP2 MUX bit
  6354                           ;	CCP2MX = 0x1, unprogrammed default
  6355                           ;	PORTB A/D Enable bit
  6356                           ;	PBADEN = OFF, PORTB<4:0> pins are configured as digital I/O on Reset
  6357                           ;	Low-Power Timer 1 Oscillator Enable bit
  6358                           ;	LPT1OSC = 0x0, unprogrammed default
  6359                           ;	MCLR Pin Enable bit
  6360                           ;	MCLRE = 0x1, unprogrammed default
  6361   300005                     	org	3145733
  6362   300005  81                 	db	129
  6363                           
  6364                           ;Config register CONFIG4L @ 0x300006
  6365                           ;	Stack Full/Underflow Reset Enable bit
  6366                           ;	STVREN = 0x1, unprogrammed default
  6367                           ;	Single-Supply ICSP Enable bit
  6368                           ;	LVP = OFF, Single-Supply ICSP disabled
  6369                           ;	Dedicated In-Circuit Debug/Programming Port (ICPORT) Enable bit
  6370                           ;	ICPRT = 0x0, unprogrammed default
  6371                           ;	Extended Instruction Set Enable bit
  6372                           ;	XINST = 0x0, unprogrammed default
  6373                           ;	Background Debugger Enable bit
  6374                           ;	DEBUG = 0x1, unprogrammed default
  6375   300006                     	org	3145734
  6376   300006  81                 	db	129
  6377                           
  6378                           ; Padding undefined space
  6379   300007                     	org	3145735
  6380   300007  FF                 	db	255
  6381                           
  6382                           ;Config register CONFIG5L @ 0x300008
  6383                           ;	unspecified, using default values
  6384                           ;	Code Protection bit
  6385                           ;	CP0 = 0x1, unprogrammed default
  6386                           ;	Code Protection bit
  6387                           ;	CP1 = 0x1, unprogrammed default
  6388                           ;	Code Protection bit
  6389                           ;	CP2 = 0x1, unprogrammed default
  6390                           ;	Code Protection bit
  6391                           ;	CP3 = 0x1, unprogrammed default
  6392   300008                     	org	3145736
  6393   300008  0F                 	db	15
  6394                           
  6395                           ;Config register CONFIG5H @ 0x300009
  6396                           ;	unspecified, using default values
  6397                           ;	Boot Block Code Protection bit
  6398                           ;	CPB = 0x1, unprogrammed default
  6399                           ;	Data EEPROM Code Protection bit
  6400                           ;	CPD = 0x1, unprogrammed default
  6401   300009                     	org	3145737
  6402   300009  C0                 	db	192
  6403                           
  6404                           ;Config register CONFIG6L @ 0x30000A
  6405                           ;	unspecified, using default values
  6406                           ;	Write Protection bit
  6407                           ;	WRT0 = 0x1, unprogrammed default
  6408                           ;	Write Protection bit
  6409                           ;	WRT1 = 0x1, unprogrammed default
  6410                           ;	Write Protection bit
  6411                           ;	WRT2 = 0x1, unprogrammed default
  6412                           ;	Write Protection bit
  6413                           ;	WRT3 = 0x1, unprogrammed default
  6414   30000A                     	org	3145738
  6415   30000A  0F                 	db	15
  6416                           
  6417                           ;Config register CONFIG6H @ 0x30000B
  6418                           ;	unspecified, using default values
  6419                           ;	Configuration Register Write Protection bit
  6420                           ;	WRTC = 0x1, unprogrammed default
  6421                           ;	Boot Block Write Protection bit
  6422                           ;	WRTB = 0x1, unprogrammed default
  6423                           ;	Data EEPROM Write Protection bit
  6424                           ;	WRTD = 0x1, unprogrammed default
  6425   30000B                     	org	3145739
  6426   30000B  E0                 	db	224
  6427                           
  6428                           ;Config register CONFIG7L @ 0x30000C
  6429                           ;	unspecified, using default values
  6430                           ;	Table Read Protection bit
  6431                           ;	EBTR0 = 0x1, unprogrammed default
  6432                           ;	Table Read Protection bit
  6433                           ;	EBTR1 = 0x1, unprogrammed default
  6434                           ;	Table Read Protection bit
  6435                           ;	EBTR2 = 0x1, unprogrammed default
  6436                           ;	Table Read Protection bit
  6437                           ;	EBTR3 = 0x1, unprogrammed default
  6438   30000C                     	org	3145740
  6439   30000C  0F                 	db	15
  6440                           
  6441                           ;Config register CONFIG7H @ 0x30000D
  6442                           ;	unspecified, using default values
  6443                           ;	Boot Block Table Read Protection bit
  6444                           ;	EBTRB = 0x1, unprogrammed default
  6445   30000D                     	org	3145741
  6446   30000D  40                 	db	64
  6447                           tosu	equ	0xFFF
  6448                           tosh	equ	0xFFE
  6449                           tosl	equ	0xFFD
  6450                           stkptr	equ	0xFFC
  6451                           pclatu	equ	0xFFB
  6452                           pclath	equ	0xFFA
  6453                           pcl	equ	0xFF9
  6454                           tblptru	equ	0xFF8
  6455                           tblptrh	equ	0xFF7
  6456                           tblptrl	equ	0xFF6
  6457                           tablat	equ	0xFF5
  6458                           prodh	equ	0xFF4
  6459                           prodl	equ	0xFF3
  6460                           indf0	equ	0xFEF
  6461                           postinc0	equ	0xFEE
  6462                           postdec0	equ	0xFED
  6463                           preinc0	equ	0xFEC
  6464                           plusw0	equ	0xFEB
  6465                           fsr0h	equ	0xFEA
  6466                           fsr0l	equ	0xFE9
  6467                           wreg	equ	0xFE8
  6468                           indf1	equ	0xFE7
  6469                           postinc1	equ	0xFE6
  6470                           postdec1	equ	0xFE5
  6471                           preinc1	equ	0xFE4
  6472                           plusw1	equ	0xFE3
  6473                           fsr1h	equ	0xFE2
  6474                           fsr1l	equ	0xFE1
  6475                           bsr	equ	0xFE0
  6476                           indf2	equ	0xFDF
  6477                           postinc2	equ	0xFDE
  6478                           postdec2	equ	0xFDD
  6479                           preinc2	equ	0xFDC
  6480                           plusw2	equ	0xFDB
  6481                           fsr2h	equ	0xFDA
  6482                           fsr2l	equ	0xFD9
  6483                           status	equ	0xFD8

Data Sizes:
    Strings     0
    Constant    0
    Data        0
    BSS         36
    Persistent  26
    Stack       0

Auto Spaces:
    Space          Size  Autos    Used
    COMRAM           94     85      93
    BANK0           160     68     122
    BANK1           256      0       0
    BANK2           256      0       0
    BANK3           256      0       0
    BANK4           256      0       0
    BANK5           256      0       0
    BANK6           256      0       0
    BANK7           256      0       0

Pointer List with Targets:

    None.

Critical Paths under _main in COMRAM

    None.

Critical Paths under _ISR in COMRAM

    _ISR->i2___fltol
    i2___fltol->i2___flsub
    i2___flsub->i2___fldiv
    i2___flmul->i2___xxtofl
    i2___fldiv->i2___flmul

Critical Paths under _main in BANK0

    _main->___fltol
    ___fltol->___flsub
    ___flsub->___fldiv
    ___fldiv->___flmul

Critical Paths under _ISR in BANK0

    None.

Critical Paths under _main in BANK1

    None.

Critical Paths under _ISR in BANK1

    None.

Critical Paths under _main in BANK2

    None.

Critical Paths under _ISR in BANK2

    None.

Critical Paths under _main in BANK3

    None.

Critical Paths under _ISR in BANK3

    None.

Critical Paths under _main in BANK4

    None.

Critical Paths under _ISR in BANK4

    None.

Critical Paths under _main in BANK5

    None.

Critical Paths under _ISR in BANK5

    None.

Critical Paths under _main in BANK6

    None.

Critical Paths under _ISR in BANK6

    None.

Critical Paths under _main in BANK7

    None.

Critical Paths under _ISR in BANK7

    None.

Call Graph Tables:

 ---------------------------------------------------------------------------------
 (Depth) Function   	        Calls       Base Space   Used Autos Params    Refs
 ---------------------------------------------------------------------------------
 (0) _main                                                 0     0      0    8715
                            ___fldiv
                            ___flmul
                            ___flsub
                            ___fltol
                           ___xxtofl
 ---------------------------------------------------------------------------------
 (1) ___xxtofl                                            14    10      4     574
                                              0 BANK0     14    10      4
 ---------------------------------------------------------------------------------
 (1) ___fltol                                             10     6      4     405
                                             58 BANK0     10     6      4
                            ___fldiv (ARG)
                            ___flmul (ARG)
                            ___flsub (ARG)
 ---------------------------------------------------------------------------------
 (1) ___flsub                                              8     0      8    2785
                                             50 BANK0      8     0      8
                            ___fladd
                            ___fldiv (ARG)
                            ___flmul (ARG)
 ---------------------------------------------------------------------------------
 (2) ___fladd                                             16     8      8    2262
                                              0 BANK0     16     8      8
 ---------------------------------------------------------------------------------
 (1) ___flmul                                             25    17      8    2496
                                              0 BANK0     25    17      8
 ---------------------------------------------------------------------------------
 (1) ___fldiv                                             25    17      8    2455
                                             25 BANK0     25    17      8
                            ___flmul (ARG)
                           ___xxtofl (ARG)
 ---------------------------------------------------------------------------------
 Estimated maximum stack depth 2
 ---------------------------------------------------------------------------------
 (Depth) Function   	        Calls       Base Space   Used Autos Params    Refs
 ---------------------------------------------------------------------------------
 (3) _ISR                                                  3     3      0    6051
                                             82 COMRAM     3     3      0
                          i2___fldiv
                          i2___flmul
                          i2___flsub
                          i2___fltol
                         i2___xxtofl
 ---------------------------------------------------------------------------------
 (4) i2___xxtofl                                          14    10      4     374
                                              0 COMRAM    14    10      4
 ---------------------------------------------------------------------------------
 (4) i2___fltol                                           10     6      4     281
                                             72 COMRAM    10     6      4
                          i2___fldiv (ARG)
                          i2___flmul (ARG)
                          i2___flsub (ARG)
 ---------------------------------------------------------------------------------
 (4) i2___flsub                                            8     0      8    2185
                                             64 COMRAM     8     0      8
                          i2___fladd
                          i2___fldiv (ARG)
                          i2___flmul (ARG)
 ---------------------------------------------------------------------------------
 (5) i2___fladd                                           16     8      8    2036
                                              0 COMRAM    16     8      8
 ---------------------------------------------------------------------------------
 (4) i2___flmul                                           25    17      8    1778
                                             14 COMRAM    25    17      8
                         i2___xxtofl (ARG)
 ---------------------------------------------------------------------------------
 (4) i2___fldiv                                           25    17      8    1433
                                             39 COMRAM    25    17      8
                          i2___flmul (ARG)
                         i2___xxtofl (ARG)
 ---------------------------------------------------------------------------------
 Estimated maximum stack depth 5
 ---------------------------------------------------------------------------------

 Call Graph Graphs:

 _main (ROOT)
   ___fldiv
     ___flmul (ARG)
     ___xxtofl (ARG)
   ___flmul
   ___flsub
     ___fladd
     ___fldiv (ARG)
     ___flmul (ARG)
   ___fltol
     ___fldiv (ARG)
     ___flmul (ARG)
     ___flsub (ARG)
   ___xxtofl

 _ISR (ROOT)
   i2___fldiv
     i2___flmul (ARG)
       i2___xxtofl (ARG)
     i2___xxtofl (ARG)
   i2___flmul
   i2___flsub
     i2___fladd
     i2___fldiv (ARG)
     i2___flmul (ARG)
   i2___fltol
     i2___fldiv (ARG)
     i2___flmul (ARG)
     i2___flsub (ARG)
   i2___xxtofl

 Address spaces:
Name               Size   Autos  Total    Cost      Usage
BIGRAM             7FF      0       0      30        0.0%
EEDATA             100      0       0       0        0.0%
BITBANK7           100      0       0      18        0.0%
BANK7              100      0       0      19        0.0%
BITBANK6           100      0       0      16        0.0%
BANK6              100      0       0      17        0.0%
BITBANK5           100      0       0      14        0.0%
BANK5              100      0       0      15        0.0%
BITBANK4           100      0       0      12        0.0%
BANK4              100      0       0      13        0.0%
BITBANK3           100      0       0      10        0.0%
BANK3              100      0       0      11        0.0%
BITBANK2           100      0       0       8        0.0%
BANK2              100      0       0       9        0.0%
BITBANK1           100      0       0       6        0.0%
BANK1              100      0       0       7        0.0%
BITBANK0            A0      0       0       4        0.0%
BANK0               A0     44      7A       5       76.2%
BITCOMRAM           5E      0       0       0        0.0%
COMRAM              5E     55      5D       1       98.9%
BITBIGSFRllll       2C      0       0      28        0.0%
BITBIGSFRlhhh       1A      0       0      21        0.0%
BITBIGSFRlhhllh     19      0       0      23        0.0%
BITBIGSFRlhhlll      F      0       0      24        0.0%
BITBIGSFRh           D      0       0      20        0.0%
BITBIGSFRlllh        8      0       0      27        0.0%
BITBIGSFRllh         7      0       0      26        0.0%
BITBIGSFRlhhlh       5      0       0      22        0.0%
BITBIGSFRlhl         1      0       0      25        0.0%
BIGSFR               0      0       0     200        0.0%
BITSFR               0      0       0     200        0.0%
SFR                  0      0       0     200        0.0%
STACK                0      0       0       2        0.0%
NULL                 0      0       0       0        0.0%
ABS                  0      0      D7      29        0.0%
DATA                 0      0      D7       3        0.0%
CODE                 0      0       0       0        0.0%


Microchip Technology PIC18 Macro Assembler V2.40 build 20220703182018 
Symbol Table                                                                                   Wed Sep 07 23:41:15 2022

           ___fldiv@aexp 0091             ___fldiv@bexp 0090             ___fldiv@sign 0089  
                     l90 2056                       l89 2056                       _Ta 00CC  
                     _ac 00D0                      l416 24D0                      l701 1AB6  
                    l703 1916                      l712 195C                      l714 19D4  
                    l706 18DA                      l715 19C2                      l740 1182  
                    l733 0F8C                      l750 12B2                      l742 11FA  
                    l743 11E8                      l647 0734                      l664 084E  
                    l656 0A04                      l648 0722                      l737 12F0  
                    l673 091E                      l649 06E8                      l674 090C  
                    l781 2150                      l774 20B8                      l689 261E  
                    l777 2214                      l788 21AC                      _GIE 007F97  
                    _ISR 0008              i2___fladd@a 0005              i2___fladd@b 0001  
                    _TvC 00C0                      _des 0058                      _vCx 00C8  
                    _vCy 00C4                      _cru 00B2              i2___fldiv@a 002C  
            i2___fldiv@b 0028               i2___xxtofl 2216                      wreg 000FE8  
            i2___flmul@a 0013              i2___flmul@b 000F              i2___flsub@a 0045  
            i2___flsub@b 0041             ___flmul@aexp 0071             ___flmul@bexp 0072  
           ___flmul@sign 006C             ___flmul@temp 0077             ___flmul@prod 0073  
                   ?_ISR 0001             ___fltol@exp1 00A3                     l2100 065A  
                   l2110 066E                     l2102 065E                     l2200 08CC  
                   l2120 0682                     l2112 0672                     l2104 0662  
                   l2210 0904                     l2202 08CE                     l2130 06E0  
                   l2114 0676                     l2106 0666                     l2122 0686  
                   l2050 0562                     l2220 0982                     l2204 08DC  
                   l2140 0716                     l2132 06F6                     l2124 068A  
                   l2116 067A                     l2108 066A                     l2052 0572  
                   l2060 059C                     l2044 0544                     l2230 09C8  
                   l2214 092E                     l2222 0984                     l2206 08E0  
                   l2150 0766                     l2142 0720                     l2134 0702  
                   l2126 06B4                     l2118 067E                     l2070 05CC  
                   l2062 05AC                     l2054 0582                     l2046 0552  
                   l2240 09F2                     l2232 09D6                     l2224 0994  
                   l2216 093A                     l2208 08EE                     l2160 07A2  
                   l2152 0776                     l2144 0742                     l2136 0706  
                   l2128 06D0                     l2080 060C                     l2072 05DA  
                   l2064 05B2                     l2056 0592                     l2048 0560  
                   l3200 1FAE                     l2242 09F4                     l2234 09DC  
                   l2226 09A4                     l2218 0948                     l2170 07E8  
                   l2162 07B0                     l2154 0784                     l2146 0752  
                   l2138 0714                     l2090 0646                     l2082 060E  
                   l2074 05DC                     l2066 05C4                     l2058 0594  
                   l3210 2044                     l3202 1FB0                     l2500 1840  
                   l2236 09DE                     l2228 09C4                     l2180 0864  
                   l2172 081C                     l2164 07B2                     l2156 0792  
                   l2092 064A                     l2076 05EC                     l2084 0616  
                   l2068 05C6                     l3220 2052                     l3212 2046  
                   l3204 1FB4                     l2510 187E                     l2502 1840  
                   l2238 09E4                     l2190 08A0                     l2182 0874  
                   l2174 081E                     l2166 07BC                     l2158 079E  
                   l2094 064E                     l2086 0626                     l2078 05FC  
                   l3214 204A                     l3206 1FB6                     l2520 18CA  
                   l2512 188E                     l2600 0F1A                     l2192 08A2  
                   l2176 082E                     l2168 07C2                     l2096 0652  
                   l2088 0638                     l3216 204C                     l3208 2040  
                   l2530 1914                     l2522 18D8                     l2514 189E  
                   l2506 1854                     l2450 172A                     l2610 0F46  
                   l2602 0F2A                     l2194 08B0                     l2186 0888  
                   l2178 083E                     l2098 0656                     l3218 204E  
                   l2540 195A                     l2532 1926                     l2524 18E4  
                   l2516 18A6                     l2508 186E                     l2460 176A  
                   l2452 1738                     l2700 129A                     l2620 0F9C  
                   l2612 0F56                     l2604 0F30                     l2196 08B8  
                   l2188 0892                     l3180 1EC0                     l2550 19BA  
                   l2534 193C                     l2542 196C                     l2526 1902  
                   l2518 18B6                     l2470 1790                     l2462 176C  
                   l2454 173A                     l2702 12B6                     l2710 12DC  
                   l2630 0FD6                     l2622 0FAC                     l2614 0F66  
                   l2606 0F36                     l2198 08BC                     l3190 1FA4  
                   l3182 1F0E                     l2560 1A28                     l2544 197A  
                   l2536 1942                     l2528 1904                     l2480 17D0  
                   l2472 179E                     l2456 174A                     l2464 1774  
                   l2448 171C                     l2712 12E0                     l2704 12C6  
                   l2640 1028                     l2632 0FEC                     l2616 0F76  
                   l2608 0F44                     l2800 21C0                     l3192 1FA6  
                   l3184 1F5C                     l3176 1E52                     l2570 1A92  
                   l2554 19E4                     l2562 1A2C                     l2546 197E  
                   l2538 194C                     l2490 1810                     l2482 17D2  
                   l2474 17A0                     l2466 1784                     l2458 175A  
                   l2706 12D4                     l2650 106E                     l2642 1036  
                   l2634 0FF8                     l2626 0FC0                     l2618 0F7C  
                   l2730 2420                     l2722 23CA                     l2802 21E4  
                   l3194 1FA8                     l3186 1F92                     l3178 1E8C  
                   l2572 1A96                     l2564 1A46                     l2556 19F0  
                   l2548 198C                     l2492 1818                     l2476 17B0  
                   l2484 17DA                     l2468 178A                     l2708 12D6  
                   l2660 10DC                     l2652 1088                     l2644 1042  
                   l2636 1010                     l2628 0FCC                     l2716 25D8  
                   l2732 2422                     l2724 23E2                     l2804 21F4  
                   l3196 1FAA                     l3188 1F9A                     l2574 1AA4  
                   l2566 1A5C                     l2558 19FE                     l2494 181C  
                   l2486 17EA                     l2478 17C0                     l2670 1172  
                   l2662 1106                     l2654 1098                     l2646 1052  
                   l2638 101C                     l2590 0EE2                     l2718 25EA  
                   l2734 2432                     l2806 2202                     l3198 1FAC  
                   l2576 1AAA                     l2568 1A76                     l2488 1800  
                   l2680 11B2                     l2672 1180                     l2664 113C  
                   l2656 10B4                     l2648 105E                     l2592 0EE4  
                   l2760 24B0                     l2744 245C                     l2736 2436  
                   l2728 23F6                     l2808 2204                     l2578 1AAC  
                   l2498 1830                     l2690 1224                     l2682 11E0  
                   l2674 1192                     l2666 114A                     l2658 10C0  
                   l2594 0EF4                     l2586 0EC6                     l2762 24C0  
                   l2754 2484                     l2746 2466                     l2738 2444  
                   l2770 2082                     l2692 124E                     l2676 11A0  
                   l2668 1168                     l2596 0F04                     l2588 0ED4  
                   l2756 2490                     l2748 2470                     l2780 20FA  
                   l2772 20C8                     l2686 120A                     l2694 1252  
                   l2678 11A4                     l2598 0F14                     l2758 24A0  
                   l2790 2182                     l2782 2106                     l2774 20DE  
                   l2766 2062                     l2696 126C                     l2688 1216  
                   l2792 218E                     l2784 2138                     l2768 2074  
                   l2698 1280                     l2794 219C                     l2786 213A  
                   l2778 20F2                     l2796 21BA                     l2788 2146  
                   l2798 21BC                     u3000 1738                     u3001 1734  
                   u3010 174A                     u3011 1746                     u3100 1902  
                   u3020 175A                     u2300 0646                     u2220 0560  
                   u3101 18FE                     u3021 1756                     u2301 0642  
                   u2221 055C                     u3110 1926                     u3030 179E  
                   u2310 06B4                     u2230 0572                     u3111 1922  
                   u3031 179A                     u2311 06B0                     u2231 056E  
                   u3200 1A46                     u3120 193C                     u3040 17B0  
                   u2400 0792                     u2320 06CC                     u2240 0582  
                   _LATD 000F8C                     u3201 1A42                     u3121 1938  
                   u3041 17AC                     u2401 078E                     u2321 06C6  
                   u2241 057E                     u3210 1A76                     u3130 195A  
                   u3050 17C0                     u2410 07B0                     u2330 06CE  
                   u2250 05C4                     u3211 1A72                     u3131 1956  
                   u3051 17BC                     u2411 07AC                     u2251 05C0  
                   u3220 1AA4                     u3140 197A                     u3060 1800  
                   u3300 0FAC                     u2500 08EE                     u2420 07E8  
                   u2340 06F6                     u2260 05DA                     u3221 1AA0  
                   u3141 1976                     u3061 17FC                     u3301 0FA8  
                   u2501 08EA                     u2421 07E4                     u2341 06F2  
                   u2261 05D6                     u3150 198C                     u3070 1840  
                   u3310 1126                     u3230 0EE2                     u2510 0904  
                   u2430 082E                     u2350 0714                     u2270 05EC  
                   u3151 1988                     u3071 183C                     u3231 0EDE  
                   u2511 0900                     u2431 082A                     u2351 0710  
                   u2271 05E8                     u3160 19BA                     u3080 18B6  
                   u3400 129A                     u3320 1180                     u3240 0EF4  
                   u2600 09F2                     u2520 091A                     u2440 0864  
                   u2360 0734                     u2280 05FC                     u3161 19B6  
                   u3081 18B2                     u3401 1296                     u3321 117C  
                   u3241 0EF0                     u2601 09EE                     u2521 0916  
                   u2441 0860                     u2361 0730                     u2281 05F8  
                   u3170 19D0                     u3090 18D8                     u3410 12D4  
                   u3330 11A0                     u3250 0F04                     u2530 092E  
                   u2450 0874                     u2370 0742                     u2290 0638  
                   u3171 19CC                     u3091 18D4                     u3411 12D0  
                   u3331 119C                     u3315 111C                     u3251 0F00  
                   u2531 092A                     u2451 0870                     u2371 073E  
                   u2291 0634                     u3180 19E4                     u3340 11B2  
                   u3260 0F44                     u2540 0948                     u2460 08A0  
                   u2380 0752                     u3420 23E2                     u3500 2082  
                   u3181 19E0                     u3341 11AE                     u3261 0F40  
                   u2541 0944                     u2461 089C                     u2381 074E  
                   u3421 23DE                     u3501 207E                     u3190 19FE  
                   u3350 11E0                     u3270 0F56                     u2550 0982  
                   u2470 08B0                     u2390 0784                     u3430 2416  
                   u3510 20DE                     u3191 19FA                     u3351 11DC  
                   u3271 0F52                     u2551 097E                     u2471 08AC  
                   u2391 0780                     u3511 20DA                     u3360 11F6  
                   u3280 0F66                     u2560 0994                     u2480 08CC  
                   u3440 2444                     u3520 2134                     u3361 11F2  
                   u3281 0F62                     u2561 0990                     u2481 08C8  
                   u3441 2440                     u3521 2130                     u3370 120A  
                   u3290 0F9C                     u2570 09A4                     u2490 08DC  
                   u3450 2458                     u3530 217E                     u3371 1206  
                   u3291 0F98                     u2571 09A0                     u2491 08D8  
                   u3451 2454                     u3435 240C                     u3531 217A  
                   u3380 1224                     u2580 09C4                     u3460 2480  
                   u3540 219C                     u3381 1220                     u2581 09C0  
                   u3461 247C                     u3541 2198                     u3390 126C  
                   u2590 09D6                     u3470 24A0                     u3550 21AC  
                   u3391 1268                     u2591 09D2                     u3471 249C  
                   u3551 21A8                     u3480 24B0                     u3560 21BA  
                   u3481 24AC                     u3561 21B6                     u3570 21F4  
                   u3490 2074                     u3571 21F0                     u3491 2070  
                   u3580 2202                     u3581 21FE                     i2l98 005C  
                   _TMR0 000FD6                     _TMR1 000FCE                     _TMR3 000FB2  
                   _main 1E52                     btemp 005E                     prodh 000FF4  
                   prodl 000FF3                     start 000E             i2___fltol@f1 0049  
        ___fldiv@new_exp 008A             ___param_bank 000000                    ??_ISR 0053  
          ___fltol@sign1 00A2          __end_of___fladd 0A06                    ?_main 0001  
        __end_of___fldiv 1AB8          __end_of___flmul 12F2          __end_of___flsub 2620  
        __end_of___fltol 24D2                    _T0CON 000FD5                    _T1CON 000FCD  
                  _T3CON 000FB1                    _LATD0 007C60                    _LATD1 007C61  
                  i2l101 00B6                    i2l111 016A                    i2l116 0538  
                  i2l416 25D6                    i2l701 1E50                    i2l703 1CB0  
                  i2l712 1CF6                    i2l714 1D6E                    i2l706 1C74  
                  i2l715 1D5C                    i2l740 15AC                    i2l733 13B6  
                  i2l750 16DC                    i2l742 1624                    i2l743 1612  
                  i2l647 0BF4                    i2l664 0D0E                    i2l656 0EC4  
                  i2l648 0BE2                    i2l737 171A                    i2l673 0DDE  
                  i2l649 0BA8                    i2l674 0DCC                    i2l781 2304  
                  i2l774 226C                    i2l689 2664                    i2l777 23C8  
                  i2l788 2360                    _TRISD 000F95                    _TIntx 00A8  
                  _TInty 00A4            i2___fladd@grs 0010                    _vInsx 00BC  
                  _vInsy 00AC            i2___fldiv@grs 003B            i2___fldiv@rem 0034  
                  ttemp5 005F                    ttemp6 0062                    ttemp7 0066  
                  status 000FD8                    wtemp8 005F            i2___flmul@grs 001C  
        __initialization 2666             __end_of_main 205E                   ??_main 00A4  
          __activetblptr 000000              ?i2___xxtofl 0001                   i2l3000 12F2  
                 i2l3010 132E                   i2l3002 12FE                   i2l3100 1634  
                 i2l3020 1360                   i2l3012 133E                   i2l3004 130C  
                 i2l2300 0B16                   i2l3110 1696                   i2l3102 1640  
                 i2l3030 13A0                   i2l3022 136E                   i2l3014 1344  
                 i2l3006 130E                   i2l2310 0B2A                   i2l2302 0B1A  
                 i2l3120 16FE                   i2l3112 16AA                   i2l3104 164E  
                 i2l3040 13EA                   i2l3032 13A6                   i2l3024 1370  
                 i2l3016 1354                   i2l3008 131E                   i2l2400 0D7C  
                 i2l2320 0B3E                   i2l2312 0B2E                   i2l2304 0B1E  
                 i2l3122 1700                   i2l3114 16C4                   i2l3106 1678  
                 i2l3050 143A                   i2l3042 13F6                   i2l3034 13C6  
                 i2l3026 1380                   i2l3018 135A                   i2l2410 0DAE  
                 i2l2402 0D8C                   i2l2330 0B90                   i2l2322 0B42  
                 i2l2314 0B32                   i2l2306 0B22                   i2l2250 0A20  
                 i2l3130 2218                   i2l3116 16E0                   i2l3124 1706  
                 i2l3108 167C                   i2l3060 147C                   i2l3052 1446  
                 i2l3044 1400                   i2l3036 13D6                   i2l3028 1390  
                 i2l2420 0E08                   i2l2412 0DC4                   i2l2404 0D8E  
                 i2l2340 0BD4                   i2l2332 0BA0                   i2l2316 0B36  
                 i2l2308 0B26                   i2l2324 0B46                   i2l2260 0A54  
                 i2l2252 0A22                   i2l3132 2228                   i2l3126 170A  
                 i2l3118 16F0                   i2l3070 14DE                   i2l3062 1488  
                 i2l3054 1452                   i2l3046 1416                   i2l2430 0E84  
                 i2l2422 0E42                   i2l2406 0D9C                   i2l2342 0BD6  
                 i2l2334 0BB6                   i2l2326 0B4A                   i2l2318 0B3A  
                 i2l2270 0A86                   i2l2254 0A32                   i2l2262 0A5C  
                 i2l2246 0A06                   i2l3150 22EE                   i2l3142 22A6  
                 i2l3134 2236                   i2l3230 0076                   i2l3222 001C  
                 i2l3080 1574                   i2l3072 14EA                   i2l3064 1498  
                 i2l3056 1460                   i2l3048 1422                   i2l2440 0EA4  
                 i2l2432 0E88                   i2l2416 0DEE                   i2l2424 0E44  
                 i2l2408 0DA0                   i2l2360 0C5E                   i2l2352 0C26  
                 i2l2344 0BE0                   i2l2336 0BC2                   i2l2328 0B74  
                 i2l2280 0ABC                   i2l2272 0A8C                   i2l2264 0A6C  
                 i2l2256 0A42                   i2l2248 0A12                   i2l3160 236E  
                 i2l3152 22FA                   i2l3144 22AE                   i2l3136 227C  
                 i2l3240 00DE                   i2l3232 0084                   i2l3224 002A  
                 i2l3090 15CA                   i2l3082 1592                   i2l3074 1506  
                 i2l3066 14B2                   i2l3058 146C                   i2l2442 0EB2  
                 i2l2434 0E96                   i2l2426 0E54                   i2l2418 0DFA  
                 i2l2362 0C62                   i2l2354 0C36                   i2l2346 0C02  
                 i2l2370 0C82                   i2l2338 0BC6                   i2l2290 0AF8  
                 i2l2282 0ACC                   i2l2274 0A9A                   i2l2266 0A72  
                 i2l2258 0A52                   i2l3170 23B6                   i2l3162 2370  
                 i2l3154 2336                   i2l3146 22BA                   i2l3138 2292  
                 i2l3250 0128                   i2l3242 00F2                   i2l3234 00A4  
                 i2l3226 004A                   i2l3092 15CE                   i2l3084 159C  
                 i2l3076 1530                   i2l3068 14C2                   i2l2444 0EB4  
                 i2l2436 0E9C                   i2l2428 0E64                   i2l2372 0CA8  
                 i2l2380 0CFE                   i2l2364 0C70                   i2l2356 0C44  
                 i2l2348 0C12                   i2l2292 0B06                   i2l2284 0ACE  
                 i2l2276 0A9C                   i2l2268 0A84                   i2l3172 23B8  
                 i2l3164 2374                   i2l3156 2342                   i2l3148 22EC  
                 i2l3260 040E                   i2l3252 012C                   i2l3244 00FA  
                 i2l3236 00CC                   i2l3228 0072                   i2l3094 15DC  
                 i2l3086 15AA                   i2l3078 1566                   i2l2438 0E9E  
                 i2l2390 0D52                   i2l2382 0D24                   i2l2374 0CDC  
                 i2l2366 0C72                   i2l2358 0C52                   i2l2294 0B0A  
                 i2l2278 0AAC                   i2l2286 0AD6                   i2l3166 2398  
                 i2l3158 2350                   i2l3270 043E                   i2l3262 0416  
                 i2l3254 0146                   i2l3246 010C                   i2l3238 00D0  
                 i2l3096 160A                   i2l3088 15BC                   i2l2392 0D60  
                 i2l2384 0D34                   i2l2376 0CDE                   i2l2368 0C7C  
                 i2l2296 0B0E                   i2l2288 0AE6                   i2l3168 23A8  
                 i2l3280 04AA                   i2l3272 0452                   i2l3264 041E  
                 i2l3256 0158                   i2l3248 0116                   i2l2394 0D62  
                 i2l2378 0CEE                   i2l2298 0B12                   i2l3290 0532  
                 i2l3282 04C4                   i2l3274 0462                   i2l3266 0420  
                 i2l3258 016E                   i2l2900 1B84                   i2l2396 0D70  
                 i2l2388 0D48                   i2l2820 2526                   i2l2812 24D2  
                 i2l3292 0534                   i2l3284 04D6                   i2l3276 0480  
                 i2l3268 0422                   i2l2902 1B9A                   i2l2398 0D78  
                 i2l2822 2528                   i2l2814 24E8                   i2l3294 0536  
                 i2l3286 04F4                   i2l3278 0492                   i2l2920 1BEE  
                 i2l2904 1BAA                   i2l2912 1BCA                   i2l2824 2538  
                 i2l3288 0512                   i2l2930 1C40                   i2l2922 1C08  
                 i2l2914 1BDA                   i2l2906 1BB2                   i2l2850 25B6  
                 i2l2834 2562                   i2l2826 253C                   i2l2818 24FC  
                 i2l2940 1C9C                   i2l2932 1C50                   i2l2924 1C18  
                 i2l2916 1BDA                   i2l2908 1BB6                   i2l2852 25C6  
                 i2l2844 258A                   i2l2836 256C                   i2l2828 254A  
                 i2l2950 1CDC                   i2l2942 1C9E                   i2l2934 1C64  
                 i2l2926 1C28                   i2l2870 1AE4                   i2l2862 1AB8  
                 i2l2846 2596                   i2l2838 2576                   i2l2960 1D18  
                 i2l2952 1CE6                   i2l2944 1CAE                   i2l2936 1C72  
                 i2l2928 1C38                   i2l2880 1B1E                   i2l2872 1AF4  
                 i2l2864 1AC4                   i2l2856 2620                   i2l2848 25A6  
                 i2l2970 1D8A                   i2l2962 1D26                   i2l2954 1CF4  
                 i2l2946 1CC0                   i2l2938 1C7E                   i2l2890 1B4A  
                 i2l2882 1B24                   i2l2874 1B04                   i2l2866 1AD2  
                 i2l2858 2630                   i2l2980 1DF6                   i2l2972 1D98  
                 i2l2964 1D54                   i2l2948 1CD6                   i2l2956 1D06  
                 i2l2892 1B5A                   i2l2884 1B2A                   i2l2876 1B06  
                 i2l2868 1AD4                   i2l2990 1E44                   i2l2982 1E10  
                 i2l2974 1DC2                   i2l2958 1D14                   i2l2894 1B6A  
                 i2l2886 1B38                   i2l2878 1B0E                   i2l2992 1E46  
                 i2l2984 1E2C                   i2l2968 1D7E                   i2l2976 1DC6  
                 i2l2896 1B6C                   i2l2888 1B3A                   i2l2986 1E30  
                 i2l2978 1DE0                   i2l2898 1B74                   i2l2988 1E3E  
                 _TMR0IE 007F95                   _TMR0IF 007F92                   _TMR1IE 007CE8  
                 _TMR1IF 007CF0                   _TMR3IE 007D01                   _TMR3IF 007D09  
                 _TMR0ON 007EAF                   _TMR1ON 007E68                   _TMR3ON 007D88  
       __end_of___xxtofl 2216           i2___fladd@aexp 000E           i2___fladd@bexp 000F  
              ??___fladd 0068                ??___fldiv 0081                ??___flmul 0068  
              ??___flsub 009A                ??___fltol 009E                   _deltaT 00D6  
                 clear_0 266C                   clear_1 2678                   _pasosX 00D4  
                 _pasosY 00D2                   _pasosZ 00BA           i2___fldiv@aexp 0040  
         i2___fldiv@bexp 003F                   isa$std 000001           i2___fldiv@sign 0038  
      __end_ofi2___fladd 0EC6        __end_ofi2___fldiv 1E52        __end_ofi2___flmul 171C  
      __end_ofi2___flsub 2666        __end_ofi2___fltol 25D8           i2___flmul@aexp 0020  
         i2___flmul@bexp 0021           i2___flmul@sign 001B           i2___flmul@temp 0026  
         i2___flmul@prod 0022             ___xxtofl@arg 006A             ___xxtofl@exp 0069  
           ___xxtofl@val 0060               __accesstop 0060  __end_of__initialization 267E  
         i2___fltol@exp1 0052            ___rparam_used 000001               ___fltol@f1 009A  
         __pcstackCOMRAM 0001               __pbssBANK0 00A4                ?___xxtofl 0060  
        i2___fladd@signs 000D                  __Hparam 0000                  __Lparam 0000  
                ___fladd 0544                  ___fldiv 171C                  ___flmul 0EC6  
                ___flsub 25D8                  ___fltol 23CA                  __pcinit 2666  
                __ramtop 0800                  __ptext0 1E52                  __ptext1 205E  
                __ptext2 23CA                  __ptext3 25D8                  __ptext4 0544  
                __ptext5 0EC6                  __ptext6 171C                  __ptext8 2216  
                __ptext9 24D2                  _counter 0056             ??i2___xxtofl 0005  
             ??___xxtofl 0064           __pintcode_body 0012     end_of_initialization 267E  
                int_func 0012           i2___xxtofl@arg 000B           i2___xxtofl@exp 000A  
         i2___xxtofl@val 0001       __end_ofi2___xxtofl 23CA                  postinc0 000FEE  
            ___fladd@grs 006F            ___xxtofl@sign 0068              ___fldiv@grs 008C  
            ___fldiv@rem 0085          i2___fltol@sign1 0051                i2___fladd 0A06  
              i2___fldiv 1AB8                i2___flmul 12F2                i2___flsub 2620  
              i2___fltol 24D2              ___flmul@grs 006D      start_initialization 2666  
            __end_of_ISR 0544               ?i2___fladd 0001               ?i2___fldiv 0028  
             ?i2___flmul 000F               ?i2___flsub 0041               ?i2___fltol 0049  
              ___fladd@a 0064                ___fladd@b 0060                ___fldiv@a 007D  
              ___fldiv@b 0079                ___flmul@a 0064                ___flmul@b 0060  
            __pbssCOMRAM 0056                ___flsub@a 0096                ___flsub@b 0092  
          __pcstackBANK0 0060                __pnvBANK0 00C0                __pintcode 0008  
               ?___fladd 0060                 ?___fldiv 0079                 ?___flmul 0060  
               ?___flsub 0092                 ?___fltol 009A                _counterVC 00B0  
            ??i2___fladd 0009              ??i2___fldiv 0030              ??i2___flmul 0017  
            ??i2___flsub 0049              ??i2___fltol 004D                 i2u400_40 15DC  
               i2u400_41 15D8                 i2u401_40 160A                 i2u401_41 1606  
               i2u402_40 1620                 i2u410_40 2292                 i2u402_41 161C  
               i2u410_41 228E                 i2u403_40 1634                 i2u411_40 22E8  
               i2u403_41 1630                 i2u411_41 22E4                 i2u404_40 164E  
               i2u412_40 2332                 i2u420_40 005A                 i2u404_41 164A  
               i2u412_41 232E                 i2u420_41 0054                 i2u405_40 1696  
               i2u261_40 0A20                 i2u413_40 2350                 i2u405_41 1692  
               i2u261_41 0A1C                 i2u413_41 234C                 i2u421_45 005C  
               i2u406_40 16C4                 i2u270_40 0B74                 i2u262_40 0A32  
               i2u414_40 2360                 i2u430_40 010C                 i2u422_40 0072  
               i2u406_41 16C0                 i2u270_41 0B70                 i2u262_41 0A2E  
               i2u414_41 235C                 i2u430_41 0108                 i2u422_41 006E  
               i2u407_40 16FE                 i2u271_40 0B8C                 i2u263_40 0A42  
               i2u415_40 236E                 i2u431_40 0128                 i2u423_40 0084  
               i2u407_41 16FA                 i2u271_41 0B86                 i2u263_41 0A3E  
               i2u415_41 236A                 i2u431_41 0124                 i2u423_41 0080  
               i2u280_40 0C70                 i2u272_40 0B8E                 i2u264_40 0A84  
               i2u360_40 251C                 i2u416_40 23A8                 i2u408_40 2228  
               i2u440_40 04D6                 i2u432_40 0146                 i2u424_40 00A4  
               i2u280_41 0C6C                 i2u264_41 0A80                 i2u416_41 23A4  
               i2u408_41 2224                 i2u440_41 04D2                 i2u432_41 0142  
               i2u424_41 00A0                 i2u360_45 2512                 i2u281_40 0CA8  
               i2u273_40 0BB6                 i2u265_40 0A9A                 i2u361_40 254A  
               i2u417_40 23B6                 i2u409_40 2236                 i2u441_40 04F4  
               i2u433_40 0158                 i2u425_40 00B4                 i2u281_41 0CA4  
               i2u273_41 0BB2                 i2u265_41 0A96                 i2u361_41 2546  
               i2u417_41 23B2                 i2u409_41 2232                 i2u441_41 04F0  
               i2u433_41 0154                 i2u425_41 00AE                 i2u370_40 1B4A  
               i2u290_40 0DC4                 i2u282_40 0CEE                 i2u274_40 0BD4  
               i2u266_40 0AAC                 i2u362_40 255E                 i2u442_40 0512  
               i2u434_40 016A                 i2u418_40 002A                 i2u370_41 1B46  
               i2u290_41 0DC0                 i2u282_41 0CEA                 i2u274_41 0BD0  
               i2u266_41 0AA8                 i2u362_41 255A                 i2u442_41 050E  
               i2u434_41 0166                 i2u418_41 0026                 i2u426_45 00B6  
              _precargaX 00B6                _precargaY 00B4                 i2u371_40 1B5A  
               i2u291_40 0DDA                 i2u283_40 0D24                 i2u275_40 0BF4  
               i2u267_40 0ABC                 i2u363_40 2586                 i2u435_40 043E  
               i2u427_40 00CC                 i2u419_40 004A                 i2u371_41 1B56  
               i2u291_41 0DD6                 i2u283_41 0D20                 i2u275_41 0BF0  
               i2u267_41 0AB8                 i2u363_41 2582                 i2u435_41 043A  
               i2u427_41 00C8                 i2u419_41 0046                 i2u380_40 1D14  
               i2u372_40 1B9A                 i2u292_40 0DEE                 i2u284_40 0D34  
               i2u276_40 0C02                 i2u268_40 0AF8                 i2u364_40 25A6  
               i2u436_40 0452                 i2u428_40 00DE                 i2u380_41 1D10  
               i2u372_41 1B96                 i2u292_41 0DEA                 i2u284_41 0D30  
               i2u276_41 0BFE                 i2u268_41 0AF4                 i2u364_41 25A2  
               i2u436_41 044E                 i2u428_41 00DA                 i2u381_40 1D26  
               i2u373_40 1BDA                 i2u293_40 0E08                 i2u285_40 0D60  
               i2u277_40 0C12                 i2u269_40 0B06                 i2u365_40 25B6  
               i2u437_40 0480                 i2u429_40 00F2                 i2u381_41 1D22  
               i2u373_41 1BD6                 i2u293_41 0E04                 i2u285_41 0D5C  
               i2u277_41 0C0E                 i2u269_41 0B02                 i2u365_41 25B2  
               i2u437_41 047C                 i2u429_41 00EE                 i2u382_40 1D54  
               i2u374_40 1C50                 i2u366_40 1AD2                 i2u390_40 131E  
               i2u294_40 0E42                 i2u286_40 0D70                 i2u278_40 0C44  
               i2u438_40 0492                 i2u382_41 1D50                 i2u374_41 1C4C  
               i2u366_41 1ACE                 i2u390_41 131A                 i2u294_41 0E3E  
               i2u286_41 0D6C                 i2u278_41 0C40                 i2u438_41 048E  
               i2u383_40 1D6A                 i2u375_40 1C72                 i2u367_40 1AE4  
               i2u391_40 132E                 i2u295_40 0E54                 i2u287_40 0D8C  
               i2u279_40 0C52                 i2u359_40 24E8                 i2u439_40 04C4  
               i2u383_41 1D66                 i2u375_41 1C6E                 i2u367_41 1AE0  
               i2u391_41 132A                 i2u295_41 0E50                 i2u287_41 0D88  
               i2u279_41 0C4E                 i2u359_41 24E4                 i2u439_41 04C0  
               i2u384_40 1D7E                 i2u376_40 1C9C                 i2u368_40 1AF4  
               i2u392_40 136E                 i2u296_40 0E64                 i2u288_40 0D9C  
               i2u384_41 1D7A                 i2u376_41 1C98                 i2u368_41 1AF0  
               i2u392_41 136A                 i2u296_41 0E60                 i2u288_41 0D98  
               i2u385_40 1D98                 i2u377_40 1CC0                 i2u369_40 1B38  
               i2u393_40 1380                 i2u297_40 0E84                 i2u289_40 0DAE  
               i2u385_41 1D94                 i2u377_41 1CBC                 i2u369_41 1B34  
               i2u393_41 137C                 i2u297_41 0E80                 i2u289_41 0DAA  
               i2u386_40 1DE0                 i2u378_40 1CD6                 i2u394_40 1390  
               i2u298_40 0E96                 i2u386_41 1DDC                 i2u378_41 1CD2  
               i2u394_41 138C                 i2u298_41 0E92                 i2u387_40 1E10  
               i2u379_40 1CF4                 i2u395_40 13C6                 i2u299_40 0EB2  
               i2u387_41 1E0C                 i2u379_41 1CF0                 i2u395_41 13C2  
               i2u299_41 0EAE                 i2u388_40 1E3E                 i2u396_40 13D6  
               i2u388_41 1E3A                 i2u396_41 13D2                 i2u397_40 1550  
               i2u389_40 130C                 i2u389_41 1308                 i2u397_45 1546  
               i2u398_40 15AA                 i2u398_41 15A6                 i2u399_40 15CA  
               i2u399_41 15C6        i2___fldiv@new_exp 0039                 __Hrparam 0000  
               __Lrparam 0000                 ___xxtofl 205E                 __ptext10 2620  
               __ptext11 0A06                 __ptext12 12F2                 __ptext13 1AB8  
            _pasosXDados 005C              _pasosYDados 005A              _pasosZDados 00B8  
               isa$xinst 000000                 int$flags 005E                 intlevel2 0000  
        i2___xxtofl@sign 0009            ___fladd@signs 006C             ___fladd@aexp 006D  
           ___fladd@bexp 006E  
