

Microchip MPLAB XC8 Assembler V2.40 build 20220703182018 
                                                                                               Sat Sep 10 11:59:56 2022

Microchip MPLAB XC8 C Compiler v2.40 (Free license) build 20220703182018 Og1 
     1                           	processor	18F4550
     2                           	fnconf	rparam,??,?,0
     3                           	pagewidth 120
     4                           	opt	flic
     5                           	psect	nvCOMRAM,global,class=COMRAM,space=1,delta=1,lowdata,noexec
     6                           	psect	nvBANK0,global,class=BANK0,space=1,delta=1,lowdata,noexec
     7                           	psect	cinit,global,reloc=2,class=CODE,delta=1
     8                           	psect	bssCOMRAM,global,class=COMRAM,space=1,delta=1,lowdata,noexec
     9                           	psect	bssBANK0,global,class=BANK0,space=1,delta=1,lowdata,noexec
    10                           	psect	cstackBANK0,global,class=BANK0,space=1,delta=1,lowdata,noexec
    11                           	psect	cstackCOMRAM,global,class=COMRAM,space=1,delta=1,lowdata,noexec
    12                           	psect	text0,global,reloc=2,class=CODE,delta=1
    13                           	psect	text1,global,reloc=2,class=CODE,delta=1
    14                           	psect	text2,global,reloc=2,class=CODE,delta=1,group=1
    15                           	psect	text3,global,reloc=2,class=CODE,delta=1,group=1
    16                           	psect	text4,global,reloc=2,class=CODE,delta=1,group=1
    17                           	psect	text5,global,reloc=2,class=CODE,delta=1,group=1
    18                           	psect	text6,global,reloc=2,class=CODE,delta=1,group=1
    19                           	psect	text7,global,reloc=2,class=CODE,delta=1,group=1
    20                           	psect	intcode,global,reloc=2,class=CODE,delta=1
    21                           	psect	intcode_body,global,reloc=2,class=CODE,delta=1
    22                           	psect	intsave_regs,global,class=BIGRAM,space=1,delta=1,noexec
    23                           	psect	rparam,global,class=COMRAM,space=1,delta=1,noexec
    24                           	psect	temp,global,ovrld,common,class=COMRAM,space=1,delta=1
    25                           	psect	idloc,global,abs,ovrld,class=IDLOC,space=5,delta=1,noexec
    26                           	psect	config,global,abs,ovrld,class=CONFIG,space=4,delta=1,noexec
    27   000000                     
    28                           ; Version 2.40
    29                           ; Generated 17/11/2021 GMT
    30                           ; 
    31                           ; Copyright © 2021, Microchip Technology Inc. and its subsidiaries ("Microchip")
    32                           ; All rights reserved.
    33                           ; 
    34                           ; This software is developed by Microchip Technology Inc. and its subsidiaries ("Microch
      +                          ip").
    35                           ; 
    36                           ; Redistribution and use in source and binary forms, with or without modification, are
    37                           ; permitted provided that the following conditions are met:
    38                           ; 
    39                           ;     1. Redistributions of source code must retain the above copyright notice, this lis
      +                          t of
    40                           ;        conditions and the following disclaimer.
    41                           ; 
    42                           ;     2. Redistributions in binary form must reproduce the above copyright notice, this 
      +                          list
    43                           ;        of conditions and the following disclaimer in the documentation and/or other
    44                           ;        materials provided with the distribution. Publication is not required when
    45                           ;        this file is used in an embedded application.
    46                           ; 
    47                           ;     3. Microchip's name may not be used to endorse or promote products derived from th
      +                          is
    48                           ;        software without specific prior written permission.
    49                           ; 
    50                           ; THIS SOFTWARE IS PROVIDED BY MICROCHIP "AS IS" AND ANY EXPRESS OR IMPLIED WARRANTIES,
    51                           ; INCLUDING, BUT NOT LIMITED TO, THE IMPLIED WARRANTIES OF MERCHANTABILITY AND FITNESS F
      +                          OR
    52                           ; PURPOSE ARE DISCLAIMED.  IN NO EVENT SHALL MICROCHIP BE LIABLE FOR ANY DIRECT, INDIREC
      +                          T,
    53                           ; INCIDENTAL, SPECIAL, EXEMPLARY, OR CONSEQUENTIAL DAMAGES (INCLUDING BUT NOT LIMITED TO
    54                           ; PROCUREMENT OF SUBSTITUTE GOODS OR SERVICES; LOSS OF USE, DATA OR PROFITS; OR BUSINESS
    55                           ; INTERRUPTION) HOWSOEVER CAUSED AND ON ANY THEORY OF LIABILITY, WHETHER IN CONTRACT, ST
      +                          RICT
    56                           ; LIABILITY, OR TORT (INCLUDING NEGLIGENCE OR OTHERWISE) ARISING IN ANY WAY OUT OF THE U
      +                          SE OF
    57                           ; THIS SOFTWARE, EVEN IF ADVISED OF THE POSSIBILITY OF SUCH DAMAGE.
    58                           ; 
    59                           ; 
    60                           ; Code-generator required, PIC18F4550 Definitions
    61                           ; 
    62                           ; SFR Addresses
    63   000000                     
    64                           	psect	nvCOMRAM
    65   00005A                     __pnvCOMRAM:
    66                           	callstack 0
    67   00005A                     _counter:
    68                           	callstack 0
    69   00005A                     	ds	2
    70                           
    71                           	psect	nvBANK0
    72   0000D2                     __pnvBANK0:
    73                           	callstack 0
    74   0000D2                     _v5y:
    75                           	callstack 0
    76   0000D2                     	ds	4
    77   0000D6                     _v5x:
    78                           	callstack 0
    79   0000D6                     	ds	4
    80   0000DA                     _deltaT:
    81                           	callstack 0
    82   0000DA                     	ds	4
    83   0000DE                     _Ta:
    84                           	callstack 0
    85   0000DE                     	ds	4
    86   0000E2                     _ac:
    87                           	callstack 0
    88   0000E2                     	ds	2
    89   0000E4                     _pasosY:
    90                           	callstack 0
    91   0000E4                     	ds	2
    92   0000E6                     _pasosX:
    93                           	callstack 0
    94   0000E6                     	ds	2
    95   0000E8                     _vCy:
    96                           	callstack 0
    97   0000E8                     	ds	4
    98   0000EC                     _vCx:
    99                           	callstack 0
   100   0000EC                     	ds	4
   101   000000                     _LATD1	set	31841
   102   000000                     _LATD0	set	31840
   103   000000                     _GIE	set	32663
   104   000000                     _PEIE	set	32662
   105   000000                     _TMR3ON	set	32136
   106   000000                     _TMR1ON	set	32360
   107   000000                     _TMR0ON	set	32431
   108   000000                     _TMR0IE	set	32661
   109   000000                     _LATD3	set	31843
   110   000000                     _LATD2	set	31842
   111   000000                     _LATD	set	3980
   112   000000                     _TRISD	set	3989
   113   000000                     _TMR1IE	set	31976
   114   000000                     _TMR1IF	set	31984
   115   000000                     _TMR0IF	set	32658
   116   000000                     _TMR3IE	set	32001
   117   000000                     _TMR3IF	set	32009
   118   000000                     _T3CON	set	4017
   119   000000                     _T1CON	set	4045
   120   000000                     _OSCCON	set	4051
   121   000000                     _T0CON	set	4053
   122   000000                     _TMR0	set	4054
   123   000000                     _TMR1	set	4046
   124   000000                     _TMR3	set	4018
   125                           
   126                           ; #config settings
   127                           
   128                           	psect	cinit
   129   001694                     __pcinit:
   130                           	callstack 0
   131   001694                     start_initialization:
   132                           	callstack 0
   133   001694                     __initialization:
   134                           	callstack 0
   135                           
   136                           ; Clear objects allocated to BANK0 (114 bytes)
   137   001694  EE00  F060         	lfsr	0,__pbssBANK0
   138   001698  0E72               	movlw	114
   139   00169A                     clear_0:
   140   00169A  6AEE               	clrf	postinc0,c
   141   00169C  06E8               	decf	wreg,f,c
   142   00169E  E1FD               	bnz	clear_0
   143                           
   144                           ; Clear objects allocated to COMRAM (4 bytes)
   145   0016A0  6A59               	clrf	(__pbssCOMRAM+3)& (0+255),c
   146   0016A2  6A58               	clrf	(__pbssCOMRAM+2)& (0+255),c
   147   0016A4  6A57               	clrf	(__pbssCOMRAM+1)& (0+255),c
   148   0016A6  6A56               	clrf	__pbssCOMRAM& (0+255),c
   149   0016A8                     end_of_initialization:
   150                           	callstack 0
   151   0016A8                     __end_of__initialization:
   152                           	callstack 0
   153   0016A8  905C               	bcf	int$flags,0,c	;clear compiler interrupt flag (level 1)
   154   0016AA  925C               	bcf	int$flags,1,c	;clear compiler interrupt flag (level 2)
   155   0016AC  0100               	movlb	0
   156   0016AE  EFBE  F008         	goto	_main	;jump to C main() function
   157                           
   158                           	psect	bssCOMRAM
   159   000056                     __pbssCOMRAM:
   160                           	callstack 0
   161   000056                     _pasosYDados:
   162                           	callstack 0
   163   000056                     	ds	2
   164   000058                     _pasosXDados:
   165                           	callstack 0
   166   000058                     	ds	2
   167                           
   168                           	psect	bssBANK0
   169   000060                     __pbssBANK0:
   170                           	callstack 0
   171   000060                     _arrayY:
   172                           	callstack 0
   173   000060                     	ds	40
   174   000088                     _arrayX:
   175                           	callstack 0
   176   000088                     	ds	40
   177   0000B0                     _TvC:
   178                           	callstack 0
   179   0000B0                     	ds	4
   180   0000B4                     _TInty:
   181                           	callstack 0
   182   0000B4                     	ds	4
   183   0000B8                     _TIntx:
   184                           	callstack 0
   185   0000B8                     	ds	4
   186   0000BC                     _counterVC:
   187                           	callstack 0
   188   0000BC                     	ds	2
   189   0000BE                     _des:
   190                           	callstack 0
   191   0000BE                     	ds	2
   192   0000C0                     _cru:
   193                           	callstack 0
   194   0000C0                     	ds	2
   195   0000C2                     _precargaY:
   196                           	callstack 0
   197   0000C2                     	ds	2
   198   0000C4                     _precargaX:
   199                           	callstack 0
   200   0000C4                     	ds	2
   201   0000C6                     _pasosZDados:
   202                           	callstack 0
   203   0000C6                     	ds	2
   204   0000C8                     _pasosZ:
   205                           	callstack 0
   206   0000C8                     	ds	2
   207   0000CA                     _vInsy:
   208                           	callstack 0
   209   0000CA                     	ds	4
   210   0000CE                     _vInsx:
   211                           	callstack 0
   212   0000CE                     	ds	4
   213                           
   214                           	psect	cstackBANK0
   215   0000F0                     __pcstackBANK0:
   216                           	callstack 0
   217   0000F0                     precargas@i:
   218                           	callstack 0
   219                           
   220                           ; 2 bytes @ 0x0
   221   0000F0                     	ds	2
   222                           
   223                           	psect	cstackCOMRAM
   224   000001                     __pcstackCOMRAM:
   225                           	callstack 0
   226   000001                     ??_ISR:
   227                           
   228                           ; 1 bytes @ 0x0
   229   000001                     	ds	3
   230   000004                     ?___fladd:
   231                           	callstack 0
   232   000004                     ?___xxtofl:
   233                           	callstack 0
   234   000004                     ___fladd@b:
   235                           	callstack 0
   236   000004                     ___xxtofl@val:
   237                           	callstack 0
   238                           
   239                           ; 4 bytes @ 0x3
   240   000004                     	ds	4
   241   000008                     ??___xxtofl:
   242   000008                     ___fladd@a:
   243                           	callstack 0
   244                           
   245                           ; 4 bytes @ 0x7
   246   000008                     	ds	4
   247   00000C                     ??___fladd:
   248   00000C                     ___xxtofl@sign:
   249                           	callstack 0
   250                           
   251                           ; 1 bytes @ 0xB
   252   00000C                     	ds	1
   253   00000D                     ___xxtofl@exp:
   254                           	callstack 0
   255                           
   256                           ; 1 bytes @ 0xC
   257   00000D                     	ds	1
   258   00000E                     ___xxtofl@arg:
   259                           	callstack 0
   260                           
   261                           ; 4 bytes @ 0xD
   262   00000E                     	ds	2
   263   000010                     ___fladd@signs:
   264                           	callstack 0
   265                           
   266                           ; 1 bytes @ 0xF
   267   000010                     	ds	1
   268   000011                     ___fladd@aexp:
   269                           	callstack 0
   270                           
   271                           ; 1 bytes @ 0x10
   272   000011                     	ds	1
   273   000012                     ?___flmul:
   274                           	callstack 0
   275   000012                     ___fladd@bexp:
   276                           	callstack 0
   277   000012                     ___flmul@b:
   278                           	callstack 0
   279                           
   280                           ; 4 bytes @ 0x11
   281   000012                     	ds	1
   282   000013                     ___fladd@grs:
   283                           	callstack 0
   284                           
   285                           ; 1 bytes @ 0x12
   286   000013                     	ds	3
   287   000016                     ___flmul@a:
   288                           	callstack 0
   289                           
   290                           ; 4 bytes @ 0x15
   291   000016                     	ds	4
   292   00001A                     ??___flmul:
   293                           
   294                           ; 1 bytes @ 0x19
   295   00001A                     	ds	4
   296   00001E                     ___flmul@sign:
   297                           	callstack 0
   298                           
   299                           ; 1 bytes @ 0x1D
   300   00001E                     	ds	1
   301   00001F                     ___flmul@aexp:
   302                           	callstack 0
   303                           
   304                           ; 1 bytes @ 0x1E
   305   00001F                     	ds	1
   306   000020                     ___flmul@grs:
   307                           	callstack 0
   308                           
   309                           ; 4 bytes @ 0x1F
   310   000020                     	ds	4
   311   000024                     ___flmul@bexp:
   312                           	callstack 0
   313                           
   314                           ; 1 bytes @ 0x23
   315   000024                     	ds	1
   316   000025                     ___flmul@prod:
   317                           	callstack 0
   318                           
   319                           ; 4 bytes @ 0x24
   320   000025                     	ds	4
   321   000029                     ___flmul@temp:
   322                           	callstack 0
   323                           
   324                           ; 2 bytes @ 0x28
   325   000029                     	ds	2
   326   00002B                     ?___fldiv:
   327                           	callstack 0
   328   00002B                     ___fldiv@b:
   329                           	callstack 0
   330                           
   331                           ; 4 bytes @ 0x2A
   332   00002B                     	ds	4
   333   00002F                     ___fldiv@a:
   334                           	callstack 0
   335                           
   336                           ; 4 bytes @ 0x2E
   337   00002F                     	ds	4
   338   000033                     ??___fldiv:
   339                           
   340                           ; 1 bytes @ 0x32
   341   000033                     	ds	4
   342   000037                     ___fldiv@rem:
   343                           	callstack 0
   344                           
   345                           ; 4 bytes @ 0x36
   346   000037                     	ds	4
   347   00003B                     ___fldiv@sign:
   348                           	callstack 0
   349                           
   350                           ; 1 bytes @ 0x3A
   351   00003B                     	ds	1
   352   00003C                     ___fldiv@new_exp:
   353                           	callstack 0
   354                           
   355                           ; 2 bytes @ 0x3B
   356   00003C                     	ds	2
   357   00003E                     ___fldiv@grs:
   358                           	callstack 0
   359                           
   360                           ; 4 bytes @ 0x3D
   361   00003E                     	ds	4
   362   000042                     ___fldiv@bexp:
   363                           	callstack 0
   364                           
   365                           ; 1 bytes @ 0x41
   366   000042                     	ds	1
   367   000043                     ___fldiv@aexp:
   368                           	callstack 0
   369                           
   370                           ; 1 bytes @ 0x42
   371   000043                     	ds	1
   372   000044                     ?___flsub:
   373                           	callstack 0
   374   000044                     ___flsub@b:
   375                           	callstack 0
   376                           
   377                           ; 4 bytes @ 0x43
   378   000044                     	ds	4
   379   000048                     ___flsub@a:
   380                           	callstack 0
   381                           
   382                           ; 4 bytes @ 0x47
   383   000048                     	ds	4
   384   00004C                     ?___fltol:
   385                           	callstack 0
   386   00004C                     ___fltol@f1:
   387                           	callstack 0
   388                           
   389                           ; 4 bytes @ 0x4B
   390   00004C                     	ds	4
   391   000050                     ??___fltol:
   392                           
   393                           ; 1 bytes @ 0x4F
   394   000050                     	ds	4
   395   000054                     ___fltol@sign1:
   396                           	callstack 0
   397                           
   398                           ; 1 bytes @ 0x53
   399   000054                     	ds	1
   400   000055                     ___fltol@exp1:
   401                           	callstack 0
   402                           
   403                           ; 1 bytes @ 0x54
   404   000055                     	ds	1
   405   000056                     
   406                           ; 1 bytes @ 0x55
   407 ;;
   408 ;;Main: autosize = 0, tempsize = 0, incstack = 0, save=0
   409 ;;
   410 ;; *************** function _main *****************
   411 ;; Defined at:
   412 ;;		line 35 in file "aceleration.c"
   413 ;; Parameters:    Size  Location     Type
   414 ;;		None
   415 ;; Auto vars:     Size  Location     Type
   416 ;;		None
   417 ;; Return value:  Size  Location     Type
   418 ;;                  1    wreg      void 
   419 ;; Registers used:
   420 ;;		wreg, fsr2l, fsr2h, status,2, status,0, prodl, prodh, cstack
   421 ;; Tracked objects:
   422 ;;		On entry : 0/0
   423 ;;		On exit  : 0/0
   424 ;;		Unchanged: 0/0
   425 ;; Data sizes:     COMRAM   BANK0   BANK1   BANK2   BANK3   BANK4   BANK5   BANK6   BANK7
   426 ;;      Params:         0       0       0       0       0       0       0       0       0
   427 ;;      Locals:         0       0       0       0       0       0       0       0       0
   428 ;;      Temps:          0       0       0       0       0       0       0       0       0
   429 ;;      Totals:         0       0       0       0       0       0       0       0       0
   430 ;;Total ram usage:        0 bytes
   431 ;; Hardware stack levels required when called: 4
   432 ;; This function calls:
   433 ;;		___fldiv
   434 ;;		___flmul
   435 ;;		___xxtofl
   436 ;;		_precargas
   437 ;; This function is called by:
   438 ;;		Startup code after reset
   439 ;; This function uses a non-reentrant model
   440 ;;
   441                           
   442                           	psect	text0
   443   00117C                     __ptext0:
   444                           	callstack 0
   445   00117C                     _main:
   446                           	callstack 27
   447   00117C                     
   448                           ;aceleration.c: 37: 
   449   00117C  685A               	setf	_counter^0,c
   450   00117E  685B               	setf	(_counter+1)^0,c
   451   001180                     
   452                           ;aceleration.c: 38:     precargas();
   453   001180  0E00               	movlw	0
   454   001182  0100               	movlb	0	; () banked
   455   001184  6FBD               	movwf	(_counterVC+1)& (0+255),b
   456   001186  0E00               	movlw	0
   457   001188  6FBC               	movwf	_counterVC& (0+255),b
   458                           
   459                           ;aceleration.c: 39: 
   460   00118A  0E00               	movlw	0
   461   00118C  6FE3               	movwf	(_ac+1)& (0+255),b
   462   00118E  0E01               	movlw	1
   463   001190  6FE2               	movwf	_ac& (0+255),b
   464                           
   465                           ;aceleration.c: 40: 
   466   001192  0E00               	movlw	0
   467   001194  6FBF               	movwf	(_des+1)& (0+255),b
   468   001196  0E00               	movlw	0
   469   001198  6FBE               	movwf	_des& (0+255),b
   470                           
   471                           ;aceleration.c: 41:     TRISD = 0b11100000;
   472   00119A  0E00               	movlw	0
   473   00119C  6FC1               	movwf	(_cru+1)& (0+255),b
   474   00119E  0E00               	movlw	0
   475   0011A0  6FC0               	movwf	_cru& (0+255),b
   476                           
   477                           ;aceleration.c: 43: 
   478   0011A2  0E1B               	movlw	27
   479   0011A4  6FE7               	movwf	(_pasosX+1)& (0+255),b
   480   0011A6  0E58               	movlw	88
   481   0011A8  6FE6               	movwf	_pasosX& (0+255),b
   482                           
   483                           ;aceleration.c: 44: 
   484   0011AA  0E1B               	movlw	27
   485   0011AC  6FE5               	movwf	(_pasosY+1)& (0+255),b
   486   0011AE  0E58               	movlw	88
   487   0011B0  6FE4               	movwf	_pasosY& (0+255),b
   488                           
   489                           ;aceleration.c: 45:     LATD2 = 1;
   490   0011B2  0E00               	movlw	0
   491   0011B4  6E59               	movwf	(_pasosXDados+1)^0,c
   492   0011B6  0E00               	movlw	0
   493   0011B8  6E58               	movwf	_pasosXDados^0,c
   494                           
   495                           ;aceleration.c: 46:     LATD3 = 1;
   496   0011BA  0E00               	movlw	0
   497   0011BC  6E57               	movwf	(_pasosYDados+1)^0,c
   498   0011BE  0E00               	movlw	0
   499   0011C0  6E56               	movwf	_pasosYDados^0,c
   500                           
   501                           ;aceleration.c: 47: 
   502   0011C2  0E00               	movlw	0
   503   0011C4  6FDE               	movwf	_Ta& (0+255),b
   504   0011C6  0E00               	movlw	0
   505   0011C8  6FDF               	movwf	(_Ta+1)& (0+255),b
   506   0011CA  0E90               	movlw	144
   507   0011CC  6FE0               	movwf	(_Ta+2)& (0+255),b
   508   0011CE  0E40               	movlw	64
   509   0011D0  6FE1               	movwf	(_Ta+3)& (0+255),b
   510   0011D2                     
   511                           ; BSR set to: 0
   512                           ;aceleration.c: 48: 
   513   0011D2  C0DE  F02B         	movff	_Ta,___fldiv@b
   514   0011D6  C0DF  F02C         	movff	_Ta+1,___fldiv@b+1
   515   0011DA  C0E0  F02D         	movff	_Ta+2,___fldiv@b+2
   516   0011DE  C0E1  F02E         	movff	_Ta+3,___fldiv@b+3
   517   0011E2  0E00               	movlw	0
   518   0011E4  6E2F               	movwf	___fldiv@a^0,c
   519   0011E6  0E00               	movlw	0
   520   0011E8  6E30               	movwf	(___fldiv@a+1)^0,c
   521   0011EA  0EA0               	movlw	160
   522   0011EC  6E31               	movwf	(___fldiv@a+2)^0,c
   523   0011EE  0E41               	movlw	65
   524   0011F0  6E32               	movwf	(___fldiv@a+3)^0,c
   525   0011F2  EC7E  F004         	call	___fldiv	;wreg free
   526   0011F6  C02B  F0DA         	movff	?___fldiv,_deltaT
   527   0011FA  C02C  F0DB         	movff	?___fldiv+1,_deltaT+1
   528   0011FE  C02D  F0DC         	movff	?___fldiv+2,_deltaT+2
   529   001202  C02E  F0DD         	movff	?___fldiv+3,_deltaT+3
   530   001206                     
   531                           ;aceleration.c: 49:     TMR0IF = 0;
   532   001206  0E00               	movlw	0
   533   001208  6E16               	movwf	___flmul@a^0,c
   534   00120A  0E00               	movlw	0
   535   00120C  6E17               	movwf	(___flmul@a+1)^0,c
   536   00120E  0E00               	movlw	0
   537   001210  6E18               	movwf	(___flmul@a+2)^0,c
   538   001212  0E3F               	movlw	63
   539   001214  6E19               	movwf	(___flmul@a+3)^0,c
   540   001216  C0E6  F004         	movff	_pasosX,___xxtofl@val
   541   00121A  C0E7  F005         	movff	_pasosX+1,___xxtofl@val+1
   542   00121E  0E00               	movlw	0
   543   001220  BE05               	btfsc	(___xxtofl@val+1)^0,7,c
   544   001222  0EFF               	movlw	-1
   545   001224  6E06               	movwf	(___xxtofl@val+2)^0,c
   546   001226  6E07               	movwf	(___xxtofl@val+3)^0,c
   547   001228  0E01               	movlw	1
   548   00122A  ECCA  F009         	call	___xxtofl
   549   00122E  C004  F012         	movff	?___xxtofl,___flmul@b
   550   001232  C005  F013         	movff	?___xxtofl+1,___flmul@b+1
   551   001236  C006  F014         	movff	?___xxtofl+2,___flmul@b+2
   552   00123A  C007  F015         	movff	?___xxtofl+3,___flmul@b+3
   553   00123E  EC69  F002         	call	___flmul	;wreg free
   554   001242  C012  F02B         	movff	?___flmul,___fldiv@b
   555   001246  C013  F02C         	movff	?___flmul+1,___fldiv@b+1
   556   00124A  C014  F02D         	movff	?___flmul+2,___fldiv@b+2
   557   00124E  C015  F02E         	movff	?___flmul+3,___fldiv@b+3
   558   001252  C0DE  F02F         	movff	_Ta,___fldiv@a
   559   001256  C0DF  F030         	movff	_Ta+1,___fldiv@a+1
   560   00125A  C0E0  F031         	movff	_Ta+2,___fldiv@a+2
   561   00125E  C0E1  F032         	movff	_Ta+3,___fldiv@a+3
   562   001262  EC7E  F004         	call	___fldiv	;wreg free
   563   001266  C02B  F0EC         	movff	?___fldiv,_vCx
   564   00126A  C02C  F0ED         	movff	?___fldiv+1,_vCx+1
   565   00126E  C02D  F0EE         	movff	?___fldiv+2,_vCx+2
   566   001272  C02E  F0EF         	movff	?___fldiv+3,_vCx+3
   567   001276                     
   568                           ;aceleration.c: 50:     TMR1IF = 0;
   569   001276  0E00               	movlw	0
   570   001278  6E16               	movwf	___flmul@a^0,c
   571   00127A  0E00               	movlw	0
   572   00127C  6E17               	movwf	(___flmul@a+1)^0,c
   573   00127E  0E00               	movlw	0
   574   001280  6E18               	movwf	(___flmul@a+2)^0,c
   575   001282  0E3F               	movlw	63
   576   001284  6E19               	movwf	(___flmul@a+3)^0,c
   577   001286  C0E4  F004         	movff	_pasosY,___xxtofl@val
   578   00128A  C0E5  F005         	movff	_pasosY+1,___xxtofl@val+1
   579   00128E  0E00               	movlw	0
   580   001290  BE05               	btfsc	(___xxtofl@val+1)^0,7,c
   581   001292  0EFF               	movlw	-1
   582   001294  6E06               	movwf	(___xxtofl@val+2)^0,c
   583   001296  6E07               	movwf	(___xxtofl@val+3)^0,c
   584   001298  0E01               	movlw	1
   585   00129A  ECCA  F009         	call	___xxtofl
   586   00129E  C004  F012         	movff	?___xxtofl,___flmul@b
   587   0012A2  C005  F013         	movff	?___xxtofl+1,___flmul@b+1
   588   0012A6  C006  F014         	movff	?___xxtofl+2,___flmul@b+2
   589   0012AA  C007  F015         	movff	?___xxtofl+3,___flmul@b+3
   590   0012AE  EC69  F002         	call	___flmul	;wreg free
   591   0012B2  C012  F02B         	movff	?___flmul,___fldiv@b
   592   0012B6  C013  F02C         	movff	?___flmul+1,___fldiv@b+1
   593   0012BA  C014  F02D         	movff	?___flmul+2,___fldiv@b+2
   594   0012BE  C015  F02E         	movff	?___flmul+3,___fldiv@b+3
   595   0012C2  C0DE  F02F         	movff	_Ta,___fldiv@a
   596   0012C6  C0DF  F030         	movff	_Ta+1,___fldiv@a+1
   597   0012CA  C0E0  F031         	movff	_Ta+2,___fldiv@a+2
   598   0012CE  C0E1  F032         	movff	_Ta+3,___fldiv@a+3
   599   0012D2  EC7E  F004         	call	___fldiv	;wreg free
   600   0012D6  C02B  F0E8         	movff	?___fldiv,_vCy
   601   0012DA  C02C  F0E9         	movff	?___fldiv+1,_vCy+1
   602   0012DE  C02D  F0EA         	movff	?___fldiv+2,_vCy+2
   603   0012E2  C02E  F0EB         	movff	?___fldiv+3,_vCy+3
   604   0012E6                     
   605                           ;aceleration.c: 51:     TMR3IF = 0;
   606   0012E6  C0EC  F012         	movff	_vCx,___flmul@b
   607   0012EA  C0ED  F013         	movff	_vCx+1,___flmul@b+1
   608   0012EE  C0EE  F014         	movff	_vCx+2,___flmul@b+2
   609   0012F2  C0EF  F015         	movff	_vCx+3,___flmul@b+3
   610   0012F6  0ECD               	movlw	205
   611   0012F8  6E16               	movwf	___flmul@a^0,c
   612   0012FA  0ECC               	movlw	204
   613   0012FC  6E17               	movwf	(___flmul@a+1)^0,c
   614   0012FE  0E4C               	movlw	76
   615   001300  6E18               	movwf	(___flmul@a+2)^0,c
   616   001302  0E3D               	movlw	61
   617   001304  6E19               	movwf	(___flmul@a+3)^0,c
   618   001306  EC69  F002         	call	___flmul	;wreg free
   619   00130A  C012  F0D6         	movff	?___flmul,_v5x
   620   00130E  C013  F0D7         	movff	?___flmul+1,_v5x+1
   621   001312  C014  F0D8         	movff	?___flmul+2,_v5x+2
   622   001316  C015  F0D9         	movff	?___flmul+3,_v5x+3
   623   00131A                     
   624                           ;aceleration.c: 52: 
   625   00131A  C0E8  F012         	movff	_vCy,___flmul@b
   626   00131E  C0E9  F013         	movff	_vCy+1,___flmul@b+1
   627   001322  C0EA  F014         	movff	_vCy+2,___flmul@b+2
   628   001326  C0EB  F015         	movff	_vCy+3,___flmul@b+3
   629   00132A  0ECD               	movlw	205
   630   00132C  6E16               	movwf	___flmul@a^0,c
   631   00132E  0ECC               	movlw	204
   632   001330  6E17               	movwf	(___flmul@a+1)^0,c
   633   001332  0E4C               	movlw	76
   634   001334  6E18               	movwf	(___flmul@a+2)^0,c
   635   001336  0E3D               	movlw	61
   636   001338  6E19               	movwf	(___flmul@a+3)^0,c
   637   00133A  EC69  F002         	call	___flmul	;wreg free
   638   00133E  C012  F0D2         	movff	?___flmul,_v5y
   639   001342  C013  F0D3         	movff	?___flmul+1,_v5y+1
   640   001346  C014  F0D4         	movff	?___flmul+2,_v5y+2
   641   00134A  C015  F0D5         	movff	?___flmul+3,_v5y+3
   642   00134E                     
   643                           ;aceleration.c: 54:     TMR0IE = 1;
   644   00134E  EC8C  F007         	call	_precargas	;wreg free
   645   001352                     
   646                           ;aceleration.c: 57: 
   647   001352  0EE0               	movlw	224
   648   001354  6E95               	movwf	149,c	;volatile
   649   001356                     
   650                           ;aceleration.c: 58: 
   651   001356  0E00               	movlw	0
   652   001358  6E8C               	movwf	140,c	;volatile
   653   00135A                     
   654                           ;aceleration.c: 61: 
   655   00135A  848C               	bsf	3980,2,c	;volatile
   656   00135C                     
   657                           ;aceleration.c: 62: 
   658   00135C  868C               	bsf	3980,3,c	;volatile
   659   00135E                     
   660                           ;aceleration.c: 65:     TMR0 =9286;
   661   00135E  94F2               	bcf	4082,2,c	;volatile
   662   001360                     
   663                           ;aceleration.c: 66: 
   664   001360  909E               	bcf	3998,0,c	;volatile
   665   001362                     
   666                           ;aceleration.c: 67: 
   667   001362  92A1               	bcf	4001,1,c	;volatile
   668   001364                     
   669                           ;aceleration.c: 70: 
   670   001364  8AF2               	bsf	4082,5,c	;volatile
   671   001366                     
   672                           ;aceleration.c: 71: 
   673   001366  809D               	bsf	3997,0,c	;volatile
   674   001368                     
   675                           ;aceleration.c: 72:     T3CON = 0b10100000;
   676   001368  82A0               	bsf	4000,1,c	;volatile
   677   00136A                     
   678                           ;aceleration.c: 75: 
   679   00136A  0E70               	movlw	112
   680   00136C  6ED3               	movwf	211,c	;volatile
   681   00136E                     
   682                           ;aceleration.c: 79: 
   683   00136E  0E02               	movlw	2
   684   001370  6ED5               	movwf	213,c	;volatile
   685   001372                     
   686                           ;aceleration.c: 80:     GIE = 1;
   687   001372  8ED5               	bsf	4053,7,c	;volatile
   688   001374                     
   689                           ;aceleration.c: 81: 
   690   001374  0E24               	movlw	36
   691   001376  6ED7               	movwf	215,c	;volatile
   692   001378  0E46               	movlw	70
   693   00137A  6ED6               	movwf	214,c	;volatile
   694   00137C                     
   695                           ;aceleration.c: 84: 
   696   00137C  0EA0               	movlw	160
   697   00137E  6ECD               	movwf	205,c	;volatile
   698   001380                     
   699                           ;aceleration.c: 85: void __attribute__((picinterrupt(("")))) ISR(void){
   700   001380  80CD               	bsf	4045,0,c	;volatile
   701   001382                     
   702                           ;aceleration.c: 88:         TMR0 = 9286;
   703   001382  0EA0               	movlw	160
   704   001384  6EB1               	movwf	177,c	;volatile
   705   001386                     
   706                           ;aceleration.c: 89: 
   707   001386  80B1               	bsf	4017,0,c	;volatile
   708   001388                     
   709                           ;aceleration.c: 93:             counter--;
   710   001388  8CF2               	bsf	4082,6,c	;volatile
   711   00138A                     
   712                           ;aceleration.c: 96:         }
   713   00138A  8EF2               	bsf	4082,7,c	;volatile
   714   00138C                     l107:
   715   00138C  EFC6  F009         	goto	l107
   716   001390  EF07  F000         	goto	start
   717   001394                     __end_of_main:
   718                           	callstack 0
   719                           
   720 ;; *************** function _precargas *****************
   721 ;; Defined at:
   722 ;;		line 169 in file "aceleration.c"
   723 ;; Parameters:    Size  Location     Type
   724 ;;		None
   725 ;; Auto vars:     Size  Location     Type
   726 ;;  i               2    0[BANK0 ] int 
   727 ;; Return value:  Size  Location     Type
   728 ;;                  1    wreg      void 
   729 ;; Registers used:
   730 ;;		wreg, fsr2l, fsr2h, status,2, status,0, prodl, prodh, cstack
   731 ;; Tracked objects:
   732 ;;		On entry : 0/0
   733 ;;		On exit  : 0/0
   734 ;;		Unchanged: 0/0
   735 ;; Data sizes:     COMRAM   BANK0   BANK1   BANK2   BANK3   BANK4   BANK5   BANK6   BANK7
   736 ;;      Params:         0       0       0       0       0       0       0       0       0
   737 ;;      Locals:         0       2       0       0       0       0       0       0       0
   738 ;;      Temps:          0       0       0       0       0       0       0       0       0
   739 ;;      Totals:         0       2       0       0       0       0       0       0       0
   740 ;;Total ram usage:        2 bytes
   741 ;; Hardware stack levels used: 1
   742 ;; Hardware stack levels required when called: 3
   743 ;; This function calls:
   744 ;;		___fldiv
   745 ;;		___flmul
   746 ;;		___flsub
   747 ;;		___fltol
   748 ;;		___xxtofl
   749 ;; This function is called by:
   750 ;;		_main
   751 ;; This function uses a non-reentrant model
   752 ;;
   753                           
   754                           	psect	text1
   755   000F18                     __ptext1:
   756                           	callstack 0
   757   000F18                     _precargas:
   758                           	callstack 27
   759   000F18  0E00               	movlw	0
   760   000F1A  0100               	movlb	0	; () banked
   761   000F1C  6FF1               	movwf	(precargas@i+1)& (0+255),b
   762   000F1E  0E01               	movlw	1
   763   000F20  6FF0               	movwf	precargas@i& (0+255),b
   764   000F22                     l2808:
   765                           
   766                           ; BSR set to: 0
   767   000F22  C0F0  F004         	movff	precargas@i,___xxtofl@val
   768   000F26  C0F1  F005         	movff	precargas@i+1,___xxtofl@val+1
   769   000F2A  0E00               	movlw	0
   770   000F2C  BE05               	btfsc	(___xxtofl@val+1)^0,7,c
   771   000F2E  0EFF               	movlw	-1
   772   000F30  6E06               	movwf	(___xxtofl@val+2)^0,c
   773   000F32  6E07               	movwf	(___xxtofl@val+3)^0,c
   774   000F34  0E01               	movlw	1
   775   000F36  ECCA  F009         	call	___xxtofl
   776   000F3A  C004  F012         	movff	?___xxtofl,___flmul@b
   777   000F3E  C005  F013         	movff	?___xxtofl+1,___flmul@b+1
   778   000F42  C006  F014         	movff	?___xxtofl+2,___flmul@b+2
   779   000F46  C007  F015         	movff	?___xxtofl+3,___flmul@b+3
   780   000F4A  C0D6  F016         	movff	_v5x,___flmul@a
   781   000F4E  C0D7  F017         	movff	_v5x+1,___flmul@a+1
   782   000F52  C0D8  F018         	movff	_v5x+2,___flmul@a+2
   783   000F56  C0D9  F019         	movff	_v5x+3,___flmul@a+3
   784   000F5A  EC69  F002         	call	___flmul	;wreg free
   785   000F5E  C012  F0CE         	movff	?___flmul,_vInsx
   786   000F62  C013  F0CF         	movff	?___flmul+1,_vInsx+1
   787   000F66  C014  F0D0         	movff	?___flmul+2,_vInsx+2
   788   000F6A  C015  F0D1         	movff	?___flmul+3,_vInsx+3
   789   000F6E  C0F0  F004         	movff	precargas@i,___xxtofl@val
   790   000F72  C0F1  F005         	movff	precargas@i+1,___xxtofl@val+1
   791   000F76  0E00               	movlw	0
   792   000F78  BE05               	btfsc	(___xxtofl@val+1)^0,7,c
   793   000F7A  0EFF               	movlw	-1
   794   000F7C  6E06               	movwf	(___xxtofl@val+2)^0,c
   795   000F7E  6E07               	movwf	(___xxtofl@val+3)^0,c
   796   000F80  0E01               	movlw	1
   797   000F82  ECCA  F009         	call	___xxtofl
   798   000F86  C004  F012         	movff	?___xxtofl,___flmul@b
   799   000F8A  C005  F013         	movff	?___xxtofl+1,___flmul@b+1
   800   000F8E  C006  F014         	movff	?___xxtofl+2,___flmul@b+2
   801   000F92  C007  F015         	movff	?___xxtofl+3,___flmul@b+3
   802   000F96  C0D2  F016         	movff	_v5y,___flmul@a
   803   000F9A  C0D3  F017         	movff	_v5y+1,___flmul@a+1
   804   000F9E  C0D4  F018         	movff	_v5y+2,___flmul@a+2
   805   000FA2  C0D5  F019         	movff	_v5y+3,___flmul@a+3
   806   000FA6  EC69  F002         	call	___flmul	;wreg free
   807   000FAA  C012  F0CA         	movff	?___flmul,_vInsy
   808   000FAE  C013  F0CB         	movff	?___flmul+1,_vInsy+1
   809   000FB2  C014  F0CC         	movff	?___flmul+2,_vInsy+2
   810   000FB6  C015  F0CD         	movff	?___flmul+3,_vInsy+3
   811   000FBA  0E00               	movlw	0
   812   000FBC  6E2B               	movwf	___fldiv@b^0,c
   813   000FBE  0E00               	movlw	0
   814   000FC0  6E2C               	movwf	(___fldiv@b+1)^0,c
   815   000FC2  0E00               	movlw	0
   816   000FC4  6E2D               	movwf	(___fldiv@b+2)^0,c
   817   000FC6  0E3F               	movlw	63
   818   000FC8  6E2E               	movwf	(___fldiv@b+3)^0,c
   819   000FCA  C0CE  F02F         	movff	_vInsx,___fldiv@a
   820   000FCE  C0CF  F030         	movff	_vInsx+1,___fldiv@a+1
   821   000FD2  C0D0  F031         	movff	_vInsx+2,___fldiv@a+2
   822   000FD6  C0D1  F032         	movff	_vInsx+3,___fldiv@a+3
   823   000FDA  EC7E  F004         	call	___fldiv	;wreg free
   824   000FDE  C02B  F0B8         	movff	?___fldiv,_TIntx
   825   000FE2  C02C  F0B9         	movff	?___fldiv+1,_TIntx+1
   826   000FE6  C02D  F0BA         	movff	?___fldiv+2,_TIntx+2
   827   000FEA  C02E  F0BB         	movff	?___fldiv+3,_TIntx+3
   828   000FEE  0E00               	movlw	0
   829   000FF0  6E2B               	movwf	___fldiv@b^0,c
   830   000FF2  0E00               	movlw	0
   831   000FF4  6E2C               	movwf	(___fldiv@b+1)^0,c
   832   000FF6  0E00               	movlw	0
   833   000FF8  6E2D               	movwf	(___fldiv@b+2)^0,c
   834   000FFA  0E3F               	movlw	63
   835   000FFC  6E2E               	movwf	(___fldiv@b+3)^0,c
   836   000FFE  C0CA  F02F         	movff	_vInsy,___fldiv@a
   837   001002  C0CB  F030         	movff	_vInsy+1,___fldiv@a+1
   838   001006  C0CC  F031         	movff	_vInsy+2,___fldiv@a+2
   839   00100A  C0CD  F032         	movff	_vInsy+3,___fldiv@a+3
   840   00100E  EC7E  F004         	call	___fldiv	;wreg free
   841   001012  C02B  F0B4         	movff	?___fldiv,_TInty
   842   001016  C02C  F0B5         	movff	?___fldiv+1,_TInty+1
   843   00101A  C02D  F0B6         	movff	?___fldiv+2,_TInty+2
   844   00101E  C02E  F0B7         	movff	?___fldiv+3,_TInty+3
   845   001022  0E00               	movlw	0
   846   001024  6E2F               	movwf	___fldiv@a^0,c
   847   001026  0E00               	movlw	0
   848   001028  6E30               	movwf	(___fldiv@a+1)^0,c
   849   00102A  0E80               	movlw	128
   850   00102C  6E31               	movwf	(___fldiv@a+2)^0,c
   851   00102E  0E40               	movlw	64
   852   001030  6E32               	movwf	(___fldiv@a+3)^0,c
   853   001032  0E00               	movlw	0
   854   001034  6E16               	movwf	___flmul@a^0,c
   855   001036  0E24               	movlw	36
   856   001038  6E17               	movwf	(___flmul@a+1)^0,c
   857   00103A  0EF4               	movlw	244
   858   00103C  6E18               	movwf	(___flmul@a+2)^0,c
   859   00103E  0E49               	movlw	73
   860   001040  6E19               	movwf	(___flmul@a+3)^0,c
   861   001042  C0B8  F012         	movff	_TIntx,___flmul@b
   862   001046  C0B9  F013         	movff	_TIntx+1,___flmul@b+1
   863   00104A  C0BA  F014         	movff	_TIntx+2,___flmul@b+2
   864   00104E  C0BB  F015         	movff	_TIntx+3,___flmul@b+3
   865   001052  EC69  F002         	call	___flmul	;wreg free
   866   001056  C012  F02B         	movff	?___flmul,___fldiv@b
   867   00105A  C013  F02C         	movff	?___flmul+1,___fldiv@b+1
   868   00105E  C014  F02D         	movff	?___flmul+2,___fldiv@b+2
   869   001062  C015  F02E         	movff	?___flmul+3,___fldiv@b+3
   870   001066  EC7E  F004         	call	___fldiv	;wreg free
   871   00106A  C02B  F048         	movff	?___fldiv,___flsub@a
   872   00106E  C02C  F049         	movff	?___fldiv+1,___flsub@a+1
   873   001072  C02D  F04A         	movff	?___fldiv+2,___flsub@a+2
   874   001076  C02E  F04B         	movff	?___fldiv+3,___flsub@a+3
   875   00107A  0E00               	movlw	0
   876   00107C  6E44               	movwf	___flsub@b^0,c
   877   00107E  0E00               	movlw	0
   878   001080  6E45               	movwf	(___flsub@b+1)^0,c
   879   001082  0E80               	movlw	128
   880   001084  6E46               	movwf	(___flsub@b+2)^0,c
   881   001086  0E47               	movlw	71
   882   001088  6E47               	movwf	(___flsub@b+3)^0,c
   883   00108A  EC27  F00B         	call	___flsub	;wreg free
   884   00108E  C044  F04C         	movff	?___flsub,___fltol@f1
   885   001092  C045  F04D         	movff	?___flsub+1,___fltol@f1+1
   886   001096  C046  F04E         	movff	?___flsub+2,___fltol@f1+2
   887   00109A  C047  F04F         	movff	?___flsub+3,___fltol@f1+3
   888   00109E  ECA4  F00A         	call	___fltol	;wreg free
   889   0010A2  90D8               	bcf	status,0,c
   890   0010A4  0100               	movlb	0	; () banked
   891   0010A6  35F0               	rlcf	precargas@i& (0+255),w,b
   892   0010A8  6ED9               	movwf	fsr2l,c
   893   0010AA  35F1               	rlcf	(precargas@i+1)& (0+255),w,b
   894   0010AC  6EDA               	movwf	fsr2h,c
   895   0010AE  0E86               	movlw	low (_arrayX+65534)
   896   0010B0  26D9               	addwf	fsr2l,f,c
   897   0010B2  0E00               	movlw	high (_arrayX+65534)
   898   0010B4  22DA               	addwfc	fsr2h,f,c
   899   0010B6  C04C  FFDE         	movff	?___fltol,postinc2
   900   0010BA  C04D  FFDD         	movff	?___fltol+1,postdec2
   901   0010BE                     
   902                           ; BSR set to: 0
   903   0010BE  0E00               	movlw	0
   904   0010C0  6E2F               	movwf	___fldiv@a^0,c
   905   0010C2  0E00               	movlw	0
   906   0010C4  6E30               	movwf	(___fldiv@a+1)^0,c
   907   0010C6  0E80               	movlw	128
   908   0010C8  6E31               	movwf	(___fldiv@a+2)^0,c
   909   0010CA  0E40               	movlw	64
   910   0010CC  6E32               	movwf	(___fldiv@a+3)^0,c
   911   0010CE  0E00               	movlw	0
   912   0010D0  6E16               	movwf	___flmul@a^0,c
   913   0010D2  0E24               	movlw	36
   914   0010D4  6E17               	movwf	(___flmul@a+1)^0,c
   915   0010D6  0EF4               	movlw	244
   916   0010D8  6E18               	movwf	(___flmul@a+2)^0,c
   917   0010DA  0E49               	movlw	73
   918   0010DC  6E19               	movwf	(___flmul@a+3)^0,c
   919   0010DE  C0B4  F012         	movff	_TInty,___flmul@b
   920   0010E2  C0B5  F013         	movff	_TInty+1,___flmul@b+1
   921   0010E6  C0B6  F014         	movff	_TInty+2,___flmul@b+2
   922   0010EA  C0B7  F015         	movff	_TInty+3,___flmul@b+3
   923   0010EE  EC69  F002         	call	___flmul	;wreg free
   924   0010F2  C012  F02B         	movff	?___flmul,___fldiv@b
   925   0010F6  C013  F02C         	movff	?___flmul+1,___fldiv@b+1
   926   0010FA  C014  F02D         	movff	?___flmul+2,___fldiv@b+2
   927   0010FE  C015  F02E         	movff	?___flmul+3,___fldiv@b+3
   928   001102  EC7E  F004         	call	___fldiv	;wreg free
   929   001106  C02B  F048         	movff	?___fldiv,___flsub@a
   930   00110A  C02C  F049         	movff	?___fldiv+1,___flsub@a+1
   931   00110E  C02D  F04A         	movff	?___fldiv+2,___flsub@a+2
   932   001112  C02E  F04B         	movff	?___fldiv+3,___flsub@a+3
   933   001116  0E00               	movlw	0
   934   001118  6E44               	movwf	___flsub@b^0,c
   935   00111A  0E00               	movlw	0
   936   00111C  6E45               	movwf	(___flsub@b+1)^0,c
   937   00111E  0E80               	movlw	128
   938   001120  6E46               	movwf	(___flsub@b+2)^0,c
   939   001122  0E47               	movlw	71
   940   001124  6E47               	movwf	(___flsub@b+3)^0,c
   941   001126  EC27  F00B         	call	___flsub	;wreg free
   942   00112A  C044  F04C         	movff	?___flsub,___fltol@f1
   943   00112E  C045  F04D         	movff	?___flsub+1,___fltol@f1+1
   944   001132  C046  F04E         	movff	?___flsub+2,___fltol@f1+2
   945   001136  C047  F04F         	movff	?___flsub+3,___fltol@f1+3
   946   00113A  ECA4  F00A         	call	___fltol	;wreg free
   947   00113E  90D8               	bcf	status,0,c
   948   001140  0100               	movlb	0	; () banked
   949   001142  35F0               	rlcf	precargas@i& (0+255),w,b
   950   001144  6ED9               	movwf	fsr2l,c
   951   001146  35F1               	rlcf	(precargas@i+1)& (0+255),w,b
   952   001148  6EDA               	movwf	fsr2h,c
   953   00114A  0E5E               	movlw	low (_arrayY+65534)
   954   00114C  26D9               	addwf	fsr2l,f,c
   955   00114E  0E00               	movlw	high (_arrayY+65534)
   956   001150  22DA               	addwfc	fsr2h,f,c
   957   001152  C04C  FFDE         	movff	?___fltol,postinc2
   958   001156  C04D  FFDD         	movff	?___fltol+1,postdec2
   959   00115A                     
   960                           ; BSR set to: 0
   961   00115A  4BF0               	infsnz	precargas@i& (0+255),f,b
   962   00115C  2BF1               	incf	(precargas@i+1)& (0+255),f,b
   963   00115E                     
   964                           ; BSR set to: 0
   965   00115E  BFF1               	btfsc	(precargas@i+1)& (0+255),7,b
   966   001160  EFBB  F008         	goto	u3391
   967   001164  51F1               	movf	(precargas@i+1)& (0+255),w,b
   968   001166  E109               	bnz	u3390
   969   001168  0E15               	movlw	21
   970   00116A  5DF0               	subwf	precargas@i& (0+255),w,b
   971   00116C  A0D8               	btfss	status,0,c
   972   00116E  EFBB  F008         	goto	u3391
   973   001172  EFBD  F008         	goto	u3390
   974   001176                     u3391:
   975   001176  EF91  F007         	goto	l2808
   976   00117A                     u3390:
   977   00117A                     
   978                           ; BSR set to: 0
   979   00117A  0012               	return		;funcret
   980   00117C                     __end_of_precargas:
   981                           	callstack 0
   982                           
   983 ;; *************** function ___xxtofl *****************
   984 ;; Defined at:
   985 ;;		line 10 in file "C:\Program Files\Microchip\xc8\v2.40\pic\sources\c99\common\xxtofl.c"
   986 ;; Parameters:    Size  Location     Type
   987 ;;  sign            1    wreg     unsigned char 
   988 ;;  val             4    3[COMRAM] long 
   989 ;; Auto vars:     Size  Location     Type
   990 ;;  sign            1   11[COMRAM] unsigned char 
   991 ;;  arg             4   13[COMRAM] unsigned long 
   992 ;;  exp             1   12[COMRAM] unsigned char 
   993 ;; Return value:  Size  Location     Type
   994 ;;                  4    3[COMRAM] unsigned char 
   995 ;; Registers used:
   996 ;;		wreg, status,2, status,0
   997 ;; Tracked objects:
   998 ;;		On entry : 0/0
   999 ;;		On exit  : 0/0
  1000 ;;		Unchanged: 0/0
  1001 ;; Data sizes:     COMRAM   BANK0   BANK1   BANK2   BANK3   BANK4   BANK5   BANK6   BANK7
  1002 ;;      Params:         4       0       0       0       0       0       0       0       0
  1003 ;;      Locals:         6       0       0       0       0       0       0       0       0
  1004 ;;      Temps:          4       0       0       0       0       0       0       0       0
  1005 ;;      Totals:        14       0       0       0       0       0       0       0       0
  1006 ;;Total ram usage:       14 bytes
  1007 ;; Hardware stack levels used: 1
  1008 ;; Hardware stack levels required when called: 1
  1009 ;; This function calls:
  1010 ;;		Nothing
  1011 ;; This function is called by:
  1012 ;;		_main
  1013 ;;		_precargas
  1014 ;; This function uses a non-reentrant model
  1015 ;;
  1016                           
  1017                           	psect	text2
  1018   001394                     __ptext2:
  1019                           	callstack 0
  1020   001394                     ___xxtofl:
  1021                           	callstack 28
  1022                           
  1023                           ; BSR set to: 0
  1024                           ;incstack = 0
  1025                           ;___xxtofl@sign stored from wreg
  1026   001394  6E0C               	movwf	___xxtofl@sign^0,c
  1027   001396  500C               	movf	___xxtofl@sign^0,w,c
  1028   001398  B4D8               	btfsc	status,2,c
  1029   00139A  EFD1  F009         	goto	u3291
  1030   00139E  EFD3  F009         	goto	u3290
  1031   0013A2                     u3291:
  1032   0013A2  EFF5  F009         	goto	l798
  1033   0013A6                     u3290:
  1034   0013A6  BE07               	btfsc	(___xxtofl@val+3)^0,7,c
  1035   0013A8  EFDA  F009         	goto	u3300
  1036   0013AC  EFD8  F009         	goto	u3301
  1037   0013B0                     u3301:
  1038   0013B0  EFF5  F009         	goto	l798
  1039   0013B4                     u3300:
  1040   0013B4  C004  F008         	movff	___xxtofl@val,??___xxtofl
  1041   0013B8  C005  F009         	movff	___xxtofl@val+1,??___xxtofl+1
  1042   0013BC  C006  F00A         	movff	___xxtofl@val+2,??___xxtofl+2
  1043   0013C0  C007  F00B         	movff	___xxtofl@val+3,??___xxtofl+3
  1044   0013C4  1E08               	comf	??___xxtofl^0,f,c
  1045   0013C6  1E09               	comf	(??___xxtofl+1)^0,f,c
  1046   0013C8  1E0A               	comf	(??___xxtofl+2)^0,f,c
  1047   0013CA  1E0B               	comf	(??___xxtofl+3)^0,f,c
  1048   0013CC  2A08               	incf	??___xxtofl^0,f,c
  1049   0013CE  0E00               	movlw	0
  1050   0013D0  2209               	addwfc	(??___xxtofl+1)^0,f,c
  1051   0013D2  220A               	addwfc	(??___xxtofl+2)^0,f,c
  1052   0013D4  220B               	addwfc	(??___xxtofl+3)^0,f,c
  1053   0013D6  C008  F00E         	movff	??___xxtofl,___xxtofl@arg
  1054   0013DA  C009  F00F         	movff	??___xxtofl+1,___xxtofl@arg+1
  1055   0013DE  C00A  F010         	movff	??___xxtofl+2,___xxtofl@arg+2
  1056   0013E2  C00B  F011         	movff	??___xxtofl+3,___xxtofl@arg+3
  1057   0013E6  EFFD  F009         	goto	l2762
  1058   0013EA                     l798:
  1059   0013EA  C004  F00E         	movff	___xxtofl@val,___xxtofl@arg
  1060   0013EE  C005  F00F         	movff	___xxtofl@val+1,___xxtofl@arg+1
  1061   0013F2  C006  F010         	movff	___xxtofl@val+2,___xxtofl@arg+2
  1062   0013F6  C007  F011         	movff	___xxtofl@val+3,___xxtofl@arg+3
  1063   0013FA                     l2762:
  1064   0013FA  5004               	movf	___xxtofl@val^0,w,c
  1065   0013FC  1005               	iorwf	(___xxtofl@val+1)^0,w,c
  1066   0013FE  1006               	iorwf	(___xxtofl@val+2)^0,w,c
  1067   001400  1007               	iorwf	(___xxtofl@val+3)^0,w,c
  1068   001402  A4D8               	btfss	status,2,c
  1069   001404  EF06  F00A         	goto	u3311
  1070   001408  EF08  F00A         	goto	u3310
  1071   00140C                     u3311:
  1072   00140C  EF12  F00A         	goto	l2768
  1073   001410                     u3310:
  1074   001410  0E00               	movlw	0
  1075   001412  6E04               	movwf	?___xxtofl^0,c
  1076   001414  0E00               	movlw	0
  1077   001416  6E05               	movwf	(?___xxtofl+1)^0,c
  1078   001418  0E00               	movlw	0
  1079   00141A  6E06               	movwf	(?___xxtofl+2)^0,c
  1080   00141C  0E00               	movlw	0
  1081   00141E  6E07               	movwf	(?___xxtofl+3)^0,c
  1082   001420  EFA3  F00A         	goto	l801
  1083   001424                     l2768:
  1084   001424  0E96               	movlw	150
  1085   001426  6E0D               	movwf	___xxtofl@exp^0,c
  1086   001428  EF1C  F00A         	goto	l2772
  1087   00142C                     l2770:
  1088   00142C  2A0D               	incf	___xxtofl@exp^0,f,c
  1089   00142E  90D8               	bcf	status,0,c
  1090   001430  3211               	rrcf	(___xxtofl@arg+3)^0,f,c
  1091   001432  3210               	rrcf	(___xxtofl@arg+2)^0,f,c
  1092   001434  320F               	rrcf	(___xxtofl@arg+1)^0,f,c
  1093   001436  320E               	rrcf	___xxtofl@arg^0,f,c
  1094   001438                     l2772:
  1095   001438  0E00               	movlw	0
  1096   00143A  140E               	andwf	___xxtofl@arg^0,w,c
  1097   00143C  6E08               	movwf	??___xxtofl^0,c
  1098   00143E  0E00               	movlw	0
  1099   001440  140F               	andwf	(___xxtofl@arg+1)^0,w,c
  1100   001442  6E09               	movwf	(??___xxtofl+1)^0,c
  1101   001444  0E00               	movlw	0
  1102   001446  1410               	andwf	(___xxtofl@arg+2)^0,w,c
  1103   001448  6E0A               	movwf	(??___xxtofl+2)^0,c
  1104   00144A  0EFE               	movlw	254
  1105   00144C  1411               	andwf	(___xxtofl@arg+3)^0,w,c
  1106   00144E  6E0B               	movwf	(??___xxtofl+3)^0,c
  1107   001450  5008               	movf	??___xxtofl^0,w,c
  1108   001452  1009               	iorwf	(??___xxtofl+1)^0,w,c
  1109   001454  100A               	iorwf	(??___xxtofl+2)^0,w,c
  1110   001456  100B               	iorwf	(??___xxtofl+3)^0,w,c
  1111   001458  A4D8               	btfss	status,2,c
  1112   00145A  EF31  F00A         	goto	u3321
  1113   00145E  EF33  F00A         	goto	u3320
  1114   001462                     u3321:
  1115   001462  EF16  F00A         	goto	l2770
  1116   001466                     u3320:
  1117   001466  EF41  F00A         	goto	l805
  1118   00146A                     l2774:
  1119   00146A  2A0D               	incf	___xxtofl@exp^0,f,c
  1120   00146C  0E01               	movlw	1
  1121   00146E  260E               	addwf	___xxtofl@arg^0,f,c
  1122   001470  0E00               	movlw	0
  1123   001472  220F               	addwfc	(___xxtofl@arg+1)^0,f,c
  1124   001474  2210               	addwfc	(___xxtofl@arg+2)^0,f,c
  1125   001476  2211               	addwfc	(___xxtofl@arg+3)^0,f,c
  1126   001478  90D8               	bcf	status,0,c
  1127   00147A  3211               	rrcf	(___xxtofl@arg+3)^0,f,c
  1128   00147C  3210               	rrcf	(___xxtofl@arg+2)^0,f,c
  1129   00147E  320F               	rrcf	(___xxtofl@arg+1)^0,f,c
  1130   001480  320E               	rrcf	___xxtofl@arg^0,f,c
  1131   001482                     l805:
  1132   001482  0E00               	movlw	0
  1133   001484  140E               	andwf	___xxtofl@arg^0,w,c
  1134   001486  6E08               	movwf	??___xxtofl^0,c
  1135   001488  0E00               	movlw	0
  1136   00148A  140F               	andwf	(___xxtofl@arg+1)^0,w,c
  1137   00148C  6E09               	movwf	(??___xxtofl+1)^0,c
  1138   00148E  0E00               	movlw	0
  1139   001490  1410               	andwf	(___xxtofl@arg+2)^0,w,c
  1140   001492  6E0A               	movwf	(??___xxtofl+2)^0,c
  1141   001494  0EFF               	movlw	255
  1142   001496  1411               	andwf	(___xxtofl@arg+3)^0,w,c
  1143   001498  6E0B               	movwf	(??___xxtofl+3)^0,c
  1144   00149A  5008               	movf	??___xxtofl^0,w,c
  1145   00149C  1009               	iorwf	(??___xxtofl+1)^0,w,c
  1146   00149E  100A               	iorwf	(??___xxtofl+2)^0,w,c
  1147   0014A0  100B               	iorwf	(??___xxtofl+3)^0,w,c
  1148   0014A2  A4D8               	btfss	status,2,c
  1149   0014A4  EF56  F00A         	goto	u3331
  1150   0014A8  EF58  F00A         	goto	u3330
  1151   0014AC                     u3331:
  1152   0014AC  EF35  F00A         	goto	l2774
  1153   0014B0                     u3330:
  1154   0014B0  EF60  F00A         	goto	l2782
  1155   0014B4                     l2780:
  1156   0014B4  060D               	decf	___xxtofl@exp^0,f,c
  1157   0014B6  90D8               	bcf	status,0,c
  1158   0014B8  360E               	rlcf	___xxtofl@arg^0,f,c
  1159   0014BA  360F               	rlcf	(___xxtofl@arg+1)^0,f,c
  1160   0014BC  3610               	rlcf	(___xxtofl@arg+2)^0,f,c
  1161   0014BE  3611               	rlcf	(___xxtofl@arg+3)^0,f,c
  1162   0014C0                     l2782:
  1163   0014C0  BE10               	btfsc	(___xxtofl@arg+2)^0,7,c
  1164   0014C2  EF65  F00A         	goto	u3341
  1165   0014C6  EF67  F00A         	goto	u3340
  1166   0014CA                     u3341:
  1167   0014CA  EF6F  F00A         	goto	l812
  1168   0014CE                     u3340:
  1169   0014CE  0E02               	movlw	2
  1170   0014D0  600D               	cpfslt	___xxtofl@exp^0,c
  1171   0014D2  EF6D  F00A         	goto	u3351
  1172   0014D6  EF6F  F00A         	goto	u3350
  1173   0014DA                     u3351:
  1174   0014DA  EF5A  F00A         	goto	l2780
  1175   0014DE                     u3350:
  1176   0014DE                     l812:
  1177   0014DE  B00D               	btfsc	___xxtofl@exp^0,0,c
  1178   0014E0  EF74  F00A         	goto	u3361
  1179   0014E4  EF76  F00A         	goto	u3360
  1180   0014E8                     u3361:
  1181   0014E8  EF77  F00A         	goto	l2788
  1182   0014EC                     u3360:
  1183   0014EC  9E10               	bcf	(___xxtofl@arg+2)^0,7,c
  1184   0014EE                     l2788:
  1185   0014EE  90D8               	bcf	status,0,c
  1186   0014F0  320D               	rrcf	___xxtofl@exp^0,f,c
  1187   0014F2  C00D  F008         	movff	___xxtofl@exp,??___xxtofl
  1188   0014F6  6A09               	clrf	(??___xxtofl+1)^0,c
  1189   0014F8  6A0A               	clrf	(??___xxtofl+2)^0,c
  1190   0014FA  6A0B               	clrf	(??___xxtofl+3)^0,c
  1191   0014FC  C008  F00B         	movff	??___xxtofl,??___xxtofl+3
  1192   001500  6A0A               	clrf	(??___xxtofl+2)^0,c
  1193   001502  6A09               	clrf	(??___xxtofl+1)^0,c
  1194   001504  6A08               	clrf	??___xxtofl^0,c
  1195   001506  5008               	movf	??___xxtofl^0,w,c
  1196   001508  120E               	iorwf	___xxtofl@arg^0,f,c
  1197   00150A  5009               	movf	(??___xxtofl+1)^0,w,c
  1198   00150C  120F               	iorwf	(___xxtofl@arg+1)^0,f,c
  1199   00150E  500A               	movf	(??___xxtofl+2)^0,w,c
  1200   001510  1210               	iorwf	(___xxtofl@arg+2)^0,f,c
  1201   001512  500B               	movf	(??___xxtofl+3)^0,w,c
  1202   001514  1211               	iorwf	(___xxtofl@arg+3)^0,f,c
  1203   001516  500C               	movf	___xxtofl@sign^0,w,c
  1204   001518  B4D8               	btfsc	status,2,c
  1205   00151A  EF91  F00A         	goto	u3371
  1206   00151E  EF93  F00A         	goto	u3370
  1207   001522                     u3371:
  1208   001522  EF9B  F00A         	goto	l2798
  1209   001526                     u3370:
  1210   001526  BE07               	btfsc	(___xxtofl@val+3)^0,7,c
  1211   001528  EF9A  F00A         	goto	u3380
  1212   00152C  EF98  F00A         	goto	u3381
  1213   001530                     u3381:
  1214   001530  EF9B  F00A         	goto	l2798
  1215   001534                     u3380:
  1216   001534  8E11               	bsf	(___xxtofl@arg+3)^0,7,c
  1217   001536                     l2798:
  1218   001536  C00E  F004         	movff	___xxtofl@arg,?___xxtofl
  1219   00153A  C00F  F005         	movff	___xxtofl@arg+1,?___xxtofl+1
  1220   00153E  C010  F006         	movff	___xxtofl@arg+2,?___xxtofl+2
  1221   001542  C011  F007         	movff	___xxtofl@arg+3,?___xxtofl+3
  1222   001546                     l801:
  1223   001546  0012               	return		;funcret
  1224   001548                     __end_of___xxtofl:
  1225                           	callstack 0
  1226                           
  1227 ;; *************** function ___fltol *****************
  1228 ;; Defined at:
  1229 ;;		line 43 in file "C:\Program Files\Microchip\xc8\v2.40\pic\sources\c99\common\fltol.c"
  1230 ;; Parameters:    Size  Location     Type
  1231 ;;  f1              4   75[COMRAM] unsigned char 
  1232 ;; Auto vars:     Size  Location     Type
  1233 ;;  exp1            1   84[COMRAM] unsigned char 
  1234 ;;  sign1           1   83[COMRAM] unsigned char 
  1235 ;; Return value:  Size  Location     Type
  1236 ;;                  4   75[COMRAM] long 
  1237 ;; Registers used:
  1238 ;;		wreg, status,2, status,0
  1239 ;; Tracked objects:
  1240 ;;		On entry : 0/0
  1241 ;;		On exit  : 0/0
  1242 ;;		Unchanged: 0/0
  1243 ;; Data sizes:     COMRAM   BANK0   BANK1   BANK2   BANK3   BANK4   BANK5   BANK6   BANK7
  1244 ;;      Params:         4       0       0       0       0       0       0       0       0
  1245 ;;      Locals:         2       0       0       0       0       0       0       0       0
  1246 ;;      Temps:          4       0       0       0       0       0       0       0       0
  1247 ;;      Totals:        10       0       0       0       0       0       0       0       0
  1248 ;;Total ram usage:       10 bytes
  1249 ;; Hardware stack levels used: 1
  1250 ;; Hardware stack levels required when called: 1
  1251 ;; This function calls:
  1252 ;;		Nothing
  1253 ;; This function is called by:
  1254 ;;		_precargas
  1255 ;; This function uses a non-reentrant model
  1256 ;;
  1257                           
  1258                           	psect	text3
  1259   001548                     __ptext3:
  1260                           	callstack 0
  1261   001548                     ___fltol:
  1262                           	callstack 28
  1263   001548  344E               	rlcf	(___fltol@f1+2)^0,w,c
  1264   00154A  344F               	rlcf	(___fltol@f1+3)^0,w,c
  1265   00154C  6E55               	movwf	___fltol@exp1^0,c
  1266   00154E  5055               	movf	___fltol@exp1^0,w,c
  1267   001550  A4D8               	btfss	status,2,c
  1268   001552  EFAD  F00A         	goto	u3221
  1269   001556  EFAF  F00A         	goto	u3220
  1270   00155A                     u3221:
  1271   00155A  EFB9  F00A         	goto	l2718
  1272   00155E                     u3220:
  1273   00155E                     l2714:
  1274   00155E  0E00               	movlw	0
  1275   001560  6E4C               	movwf	?___fltol^0,c
  1276   001562  0E00               	movlw	0
  1277   001564  6E4D               	movwf	(?___fltol+1)^0,c
  1278   001566  0E00               	movlw	0
  1279   001568  6E4E               	movwf	(?___fltol+2)^0,c
  1280   00156A  0E00               	movlw	0
  1281   00156C  6E4F               	movwf	(?___fltol+3)^0,c
  1282   00156E  EF26  F00B         	goto	l440
  1283   001572                     l2718:
  1284   001572  C04C  F050         	movff	___fltol@f1,??___fltol
  1285   001576  C04D  F051         	movff	___fltol@f1+1,??___fltol+1
  1286   00157A  C04E  F052         	movff	___fltol@f1+2,??___fltol+2
  1287   00157E  C04F  F053         	movff	___fltol@f1+3,??___fltol+3
  1288   001582  0E20               	movlw	32
  1289   001584  EFC9  F00A         	goto	u3230
  1290   001588                     u3235:
  1291   001588  90D8               	bcf	status,0,c
  1292   00158A  3253               	rrcf	(??___fltol+3)^0,f,c
  1293   00158C  3252               	rrcf	(??___fltol+2)^0,f,c
  1294   00158E  3251               	rrcf	(??___fltol+1)^0,f,c
  1295   001590  3250               	rrcf	??___fltol^0,f,c
  1296   001592                     u3230:
  1297   001592  2EE8               	decfsz	wreg,f,c
  1298   001594  EFC4  F00A         	goto	u3235
  1299   001598  5050               	movf	??___fltol^0,w,c
  1300   00159A  6E54               	movwf	___fltol@sign1^0,c
  1301   00159C  8E4E               	bsf	(___fltol@f1+2)^0,7,c
  1302   00159E  0EFF               	movlw	255
  1303   0015A0  164C               	andwf	___fltol@f1^0,f,c
  1304   0015A2  0EFF               	movlw	255
  1305   0015A4  164D               	andwf	(___fltol@f1+1)^0,f,c
  1306   0015A6  0EFF               	movlw	255
  1307   0015A8  164E               	andwf	(___fltol@f1+2)^0,f,c
  1308   0015AA  0E00               	movlw	0
  1309   0015AC  164F               	andwf	(___fltol@f1+3)^0,f,c
  1310   0015AE  0E96               	movlw	150
  1311   0015B0  5E55               	subwf	___fltol@exp1^0,f,c
  1312   0015B2  BE55               	btfsc	___fltol@exp1^0,7,c
  1313   0015B4  EFE0  F00A         	goto	u3240
  1314   0015B8  EFDE  F00A         	goto	u3241
  1315   0015BC                     u3241:
  1316   0015BC  EFF6  F00A         	goto	l2738
  1317   0015C0                     u3240:
  1318   0015C0  5055               	movf	___fltol@exp1^0,w,c
  1319   0015C2  0A80               	xorlw	128
  1320   0015C4  0F97               	addlw	151
  1321   0015C6  B0D8               	btfsc	status,0,c
  1322   0015C8  EFE8  F00A         	goto	u3251
  1323   0015CC  EFEA  F00A         	goto	u3250
  1324   0015D0                     u3251:
  1325   0015D0  EFEC  F00A         	goto	l2734
  1326   0015D4                     u3250:
  1327   0015D4  EFAF  F00A         	goto	l2714
  1328   0015D8                     l2734:
  1329   0015D8  90D8               	bcf	status,0,c
  1330   0015DA  324F               	rrcf	(___fltol@f1+3)^0,f,c
  1331   0015DC  324E               	rrcf	(___fltol@f1+2)^0,f,c
  1332   0015DE  324D               	rrcf	(___fltol@f1+1)^0,f,c
  1333   0015E0  324C               	rrcf	___fltol@f1^0,f,c
  1334   0015E2  3E55               	incfsz	___fltol@exp1^0,f,c
  1335   0015E4  EFEC  F00A         	goto	l2734
  1336   0015E8  EF0E  F00B         	goto	l2748
  1337   0015EC                     l2738:
  1338   0015EC  0E1F               	movlw	31
  1339   0015EE  6455               	cpfsgt	___fltol@exp1^0,c
  1340   0015F0  EFFC  F00A         	goto	u3261
  1341   0015F4  EFFE  F00A         	goto	u3260
  1342   0015F8                     u3261:
  1343   0015F8  EF06  F00B         	goto	l2746
  1344   0015FC                     u3260:
  1345   0015FC  EFAF  F00A         	goto	l2714
  1346   001600                     l2744:
  1347   001600  90D8               	bcf	status,0,c
  1348   001602  364C               	rlcf	___fltol@f1^0,f,c
  1349   001604  364D               	rlcf	(___fltol@f1+1)^0,f,c
  1350   001606  364E               	rlcf	(___fltol@f1+2)^0,f,c
  1351   001608  364F               	rlcf	(___fltol@f1+3)^0,f,c
  1352   00160A  0655               	decf	___fltol@exp1^0,f,c
  1353   00160C                     l2746:
  1354   00160C  5055               	movf	___fltol@exp1^0,w,c
  1355   00160E  A4D8               	btfss	status,2,c
  1356   001610  EF0C  F00B         	goto	u3271
  1357   001614  EF0E  F00B         	goto	u3270
  1358   001618                     u3271:
  1359   001618  EF00  F00B         	goto	l2744
  1360   00161C                     u3270:
  1361   00161C                     l2748:
  1362   00161C  5054               	movf	___fltol@sign1^0,w,c
  1363   00161E  B4D8               	btfsc	status,2,c
  1364   001620  EF14  F00B         	goto	u3281
  1365   001624  EF16  F00B         	goto	u3280
  1366   001628                     u3281:
  1367   001628  EF1E  F00B         	goto	l2752
  1368   00162C                     u3280:
  1369   00162C  1E4F               	comf	(___fltol@f1+3)^0,f,c
  1370   00162E  1E4E               	comf	(___fltol@f1+2)^0,f,c
  1371   001630  1E4D               	comf	(___fltol@f1+1)^0,f,c
  1372   001632  6C4C               	negf	___fltol@f1^0,c
  1373   001634  0E00               	movlw	0
  1374   001636  224D               	addwfc	(___fltol@f1+1)^0,f,c
  1375   001638  224E               	addwfc	(___fltol@f1+2)^0,f,c
  1376   00163A  224F               	addwfc	(___fltol@f1+3)^0,f,c
  1377   00163C                     l2752:
  1378   00163C  C04C  F04C         	movff	___fltol@f1,?___fltol
  1379   001640  C04D  F04D         	movff	___fltol@f1+1,?___fltol+1
  1380   001644  C04E  F04E         	movff	___fltol@f1+2,?___fltol+2
  1381   001648  C04F  F04F         	movff	___fltol@f1+3,?___fltol+3
  1382   00164C                     l440:
  1383   00164C  0012               	return		;funcret
  1384   00164E                     __end_of___fltol:
  1385                           	callstack 0
  1386                           
  1387 ;; *************** function ___flsub *****************
  1388 ;; Defined at:
  1389 ;;		line 245 in file "C:\Program Files\Microchip\xc8\v2.40\pic\sources\c99\common\sprcadd.c"
  1390 ;; Parameters:    Size  Location     Type
  1391 ;;  b               4   67[COMRAM] long 
  1392 ;;  a               4   71[COMRAM] long 
  1393 ;; Auto vars:     Size  Location     Type
  1394 ;;		None
  1395 ;; Return value:  Size  Location     Type
  1396 ;;                  4   67[COMRAM] long 
  1397 ;; Registers used:
  1398 ;;		wreg, status,2, status,0, cstack
  1399 ;; Tracked objects:
  1400 ;;		On entry : 0/0
  1401 ;;		On exit  : 0/0
  1402 ;;		Unchanged: 0/0
  1403 ;; Data sizes:     COMRAM   BANK0   BANK1   BANK2   BANK3   BANK4   BANK5   BANK6   BANK7
  1404 ;;      Params:         8       0       0       0       0       0       0       0       0
  1405 ;;      Locals:         0       0       0       0       0       0       0       0       0
  1406 ;;      Temps:          0       0       0       0       0       0       0       0       0
  1407 ;;      Totals:         8       0       0       0       0       0       0       0       0
  1408 ;;Total ram usage:        8 bytes
  1409 ;; Hardware stack levels used: 1
  1410 ;; Hardware stack levels required when called: 2
  1411 ;; This function calls:
  1412 ;;		___fladd
  1413 ;; This function is called by:
  1414 ;;		_precargas
  1415 ;; This function uses a non-reentrant model
  1416 ;;
  1417                           
  1418                           	psect	text4
  1419   00164E                     __ptext4:
  1420                           	callstack 0
  1421   00164E                     ___flsub:
  1422                           	callstack 27
  1423   00164E  0E00               	movlw	0
  1424   001650  1A48               	xorwf	___flsub@a^0,f,c
  1425   001652  0E00               	movlw	0
  1426   001654  1A49               	xorwf	(___flsub@a+1)^0,f,c
  1427   001656  0E00               	movlw	0
  1428   001658  1A4A               	xorwf	(___flsub@a+2)^0,f,c
  1429   00165A  0E80               	movlw	128
  1430   00165C  1A4B               	xorwf	(___flsub@a+3)^0,f,c
  1431   00165E  C044  F004         	movff	___flsub@b,___fladd@b
  1432   001662  C045  F005         	movff	___flsub@b+1,___fladd@b+1
  1433   001666  C046  F006         	movff	___flsub@b+2,___fladd@b+2
  1434   00166A  C047  F007         	movff	___flsub@b+3,___fladd@b+3
  1435   00166E  C048  F008         	movff	___flsub@a,___fladd@a
  1436   001672  C049  F009         	movff	___flsub@a+1,___fladd@a+1
  1437   001676  C04A  F00A         	movff	___flsub@a+2,___fladd@a+2
  1438   00167A  C04B  F00B         	movff	___flsub@a+3,___fladd@a+3
  1439   00167E  EC09  F000         	call	___fladd	;wreg free
  1440   001682  C004  F044         	movff	?___fladd,?___flsub
  1441   001686  C005  F045         	movff	?___fladd+1,?___flsub+1
  1442   00168A  C006  F046         	movff	?___fladd+2,?___flsub+2
  1443   00168E  C007  F047         	movff	?___fladd+3,?___flsub+3
  1444   001692  0012               	return		;funcret
  1445   001694                     __end_of___flsub:
  1446                           	callstack 0
  1447                           
  1448 ;; *************** function ___fladd *****************
  1449 ;; Defined at:
  1450 ;;		line 10 in file "C:\Program Files\Microchip\xc8\v2.40\pic\sources\c99\common\sprcadd.c"
  1451 ;; Parameters:    Size  Location     Type
  1452 ;;  b               4    3[COMRAM] long 
  1453 ;;  a               4    7[COMRAM] long 
  1454 ;; Auto vars:     Size  Location     Type
  1455 ;;  grs             1   18[COMRAM] unsigned char 
  1456 ;;  bexp            1   17[COMRAM] unsigned char 
  1457 ;;  aexp            1   16[COMRAM] unsigned char 
  1458 ;;  signs           1   15[COMRAM] unsigned char 
  1459 ;; Return value:  Size  Location     Type
  1460 ;;                  4    3[COMRAM] unsigned char 
  1461 ;; Registers used:
  1462 ;;		wreg, status,2, status,0
  1463 ;; Tracked objects:
  1464 ;;		On entry : 0/0
  1465 ;;		On exit  : 0/0
  1466 ;;		Unchanged: 0/0
  1467 ;; Data sizes:     COMRAM   BANK0   BANK1   BANK2   BANK3   BANK4   BANK5   BANK6   BANK7
  1468 ;;      Params:         8       0       0       0       0       0       0       0       0
  1469 ;;      Locals:         4       0       0       0       0       0       0       0       0
  1470 ;;      Temps:          4       0       0       0       0       0       0       0       0
  1471 ;;      Totals:        16       0       0       0       0       0       0       0       0
  1472 ;;Total ram usage:       16 bytes
  1473 ;; Hardware stack levels used: 1
  1474 ;; Hardware stack levels required when called: 1
  1475 ;; This function calls:
  1476 ;;		Nothing
  1477 ;; This function is called by:
  1478 ;;		___flsub
  1479 ;; This function uses a non-reentrant model
  1480 ;;
  1481                           
  1482                           	psect	text5
  1483   000012                     __ptext5:
  1484                           	callstack 0
  1485   000012                     ___fladd:
  1486                           	callstack 27
  1487   000012  5007               	movf	(___fladd@b+3)^0,w,c
  1488   000014  0B80               	andlw	128
  1489   000016  6E10               	movwf	___fladd@signs^0,c
  1490   000018  5007               	movf	(___fladd@b+3)^0,w,c
  1491   00001A  2407               	addwf	(___fladd@b+3)^0,w,c
  1492   00001C  6E12               	movwf	___fladd@bexp^0,c
  1493   00001E  AE06               	btfss	(___fladd@b+2)^0,7,c
  1494   000020  EF14  F000         	goto	u2411
  1495   000024  EF16  F000         	goto	u2410
  1496   000028                     u2411:
  1497   000028  EF17  F000         	goto	l2242
  1498   00002C                     u2410:
  1499   00002C  8012               	bsf	___fladd@bexp^0,0,c
  1500   00002E                     l2242:
  1501   00002E  5012               	movf	___fladd@bexp^0,w,c
  1502   000030  B4D8               	btfsc	status,2,c
  1503   000032  EF1D  F000         	goto	u2421
  1504   000036  EF1F  F000         	goto	u2420
  1505   00003A                     u2421:
  1506   00003A  EF34  F000         	goto	l2252
  1507   00003E                     u2420:
  1508   00003E  2812               	incf	___fladd@bexp^0,w,c
  1509   000040  A4D8               	btfss	status,2,c
  1510   000042  EF25  F000         	goto	u2431
  1511   000046  EF27  F000         	goto	u2430
  1512   00004A                     u2431:
  1513   00004A  EF2F  F000         	goto	l2248
  1514   00004E                     u2430:
  1515   00004E  0E00               	movlw	0
  1516   000050  6E04               	movwf	___fladd@b^0,c
  1517   000052  0E00               	movlw	0
  1518   000054  6E05               	movwf	(___fladd@b+1)^0,c
  1519   000056  0E00               	movlw	0
  1520   000058  6E06               	movwf	(___fladd@b+2)^0,c
  1521   00005A  0E00               	movlw	0
  1522   00005C  6E07               	movwf	(___fladd@b+3)^0,c
  1523   00005E                     l2248:
  1524   00005E  8E06               	bsf	(___fladd@b+2)^0,7,c
  1525   000060  0E00               	movlw	0
  1526   000062  6E07               	movwf	(___fladd@b+3)^0,c
  1527   000064  EF3C  F000         	goto	l2254
  1528   000068                     l2252:
  1529   000068  0E00               	movlw	0
  1530   00006A  6E04               	movwf	___fladd@b^0,c
  1531   00006C  0E00               	movlw	0
  1532   00006E  6E05               	movwf	(___fladd@b+1)^0,c
  1533   000070  0E00               	movlw	0
  1534   000072  6E06               	movwf	(___fladd@b+2)^0,c
  1535   000074  0E00               	movlw	0
  1536   000076  6E07               	movwf	(___fladd@b+3)^0,c
  1537   000078                     l2254:
  1538   000078  500B               	movf	(___fladd@a+3)^0,w,c
  1539   00007A  0B80               	andlw	128
  1540   00007C  6E11               	movwf	___fladd@aexp^0,c
  1541   00007E  5010               	movf	___fladd@signs^0,w,c
  1542   000080  1811               	xorwf	___fladd@aexp^0,w,c
  1543   000082  B4D8               	btfsc	status,2,c
  1544   000084  EF46  F000         	goto	u2441
  1545   000088  EF48  F000         	goto	u2440
  1546   00008C                     u2441:
  1547   00008C  EF49  F000         	goto	l2260
  1548   000090                     u2440:
  1549   000090  8C10               	bsf	___fladd@signs^0,6,c
  1550   000092                     l2260:
  1551   000092  500B               	movf	(___fladd@a+3)^0,w,c
  1552   000094  240B               	addwf	(___fladd@a+3)^0,w,c
  1553   000096  6E11               	movwf	___fladd@aexp^0,c
  1554   000098  AE0A               	btfss	(___fladd@a+2)^0,7,c
  1555   00009A  EF51  F000         	goto	u2451
  1556   00009E  EF53  F000         	goto	u2450
  1557   0000A2                     u2451:
  1558   0000A2  EF54  F000         	goto	l2266
  1559   0000A6                     u2450:
  1560   0000A6  8011               	bsf	___fladd@aexp^0,0,c
  1561   0000A8                     l2266:
  1562   0000A8  5011               	movf	___fladd@aexp^0,w,c
  1563   0000AA  B4D8               	btfsc	status,2,c
  1564   0000AC  EF5A  F000         	goto	u2461
  1565   0000B0  EF5C  F000         	goto	u2460
  1566   0000B4                     u2461:
  1567   0000B4  EF71  F000         	goto	l2276
  1568   0000B8                     u2460:
  1569   0000B8  2811               	incf	___fladd@aexp^0,w,c
  1570   0000BA  A4D8               	btfss	status,2,c
  1571   0000BC  EF62  F000         	goto	u2471
  1572   0000C0  EF64  F000         	goto	u2470
  1573   0000C4                     u2471:
  1574   0000C4  EF6C  F000         	goto	l2272
  1575   0000C8                     u2470:
  1576   0000C8  0E00               	movlw	0
  1577   0000CA  6E08               	movwf	___fladd@a^0,c
  1578   0000CC  0E00               	movlw	0
  1579   0000CE  6E09               	movwf	(___fladd@a+1)^0,c
  1580   0000D0  0E00               	movlw	0
  1581   0000D2  6E0A               	movwf	(___fladd@a+2)^0,c
  1582   0000D4  0E00               	movlw	0
  1583   0000D6  6E0B               	movwf	(___fladd@a+3)^0,c
  1584   0000D8                     l2272:
  1585   0000D8  8E0A               	bsf	(___fladd@a+2)^0,7,c
  1586   0000DA  0E00               	movlw	0
  1587   0000DC  6E0B               	movwf	(___fladd@a+3)^0,c
  1588   0000DE  EF79  F000         	goto	l2278
  1589   0000E2                     l2276:
  1590   0000E2  0E00               	movlw	0
  1591   0000E4  6E08               	movwf	___fladd@a^0,c
  1592   0000E6  0E00               	movlw	0
  1593   0000E8  6E09               	movwf	(___fladd@a+1)^0,c
  1594   0000EA  0E00               	movlw	0
  1595   0000EC  6E0A               	movwf	(___fladd@a+2)^0,c
  1596   0000EE  0E00               	movlw	0
  1597   0000F0  6E0B               	movwf	(___fladd@a+3)^0,c
  1598   0000F2                     l2278:
  1599   0000F2  5012               	movf	___fladd@bexp^0,w,c
  1600   0000F4  5C11               	subwf	___fladd@aexp^0,w,c
  1601   0000F6  B0D8               	btfsc	status,0,c
  1602   0000F8  EF80  F000         	goto	u2481
  1603   0000FC  EF82  F000         	goto	u2480
  1604   000100                     u2481:
  1605   000100  EFA9  F000         	goto	l2314
  1606   000104                     u2480:
  1607   000104  AC10               	btfss	___fladd@signs^0,6,c
  1608   000106  EF87  F000         	goto	u2491
  1609   00010A  EF89  F000         	goto	u2490
  1610   00010E                     u2491:
  1611   00010E  EF8B  F000         	goto	l2284
  1612   000112                     u2490:
  1613   000112  0E80               	movlw	128
  1614   000114  1A10               	xorwf	___fladd@signs^0,f,c
  1615   000116                     l2284:
  1616   000116  C012  F013         	movff	___fladd@bexp,___fladd@grs
  1617   00011A  C011  F012         	movff	___fladd@aexp,___fladd@bexp
  1618   00011E  C013  F011         	movff	___fladd@grs,___fladd@aexp
  1619   000122  C004  F013         	movff	___fladd@b,___fladd@grs
  1620   000126  C008  F004         	movff	___fladd@a,___fladd@b
  1621   00012A  C013  F008         	movff	___fladd@grs,___fladd@a
  1622   00012E  C005  F013         	movff	___fladd@b+1,___fladd@grs
  1623   000132  C009  F005         	movff	___fladd@a+1,___fladd@b+1
  1624   000136  C013  F009         	movff	___fladd@grs,___fladd@a+1
  1625   00013A  C006  F013         	movff	___fladd@b+2,___fladd@grs
  1626   00013E  C00A  F006         	movff	___fladd@a+2,___fladd@b+2
  1627   000142  C013  F00A         	movff	___fladd@grs,___fladd@a+2
  1628   000146  C007  F013         	movff	___fladd@b+3,___fladd@grs
  1629   00014A  C00B  F007         	movff	___fladd@a+3,___fladd@b+3
  1630   00014E  C013  F00B         	movff	___fladd@grs,___fladd@a+3
  1631   000152                     l2314:
  1632   000152  0E00               	movlw	0
  1633   000154  6E13               	movwf	___fladd@grs^0,c
  1634   000156  5012               	movf	___fladd@bexp^0,w,c
  1635   000158  C011  F00C         	movff	___fladd@aexp,??___fladd
  1636   00015C  6A0D               	clrf	(??___fladd+1)^0,c
  1637   00015E  5E0C               	subwf	??___fladd^0,f,c
  1638   000160  0E00               	movlw	0
  1639   000162  5A0D               	subwfb	(??___fladd+1)^0,f,c
  1640   000164  BE0D               	btfsc	(??___fladd+1)^0,7,c
  1641   000166  EFBE  F000         	goto	u2501
  1642   00016A  500D               	movf	(??___fladd+1)^0,w,c
  1643   00016C  E109               	bnz	u2500
  1644   00016E  0E1A               	movlw	26
  1645   000170  5C0C               	subwf	??___fladd^0,w,c
  1646   000172  A0D8               	btfss	status,0,c
  1647   000174  EFBE  F000         	goto	u2501
  1648   000178  EFC0  F000         	goto	u2500
  1649   00017C                     u2501:
  1650   00017C  EFF7  F000         	goto	l672
  1651   000180                     u2500:
  1652   000180  5004               	movf	___fladd@b^0,w,c
  1653   000182  1005               	iorwf	(___fladd@b+1)^0,w,c
  1654   000184  1006               	iorwf	(___fladd@b+2)^0,w,c
  1655   000186  1007               	iorwf	(___fladd@b+3)^0,w,c
  1656   000188  A4D8               	btfss	status,2,c
  1657   00018A  EFC9  F000         	goto	u2511
  1658   00018E  EFCC  F000         	goto	u2510
  1659   000192                     u2511:
  1660   000192  0E01               	movlw	1
  1661   000194  EFCD  F000         	goto	u2520
  1662   000198                     u2510:
  1663   000198  0E00               	movlw	0
  1664   00019A                     u2520:
  1665   00019A  6E13               	movwf	___fladd@grs^0,c
  1666   00019C  0E00               	movlw	0
  1667   00019E  6E04               	movwf	___fladd@b^0,c
  1668   0001A0  0E00               	movlw	0
  1669   0001A2  6E05               	movwf	(___fladd@b+1)^0,c
  1670   0001A4  0E00               	movlw	0
  1671   0001A6  6E06               	movwf	(___fladd@b+2)^0,c
  1672   0001A8  0E00               	movlw	0
  1673   0001AA  6E07               	movwf	(___fladd@b+3)^0,c
  1674   0001AC  C011  F012         	movff	___fladd@aexp,___fladd@bexp
  1675   0001B0  EF00  F001         	goto	l671
  1676   0001B4                     l673:
  1677   0001B4  A013               	btfss	___fladd@grs^0,0,c
  1678   0001B6  EFDF  F000         	goto	u2531
  1679   0001BA  EFE1  F000         	goto	u2530
  1680   0001BE                     u2531:
  1681   0001BE  EFE7  F000         	goto	l2326
  1682   0001C2                     u2530:
  1683   0001C2  90D8               	bcf	status,0,c
  1684   0001C4  3013               	rrcf	___fladd@grs^0,w,c
  1685   0001C6  0901               	iorlw	1
  1686   0001C8  6E13               	movwf	___fladd@grs^0,c
  1687   0001CA  EFE9  F000         	goto	l2328
  1688   0001CE                     l2326:
  1689   0001CE  90D8               	bcf	status,0,c
  1690   0001D0  3213               	rrcf	___fladd@grs^0,f,c
  1691   0001D2                     l2328:
  1692   0001D2  A004               	btfss	___fladd@b^0,0,c
  1693   0001D4  EFEE  F000         	goto	u2541
  1694   0001D8  EFF0  F000         	goto	u2540
  1695   0001DC                     u2541:
  1696   0001DC  EFF1  F000         	goto	l2332
  1697   0001E0                     u2540:
  1698   0001E0  8E13               	bsf	___fladd@grs^0,7,c
  1699   0001E2                     l2332:
  1700   0001E2  3407               	rlcf	(___fladd@b+3)^0,w,c
  1701   0001E4  3207               	rrcf	(___fladd@b+3)^0,f,c
  1702   0001E6  3206               	rrcf	(___fladd@b+2)^0,f,c
  1703   0001E8  3205               	rrcf	(___fladd@b+1)^0,f,c
  1704   0001EA  3204               	rrcf	___fladd@b^0,f,c
  1705   0001EC  2A12               	incf	___fladd@bexp^0,f,c
  1706   0001EE                     l672:
  1707   0001EE  5011               	movf	___fladd@aexp^0,w,c
  1708   0001F0  5C12               	subwf	___fladd@bexp^0,w,c
  1709   0001F2  A0D8               	btfss	status,0,c
  1710   0001F4  EFFE  F000         	goto	u2551
  1711   0001F8  EF00  F001         	goto	u2550
  1712   0001FC                     u2551:
  1713   0001FC  EFDA  F000         	goto	l673
  1714   000200                     u2550:
  1715   000200                     l671:
  1716   000200  BC10               	btfsc	___fladd@signs^0,6,c
  1717   000202  EF05  F001         	goto	u2561
  1718   000206  EF07  F001         	goto	u2560
  1719   00020A                     u2561:
  1720   00020A  EF47  F001         	goto	l2360
  1721   00020E                     u2560:
  1722   00020E  5012               	movf	___fladd@bexp^0,w,c
  1723   000210  A4D8               	btfss	status,2,c
  1724   000212  EF0D  F001         	goto	u2571
  1725   000216  EF0F  F001         	goto	u2570
  1726   00021A                     u2571:
  1727   00021A  EF19  F001         	goto	l2342
  1728   00021E                     u2570:
  1729   00021E  0E00               	movlw	0
  1730   000220  6E04               	movwf	?___fladd^0,c
  1731   000222  0E00               	movlw	0
  1732   000224  6E05               	movwf	(?___fladd+1)^0,c
  1733   000226  0E00               	movlw	0
  1734   000228  6E06               	movwf	(?___fladd+2)^0,c
  1735   00022A  0E00               	movlw	0
  1736   00022C  6E07               	movwf	(?___fladd+3)^0,c
  1737   00022E  EF68  F002         	goto	l680
  1738   000232                     l2342:
  1739   000232  5008               	movf	___fladd@a^0,w,c
  1740   000234  2604               	addwf	___fladd@b^0,f,c
  1741   000236  5009               	movf	(___fladd@a+1)^0,w,c
  1742   000238  2205               	addwfc	(___fladd@b+1)^0,f,c
  1743   00023A  500A               	movf	(___fladd@a+2)^0,w,c
  1744   00023C  2206               	addwfc	(___fladd@b+2)^0,f,c
  1745   00023E  500B               	movf	(___fladd@a+3)^0,w,c
  1746   000240  2207               	addwfc	(___fladd@b+3)^0,f,c
  1747   000242  A007               	btfss	(___fladd@b+3)^0,0,c
  1748   000244  EF26  F001         	goto	u2581
  1749   000248  EF28  F001         	goto	u2580
  1750   00024C                     u2581:
  1751   00024C  EFD4  F001         	goto	l2396
  1752   000250                     u2580:
  1753   000250  A013               	btfss	___fladd@grs^0,0,c
  1754   000252  EF2D  F001         	goto	u2591
  1755   000256  EF2F  F001         	goto	u2590
  1756   00025A                     u2591:
  1757   00025A  EF35  F001         	goto	l2350
  1758   00025E                     u2590:
  1759   00025E  90D8               	bcf	status,0,c
  1760   000260  3013               	rrcf	___fladd@grs^0,w,c
  1761   000262  0901               	iorlw	1
  1762   000264  6E13               	movwf	___fladd@grs^0,c
  1763   000266  EF37  F001         	goto	l2352
  1764   00026A                     l2350:
  1765   00026A  90D8               	bcf	status,0,c
  1766   00026C  3213               	rrcf	___fladd@grs^0,f,c
  1767   00026E                     l2352:
  1768   00026E  A004               	btfss	___fladd@b^0,0,c
  1769   000270  EF3C  F001         	goto	u2601
  1770   000274  EF3E  F001         	goto	u2600
  1771   000278                     u2601:
  1772   000278  EF3F  F001         	goto	l2356
  1773   00027C                     u2600:
  1774   00027C  8E13               	bsf	___fladd@grs^0,7,c
  1775   00027E                     l2356:
  1776   00027E  3407               	rlcf	(___fladd@b+3)^0,w,c
  1777   000280  3207               	rrcf	(___fladd@b+3)^0,f,c
  1778   000282  3206               	rrcf	(___fladd@b+2)^0,f,c
  1779   000284  3205               	rrcf	(___fladd@b+1)^0,f,c
  1780   000286  3204               	rrcf	___fladd@b^0,f,c
  1781   000288  2A12               	incf	___fladd@bexp^0,f,c
  1782   00028A  EFD4  F001         	goto	l2396
  1783   00028E                     l2360:
  1784   00028E  5008               	movf	___fladd@a^0,w,c
  1785   000290  5C04               	subwf	___fladd@b^0,w,c
  1786   000292  5009               	movf	(___fladd@a+1)^0,w,c
  1787   000294  5805               	subwfb	(___fladd@b+1)^0,w,c
  1788   000296  500A               	movf	(___fladd@a+2)^0,w,c
  1789   000298  5806               	subwfb	(___fladd@b+2)^0,w,c
  1790   00029A  5007               	movf	(___fladd@b+3)^0,w,c
  1791   00029C  0A80               	xorlw	128
  1792   00029E  6E0C               	movwf	??___fladd^0,c
  1793   0002A0  500B               	movf	(___fladd@a+3)^0,w,c
  1794   0002A2  0A80               	xorlw	128
  1795   0002A4  580C               	subwfb	??___fladd^0,w,c
  1796   0002A6  B0D8               	btfsc	status,0,c
  1797   0002A8  EF58  F001         	goto	u2611
  1798   0002AC  EF5A  F001         	goto	u2610
  1799   0002B0                     u2611:
  1800   0002B0  EF85  F001         	goto	l2370
  1801   0002B4                     u2610:
  1802   0002B4  5004               	movf	___fladd@b^0,w,c
  1803   0002B6  5C08               	subwf	___fladd@a^0,w,c
  1804   0002B8  6E0C               	movwf	??___fladd^0,c
  1805   0002BA  5005               	movf	(___fladd@b+1)^0,w,c
  1806   0002BC  5809               	subwfb	(___fladd@a+1)^0,w,c
  1807   0002BE  6E0D               	movwf	(??___fladd+1)^0,c
  1808   0002C0  5006               	movf	(___fladd@b+2)^0,w,c
  1809   0002C2  580A               	subwfb	(___fladd@a+2)^0,w,c
  1810   0002C4  6E0E               	movwf	(??___fladd+2)^0,c
  1811   0002C6  5007               	movf	(___fladd@b+3)^0,w,c
  1812   0002C8  580B               	subwfb	(___fladd@a+3)^0,w,c
  1813   0002CA  6E0F               	movwf	(??___fladd+3)^0,c
  1814   0002CC  0EFF               	movlw	255
  1815   0002CE  240C               	addwf	??___fladd^0,w,c
  1816   0002D0  6E04               	movwf	___fladd@b^0,c
  1817   0002D2  0EFF               	movlw	255
  1818   0002D4  200D               	addwfc	(??___fladd+1)^0,w,c
  1819   0002D6  6E05               	movwf	(___fladd@b+1)^0,c
  1820   0002D8  0EFF               	movlw	255
  1821   0002DA  200E               	addwfc	(??___fladd+2)^0,w,c
  1822   0002DC  6E06               	movwf	(___fladd@b+2)^0,c
  1823   0002DE  0EFF               	movlw	255
  1824   0002E0  200F               	addwfc	(??___fladd+3)^0,w,c
  1825   0002E2  6E07               	movwf	(___fladd@b+3)^0,c
  1826   0002E4  0E80               	movlw	128
  1827   0002E6  1A10               	xorwf	___fladd@signs^0,f,c
  1828   0002E8  6C13               	negf	___fladd@grs^0,c
  1829   0002EA  5013               	movf	___fladd@grs^0,w,c
  1830   0002EC  A4D8               	btfss	status,2,c
  1831   0002EE  EF7B  F001         	goto	u2621
  1832   0002F2  EF7D  F001         	goto	u2620
  1833   0002F6                     u2621:
  1834   0002F6  EF8D  F001         	goto	l688
  1835   0002FA                     u2620:
  1836   0002FA  0E01               	movlw	1
  1837   0002FC  2604               	addwf	___fladd@b^0,f,c
  1838   0002FE  0E00               	movlw	0
  1839   000300  2205               	addwfc	(___fladd@b+1)^0,f,c
  1840   000302  2206               	addwfc	(___fladd@b+2)^0,f,c
  1841   000304  2207               	addwfc	(___fladd@b+3)^0,f,c
  1842   000306  EF8D  F001         	goto	l688
  1843   00030A                     l2370:
  1844   00030A  5008               	movf	___fladd@a^0,w,c
  1845   00030C  5E04               	subwf	___fladd@b^0,f,c
  1846   00030E  5009               	movf	(___fladd@a+1)^0,w,c
  1847   000310  5A05               	subwfb	(___fladd@b+1)^0,f,c
  1848   000312  500A               	movf	(___fladd@a+2)^0,w,c
  1849   000314  5A06               	subwfb	(___fladd@b+2)^0,f,c
  1850   000316  500B               	movf	(___fladd@a+3)^0,w,c
  1851   000318  5A07               	subwfb	(___fladd@b+3)^0,f,c
  1852   00031A                     l688:
  1853   00031A  5004               	movf	___fladd@b^0,w,c
  1854   00031C  1005               	iorwf	(___fladd@b+1)^0,w,c
  1855   00031E  1006               	iorwf	(___fladd@b+2)^0,w,c
  1856   000320  1007               	iorwf	(___fladd@b+3)^0,w,c
  1857   000322  A4D8               	btfss	status,2,c
  1858   000324  EF96  F001         	goto	u2631
  1859   000328  EF98  F001         	goto	u2630
  1860   00032C                     u2631:
  1861   00032C  EFCD  F001         	goto	l2394
  1862   000330                     u2630:
  1863   000330  5013               	movf	___fladd@grs^0,w,c
  1864   000332  A4D8               	btfss	status,2,c
  1865   000334  EF9E  F001         	goto	u2641
  1866   000338  EFA0  F001         	goto	u2640
  1867   00033C                     u2641:
  1868   00033C  EFCD  F001         	goto	l2394
  1869   000340                     u2640:
  1870   000340  0E00               	movlw	0
  1871   000342  6E04               	movwf	?___fladd^0,c
  1872   000344  0E00               	movlw	0
  1873   000346  6E05               	movwf	(?___fladd+1)^0,c
  1874   000348  0E00               	movlw	0
  1875   00034A  6E06               	movwf	(?___fladd+2)^0,c
  1876   00034C  0E00               	movlw	0
  1877   00034E  6E07               	movwf	(?___fladd+3)^0,c
  1878   000350  EF68  F002         	goto	l680
  1879   000354                     l2378:
  1880   000354  90D8               	bcf	status,0,c
  1881   000356  3604               	rlcf	___fladd@b^0,f,c
  1882   000358  3605               	rlcf	(___fladd@b+1)^0,f,c
  1883   00035A  3606               	rlcf	(___fladd@b+2)^0,f,c
  1884   00035C  3607               	rlcf	(___fladd@b+3)^0,f,c
  1885   00035E  AE13               	btfss	___fladd@grs^0,7,c
  1886   000360  EFB4  F001         	goto	u2651
  1887   000364  EFB6  F001         	goto	u2650
  1888   000368                     u2651:
  1889   000368  EFB7  F001         	goto	l2384
  1890   00036C                     u2650:
  1891   00036C  8004               	bsf	___fladd@b^0,0,c
  1892   00036E                     l2384:
  1893   00036E  A013               	btfss	___fladd@grs^0,0,c
  1894   000370  EFBC  F001         	goto	u2661
  1895   000374  EFBE  F001         	goto	u2660
  1896   000378                     u2661:
  1897   000378  EFC2  F001         	goto	l2388
  1898   00037C                     u2660:
  1899   00037C  80D8               	bsf	status,0,c
  1900   00037E  3613               	rlcf	___fladd@grs^0,f,c
  1901   000380  EFC4  F001         	goto	l2390
  1902   000384                     l2388:
  1903   000384  90D8               	bcf	status,0,c
  1904   000386  3613               	rlcf	___fladd@grs^0,f,c
  1905   000388                     l2390:
  1906   000388  5012               	movf	___fladd@bexp^0,w,c
  1907   00038A  B4D8               	btfsc	status,2,c
  1908   00038C  EFCA  F001         	goto	u2671
  1909   000390  EFCC  F001         	goto	u2670
  1910   000394                     u2671:
  1911   000394  EFCD  F001         	goto	l2394
  1912   000398                     u2670:
  1913   000398  0612               	decf	___fladd@bexp^0,f,c
  1914   00039A                     l2394:
  1915   00039A  AE06               	btfss	(___fladd@b+2)^0,7,c
  1916   00039C  EFD2  F001         	goto	u2681
  1917   0003A0  EFD4  F001         	goto	u2680
  1918   0003A4                     u2681:
  1919   0003A4  EFAA  F001         	goto	l2378
  1920   0003A8                     u2680:
  1921   0003A8                     l2396:
  1922   0003A8  0E00               	movlw	0
  1923   0003AA  6E11               	movwf	___fladd@aexp^0,c
  1924   0003AC  AE13               	btfss	___fladd@grs^0,7,c
  1925   0003AE  EFDB  F001         	goto	u2691
  1926   0003B2  EFDD  F001         	goto	u2690
  1927   0003B6                     u2691:
  1928   0003B6  EFF5  F001         	goto	l697
  1929   0003BA                     u2690:
  1930   0003BA  C013  F00C         	movff	___fladd@grs,??___fladd
  1931   0003BE  0E7F               	movlw	127
  1932   0003C0  160C               	andwf	??___fladd^0,f,c
  1933   0003C2  B4D8               	btfsc	status,2,c
  1934   0003C4  EFE6  F001         	goto	u2701
  1935   0003C8  EFE8  F001         	goto	u2700
  1936   0003CC                     u2701:
  1937   0003CC  EFEC  F001         	goto	l698
  1938   0003D0                     u2700:
  1939   0003D0                     l2402:
  1940   0003D0  0E01               	movlw	1
  1941   0003D2  6E11               	movwf	___fladd@aexp^0,c
  1942   0003D4  EFF5  F001         	goto	l697
  1943   0003D8                     l698:
  1944   0003D8  A004               	btfss	___fladd@b^0,0,c
  1945   0003DA  EFF1  F001         	goto	u2711
  1946   0003DE  EFF3  F001         	goto	u2710
  1947   0003E2                     u2711:
  1948   0003E2  EFF5  F001         	goto	l697
  1949   0003E6                     u2710:
  1950   0003E6  EFE8  F001         	goto	l2402
  1951   0003EA                     l697:
  1952   0003EA  5011               	movf	___fladd@aexp^0,w,c
  1953   0003EC  B4D8               	btfsc	status,2,c
  1954   0003EE  EFFB  F001         	goto	u2721
  1955   0003F2  EFFD  F001         	goto	u2720
  1956   0003F6                     u2721:
  1957   0003F6  EF28  F002         	goto	l2414
  1958   0003FA                     u2720:
  1959   0003FA  0E01               	movlw	1
  1960   0003FC  2604               	addwf	___fladd@b^0,f,c
  1961   0003FE  0E00               	movlw	0
  1962   000400  2205               	addwfc	(___fladd@b+1)^0,f,c
  1963   000402  2206               	addwfc	(___fladd@b+2)^0,f,c
  1964   000404  2207               	addwfc	(___fladd@b+3)^0,f,c
  1965   000406  A007               	btfss	(___fladd@b+3)^0,0,c
  1966   000408  EF08  F002         	goto	u2731
  1967   00040C  EF0A  F002         	goto	u2730
  1968   000410                     u2731:
  1969   000410  EF28  F002         	goto	l2414
  1970   000414                     u2730:
  1971   000414  C004  F00C         	movff	___fladd@b,??___fladd
  1972   000418  C005  F00D         	movff	___fladd@b+1,??___fladd+1
  1973   00041C  C006  F00E         	movff	___fladd@b+2,??___fladd+2
  1974   000420  C007  F00F         	movff	___fladd@b+3,??___fladd+3
  1975   000424  340F               	rlcf	(??___fladd+3)^0,w,c
  1976   000426  320F               	rrcf	(??___fladd+3)^0,f,c
  1977   000428  320E               	rrcf	(??___fladd+2)^0,f,c
  1978   00042A  320D               	rrcf	(??___fladd+1)^0,f,c
  1979   00042C  320C               	rrcf	??___fladd^0,f,c
  1980   00042E  C00C  F004         	movff	??___fladd,___fladd@b
  1981   000432  C00D  F005         	movff	??___fladd+1,___fladd@b+1
  1982   000436  C00E  F006         	movff	??___fladd+2,___fladd@b+2
  1983   00043A  C00F  F007         	movff	??___fladd+3,___fladd@b+3
  1984   00043E  2812               	incf	___fladd@bexp^0,w,c
  1985   000440  B4D8               	btfsc	status,2,c
  1986   000442  EF25  F002         	goto	u2741
  1987   000446  EF27  F002         	goto	u2740
  1988   00044A                     u2741:
  1989   00044A  EF28  F002         	goto	l2414
  1990   00044E                     u2740:
  1991   00044E  2A12               	incf	___fladd@bexp^0,f,c
  1992   000450                     l2414:
  1993   000450  2812               	incf	___fladd@bexp^0,w,c
  1994   000452  B4D8               	btfsc	status,2,c
  1995   000454  EF2E  F002         	goto	u2751
  1996   000458  EF30  F002         	goto	u2750
  1997   00045C                     u2751:
  1998   00045C  EF38  F002         	goto	l2418
  1999   000460                     u2750:
  2000   000460  5012               	movf	___fladd@bexp^0,w,c
  2001   000462  A4D8               	btfss	status,2,c
  2002   000464  EF36  F002         	goto	u2761
  2003   000468  EF38  F002         	goto	u2760
  2004   00046C                     u2761:
  2005   00046C  EF4A  F002         	goto	l2422
  2006   000470                     u2760:
  2007   000470                     l2418:
  2008   000470  0E00               	movlw	0
  2009   000472  6E04               	movwf	___fladd@b^0,c
  2010   000474  0E00               	movlw	0
  2011   000476  6E05               	movwf	(___fladd@b+1)^0,c
  2012   000478  0E00               	movlw	0
  2013   00047A  6E06               	movwf	(___fladd@b+2)^0,c
  2014   00047C  0E00               	movlw	0
  2015   00047E  6E07               	movwf	(___fladd@b+3)^0,c
  2016   000480  5012               	movf	___fladd@bexp^0,w,c
  2017   000482  A4D8               	btfss	status,2,c
  2018   000484  EF46  F002         	goto	u2771
  2019   000488  EF48  F002         	goto	u2770
  2020   00048C                     u2771:
  2021   00048C  EF4A  F002         	goto	l2422
  2022   000490                     u2770:
  2023   000490  0E00               	movlw	0
  2024   000492  6E10               	movwf	___fladd@signs^0,c
  2025   000494                     l2422:
  2026   000494  A012               	btfss	___fladd@bexp^0,0,c
  2027   000496  EF4F  F002         	goto	u2781
  2028   00049A  EF51  F002         	goto	u2780
  2029   00049E                     u2781:
  2030   00049E  EF54  F002         	goto	l2426
  2031   0004A2                     u2780:
  2032   0004A2  8E06               	bsf	(___fladd@b+2)^0,7,c
  2033   0004A4  EF55  F002         	goto	l2428
  2034   0004A8                     l2426:
  2035   0004A8  9E06               	bcf	(___fladd@b+2)^0,7,c
  2036   0004AA                     l2428:
  2037   0004AA  90D8               	bcf	status,0,c
  2038   0004AC  3012               	rrcf	___fladd@bexp^0,w,c
  2039   0004AE  6E07               	movwf	(___fladd@b+3)^0,c
  2040   0004B0  AE10               	btfss	___fladd@signs^0,7,c
  2041   0004B2  EF5D  F002         	goto	u2791
  2042   0004B6  EF5F  F002         	goto	u2790
  2043   0004BA                     u2791:
  2044   0004BA  EF60  F002         	goto	l2434
  2045   0004BE                     u2790:
  2046   0004BE  8E07               	bsf	(___fladd@b+3)^0,7,c
  2047   0004C0                     l2434:
  2048   0004C0  C004  F004         	movff	___fladd@b,?___fladd
  2049   0004C4  C005  F005         	movff	___fladd@b+1,?___fladd+1
  2050   0004C8  C006  F006         	movff	___fladd@b+2,?___fladd+2
  2051   0004CC  C007  F007         	movff	___fladd@b+3,?___fladd+3
  2052   0004D0                     l680:
  2053   0004D0  0012               	return		;funcret
  2054   0004D2                     __end_of___fladd:
  2055                           	callstack 0
  2056                           
  2057 ;; *************** function ___flmul *****************
  2058 ;; Defined at:
  2059 ;;		line 8 in file "C:\Program Files\Microchip\xc8\v2.40\pic\sources\c99\common\sprcmul.c"
  2060 ;; Parameters:    Size  Location     Type
  2061 ;;  b               4   17[COMRAM] unsigned char 
  2062 ;;  a               4   21[COMRAM] unsigned char 
  2063 ;; Auto vars:     Size  Location     Type
  2064 ;;  prod            4   36[COMRAM] struct .
  2065 ;;  grs             4   31[COMRAM] unsigned long 
  2066 ;;  temp            2   40[COMRAM] struct .
  2067 ;;  bexp            1   35[COMRAM] unsigned char 
  2068 ;;  aexp            1   30[COMRAM] unsigned char 
  2069 ;;  sign            1   29[COMRAM] unsigned char 
  2070 ;; Return value:  Size  Location     Type
  2071 ;;                  4   17[COMRAM] unsigned char 
  2072 ;; Registers used:
  2073 ;;		wreg, status,2, status,0, prodl, prodh
  2074 ;; Tracked objects:
  2075 ;;		On entry : 0/0
  2076 ;;		On exit  : 0/0
  2077 ;;		Unchanged: 0/0
  2078 ;; Data sizes:     COMRAM   BANK0   BANK1   BANK2   BANK3   BANK4   BANK5   BANK6   BANK7
  2079 ;;      Params:         8       0       0       0       0       0       0       0       0
  2080 ;;      Locals:        13       0       0       0       0       0       0       0       0
  2081 ;;      Temps:          4       0       0       0       0       0       0       0       0
  2082 ;;      Totals:        25       0       0       0       0       0       0       0       0
  2083 ;;Total ram usage:       25 bytes
  2084 ;; Hardware stack levels used: 1
  2085 ;; Hardware stack levels required when called: 1
  2086 ;; This function calls:
  2087 ;;		Nothing
  2088 ;; This function is called by:
  2089 ;;		_main
  2090 ;;		_precargas
  2091 ;; This function uses a non-reentrant model
  2092 ;;
  2093                           
  2094                           	psect	text6
  2095   0004D2                     __ptext6:
  2096                           	callstack 0
  2097   0004D2                     ___flmul:
  2098                           	callstack 28
  2099   0004D2  5015               	movf	(___flmul@b+3)^0,w,c
  2100   0004D4  0B80               	andlw	128
  2101   0004D6  6E1E               	movwf	___flmul@sign^0,c
  2102   0004D8  5015               	movf	(___flmul@b+3)^0,w,c
  2103   0004DA  2415               	addwf	(___flmul@b+3)^0,w,c
  2104   0004DC  6E24               	movwf	___flmul@bexp^0,c
  2105   0004DE  AE14               	btfss	(___flmul@b+2)^0,7,c
  2106   0004E0  EF74  F002         	goto	u3031
  2107   0004E4  EF76  F002         	goto	u3030
  2108   0004E8                     u3031:
  2109   0004E8  EF77  F002         	goto	l2582
  2110   0004EC                     u3030:
  2111   0004EC  8024               	bsf	___flmul@bexp^0,0,c
  2112   0004EE                     l2582:
  2113   0004EE  5024               	movf	___flmul@bexp^0,w,c
  2114   0004F0  B4D8               	btfsc	status,2,c
  2115   0004F2  EF7D  F002         	goto	u3041
  2116   0004F6  EF7F  F002         	goto	u3040
  2117   0004FA                     u3041:
  2118   0004FA  EF92  F002         	goto	l2590
  2119   0004FE                     u3040:
  2120   0004FE  2824               	incf	___flmul@bexp^0,w,c
  2121   000500  A4D8               	btfss	status,2,c
  2122   000502  EF85  F002         	goto	u3051
  2123   000506  EF87  F002         	goto	u3050
  2124   00050A                     u3051:
  2125   00050A  EF8F  F002         	goto	l2588
  2126   00050E                     u3050:
  2127   00050E  0E00               	movlw	0
  2128   000510  6E12               	movwf	___flmul@b^0,c
  2129   000512  0E00               	movlw	0
  2130   000514  6E13               	movwf	(___flmul@b+1)^0,c
  2131   000516  0E00               	movlw	0
  2132   000518  6E14               	movwf	(___flmul@b+2)^0,c
  2133   00051A  0E00               	movlw	0
  2134   00051C  6E15               	movwf	(___flmul@b+3)^0,c
  2135   00051E                     l2588:
  2136   00051E  8E14               	bsf	(___flmul@b+2)^0,7,c
  2137   000520  EF9A  F002         	goto	l2592
  2138   000524                     l2590:
  2139   000524  0E00               	movlw	0
  2140   000526  6E12               	movwf	___flmul@b^0,c
  2141   000528  0E00               	movlw	0
  2142   00052A  6E13               	movwf	(___flmul@b+1)^0,c
  2143   00052C  0E00               	movlw	0
  2144   00052E  6E14               	movwf	(___flmul@b+2)^0,c
  2145   000530  0E00               	movlw	0
  2146   000532  6E15               	movwf	(___flmul@b+3)^0,c
  2147   000534                     l2592:
  2148   000534  5019               	movf	(___flmul@a+3)^0,w,c
  2149   000536  0B80               	andlw	128
  2150   000538  1A1E               	xorwf	___flmul@sign^0,f,c
  2151   00053A  5019               	movf	(___flmul@a+3)^0,w,c
  2152   00053C  2419               	addwf	(___flmul@a+3)^0,w,c
  2153   00053E  6E1F               	movwf	___flmul@aexp^0,c
  2154   000540  AE18               	btfss	(___flmul@a+2)^0,7,c
  2155   000542  EFA5  F002         	goto	u3061
  2156   000546  EFA7  F002         	goto	u3060
  2157   00054A                     u3061:
  2158   00054A  EFA8  F002         	goto	l2600
  2159   00054E                     u3060:
  2160   00054E  801F               	bsf	___flmul@aexp^0,0,c
  2161   000550                     l2600:
  2162   000550  501F               	movf	___flmul@aexp^0,w,c
  2163   000552  B4D8               	btfsc	status,2,c
  2164   000554  EFAE  F002         	goto	u3071
  2165   000558  EFB0  F002         	goto	u3070
  2166   00055C                     u3071:
  2167   00055C  EFC3  F002         	goto	l2608
  2168   000560                     u3070:
  2169   000560  281F               	incf	___flmul@aexp^0,w,c
  2170   000562  A4D8               	btfss	status,2,c
  2171   000564  EFB6  F002         	goto	u3081
  2172   000568  EFB8  F002         	goto	u3080
  2173   00056C                     u3081:
  2174   00056C  EFC0  F002         	goto	l2606
  2175   000570                     u3080:
  2176   000570  0E00               	movlw	0
  2177   000572  6E16               	movwf	___flmul@a^0,c
  2178   000574  0E00               	movlw	0
  2179   000576  6E17               	movwf	(___flmul@a+1)^0,c
  2180   000578  0E00               	movlw	0
  2181   00057A  6E18               	movwf	(___flmul@a+2)^0,c
  2182   00057C  0E00               	movlw	0
  2183   00057E  6E19               	movwf	(___flmul@a+3)^0,c
  2184   000580                     l2606:
  2185   000580  8E18               	bsf	(___flmul@a+2)^0,7,c
  2186   000582  EFCB  F002         	goto	l757
  2187   000586                     l2608:
  2188   000586  0E00               	movlw	0
  2189   000588  6E16               	movwf	___flmul@a^0,c
  2190   00058A  0E00               	movlw	0
  2191   00058C  6E17               	movwf	(___flmul@a+1)^0,c
  2192   00058E  0E00               	movlw	0
  2193   000590  6E18               	movwf	(___flmul@a+2)^0,c
  2194   000592  0E00               	movlw	0
  2195   000594  6E19               	movwf	(___flmul@a+3)^0,c
  2196   000596                     l757:
  2197   000596  501F               	movf	___flmul@aexp^0,w,c
  2198   000598  B4D8               	btfsc	status,2,c
  2199   00059A  EFD1  F002         	goto	u3091
  2200   00059E  EFD3  F002         	goto	u3090
  2201   0005A2                     u3091:
  2202   0005A2  EFDB  F002         	goto	l2612
  2203   0005A6                     u3090:
  2204   0005A6  5024               	movf	___flmul@bexp^0,w,c
  2205   0005A8  A4D8               	btfss	status,2,c
  2206   0005AA  EFD9  F002         	goto	u3101
  2207   0005AE  EFDB  F002         	goto	u3100
  2208   0005B2                     u3101:
  2209   0005B2  EFE5  F002         	goto	l2616
  2210   0005B6                     u3100:
  2211   0005B6                     l2612:
  2212   0005B6  0E00               	movlw	0
  2213   0005B8  6E12               	movwf	?___flmul^0,c
  2214   0005BA  0E00               	movlw	0
  2215   0005BC  6E13               	movwf	(?___flmul+1)^0,c
  2216   0005BE  0E00               	movlw	0
  2217   0005C0  6E14               	movwf	(?___flmul+2)^0,c
  2218   0005C2  0E00               	movlw	0
  2219   0005C4  6E15               	movwf	(?___flmul+3)^0,c
  2220   0005C6  EF7D  F004         	goto	l761
  2221   0005CA                     l2616:
  2222   0005CA  5018               	movf	(___flmul@a+2)^0,w,c
  2223   0005CC  0212               	mulwf	___flmul@b^0,c
  2224   0005CE  CFF3 F029          	movff	prodl,___flmul@temp
  2225   0005D2  CFF4 F02A          	movff	prodh,___flmul@temp+1
  2226   0005D6  5029               	movf	___flmul@temp^0,w,c
  2227   0005D8  6E20               	movwf	___flmul@grs^0,c
  2228   0005DA  6A21               	clrf	(___flmul@grs+1)^0,c
  2229   0005DC  6A22               	clrf	(___flmul@grs+2)^0,c
  2230   0005DE  6A23               	clrf	(___flmul@grs+3)^0,c
  2231   0005E0  502A               	movf	(___flmul@temp+1)^0,w,c
  2232   0005E2  6E25               	movwf	___flmul@prod^0,c
  2233   0005E4  6A26               	clrf	(___flmul@prod+1)^0,c
  2234   0005E6  6A27               	clrf	(___flmul@prod+2)^0,c
  2235   0005E8  6A28               	clrf	(___flmul@prod+3)^0,c
  2236   0005EA  5017               	movf	(___flmul@a+1)^0,w,c
  2237   0005EC  0213               	mulwf	(___flmul@b+1)^0,c
  2238   0005EE  CFF3 F029          	movff	prodl,___flmul@temp
  2239   0005F2  CFF4 F02A          	movff	prodh,___flmul@temp+1
  2240   0005F6  5029               	movf	___flmul@temp^0,w,c
  2241   0005F8  2620               	addwf	___flmul@grs^0,f,c
  2242   0005FA  0E00               	movlw	0
  2243   0005FC  2221               	addwfc	(___flmul@grs+1)^0,f,c
  2244   0005FE  2222               	addwfc	(___flmul@grs+2)^0,f,c
  2245   000600  2223               	addwfc	(___flmul@grs+3)^0,f,c
  2246   000602  502A               	movf	(___flmul@temp+1)^0,w,c
  2247   000604  2625               	addwf	___flmul@prod^0,f,c
  2248   000606  0E00               	movlw	0
  2249   000608  2226               	addwfc	(___flmul@prod+1)^0,f,c
  2250   00060A  2227               	addwfc	(___flmul@prod+2)^0,f,c
  2251   00060C  2228               	addwfc	(___flmul@prod+3)^0,f,c
  2252   00060E  5016               	movf	___flmul@a^0,w,c
  2253   000610  0214               	mulwf	(___flmul@b+2)^0,c
  2254   000612  CFF3 F029          	movff	prodl,___flmul@temp
  2255   000616  CFF4 F02A          	movff	prodh,___flmul@temp+1
  2256   00061A  5029               	movf	___flmul@temp^0,w,c
  2257   00061C  2620               	addwf	___flmul@grs^0,f,c
  2258   00061E  0E00               	movlw	0
  2259   000620  2221               	addwfc	(___flmul@grs+1)^0,f,c
  2260   000622  2222               	addwfc	(___flmul@grs+2)^0,f,c
  2261   000624  2223               	addwfc	(___flmul@grs+3)^0,f,c
  2262   000626  502A               	movf	(___flmul@temp+1)^0,w,c
  2263   000628  2625               	addwf	___flmul@prod^0,f,c
  2264   00062A  0E00               	movlw	0
  2265   00062C  2226               	addwfc	(___flmul@prod+1)^0,f,c
  2266   00062E  2227               	addwfc	(___flmul@prod+2)^0,f,c
  2267   000630  2228               	addwfc	(___flmul@prod+3)^0,f,c
  2268   000632  C022  F023         	movff	___flmul@grs+2,___flmul@grs+3
  2269   000636  C021  F022         	movff	___flmul@grs+1,___flmul@grs+2
  2270   00063A  C020  F021         	movff	___flmul@grs,___flmul@grs+1
  2271   00063E  6A20               	clrf	___flmul@grs^0,c
  2272   000640  5016               	movf	___flmul@a^0,w,c
  2273   000642  0213               	mulwf	(___flmul@b+1)^0,c
  2274   000644  CFF3 F029          	movff	prodl,___flmul@temp
  2275   000648  CFF4 F02A          	movff	prodh,___flmul@temp+1
  2276   00064C  5029               	movf	___flmul@temp^0,w,c
  2277   00064E  2620               	addwf	___flmul@grs^0,f,c
  2278   000650  502A               	movf	(___flmul@temp+1)^0,w,c
  2279   000652  2221               	addwfc	(___flmul@grs+1)^0,f,c
  2280   000654  0E00               	movlw	0
  2281   000656  2222               	addwfc	(___flmul@grs+2)^0,f,c
  2282   000658  0E00               	movlw	0
  2283   00065A  2223               	addwfc	(___flmul@grs+3)^0,f,c
  2284   00065C  5017               	movf	(___flmul@a+1)^0,w,c
  2285   00065E  0212               	mulwf	___flmul@b^0,c
  2286   000660  CFF3 F029          	movff	prodl,___flmul@temp
  2287   000664  CFF4 F02A          	movff	prodh,___flmul@temp+1
  2288   000668  5029               	movf	___flmul@temp^0,w,c
  2289   00066A  2620               	addwf	___flmul@grs^0,f,c
  2290   00066C  502A               	movf	(___flmul@temp+1)^0,w,c
  2291   00066E  2221               	addwfc	(___flmul@grs+1)^0,f,c
  2292   000670  0E00               	movlw	0
  2293   000672  2222               	addwfc	(___flmul@grs+2)^0,f,c
  2294   000674  0E00               	movlw	0
  2295   000676  2223               	addwfc	(___flmul@grs+3)^0,f,c
  2296   000678  C022  F023         	movff	___flmul@grs+2,___flmul@grs+3
  2297   00067C  C021  F022         	movff	___flmul@grs+1,___flmul@grs+2
  2298   000680  C020  F021         	movff	___flmul@grs,___flmul@grs+1
  2299   000684  6A20               	clrf	___flmul@grs^0,c
  2300   000686  5016               	movf	___flmul@a^0,w,c
  2301   000688  0212               	mulwf	___flmul@b^0,c
  2302   00068A  CFF3 F029          	movff	prodl,___flmul@temp
  2303   00068E  CFF4 F02A          	movff	prodh,___flmul@temp+1
  2304   000692  5029               	movf	___flmul@temp^0,w,c
  2305   000694  2620               	addwf	___flmul@grs^0,f,c
  2306   000696  502A               	movf	(___flmul@temp+1)^0,w,c
  2307   000698  2221               	addwfc	(___flmul@grs+1)^0,f,c
  2308   00069A  0E00               	movlw	0
  2309   00069C  2222               	addwfc	(___flmul@grs+2)^0,f,c
  2310   00069E  0E00               	movlw	0
  2311   0006A0  2223               	addwfc	(___flmul@grs+3)^0,f,c
  2312   0006A2  5018               	movf	(___flmul@a+2)^0,w,c
  2313   0006A4  0213               	mulwf	(___flmul@b+1)^0,c
  2314   0006A6  CFF3 F029          	movff	prodl,___flmul@temp
  2315   0006AA  CFF4 F02A          	movff	prodh,___flmul@temp+1
  2316   0006AE  5029               	movf	___flmul@temp^0,w,c
  2317   0006B0  2625               	addwf	___flmul@prod^0,f,c
  2318   0006B2  502A               	movf	(___flmul@temp+1)^0,w,c
  2319   0006B4  2226               	addwfc	(___flmul@prod+1)^0,f,c
  2320   0006B6  0E00               	movlw	0
  2321   0006B8  2227               	addwfc	(___flmul@prod+2)^0,f,c
  2322   0006BA  0E00               	movlw	0
  2323   0006BC  2228               	addwfc	(___flmul@prod+3)^0,f,c
  2324   0006BE  5017               	movf	(___flmul@a+1)^0,w,c
  2325   0006C0  0214               	mulwf	(___flmul@b+2)^0,c
  2326   0006C2  CFF3 F029          	movff	prodl,___flmul@temp
  2327   0006C6  CFF4 F02A          	movff	prodh,___flmul@temp+1
  2328   0006CA  5029               	movf	___flmul@temp^0,w,c
  2329   0006CC  2625               	addwf	___flmul@prod^0,f,c
  2330   0006CE  502A               	movf	(___flmul@temp+1)^0,w,c
  2331   0006D0  2226               	addwfc	(___flmul@prod+1)^0,f,c
  2332   0006D2  0E00               	movlw	0
  2333   0006D4  2227               	addwfc	(___flmul@prod+2)^0,f,c
  2334   0006D6  0E00               	movlw	0
  2335   0006D8  2228               	addwfc	(___flmul@prod+3)^0,f,c
  2336   0006DA  5018               	movf	(___flmul@a+2)^0,w,c
  2337   0006DC  0214               	mulwf	(___flmul@b+2)^0,c
  2338   0006DE  CFF3 F029          	movff	prodl,___flmul@temp
  2339   0006E2  CFF4 F02A          	movff	prodh,___flmul@temp+1
  2340   0006E6  5029               	movf	___flmul@temp^0,w,c
  2341   0006E8  6E1A               	movwf	??___flmul^0,c
  2342   0006EA  502A               	movf	(___flmul@temp+1)^0,w,c
  2343   0006EC  6E1B               	movwf	(??___flmul+1)^0,c
  2344   0006EE  6A1C               	clrf	(??___flmul+2)^0,c
  2345   0006F0  6A1D               	clrf	(??___flmul+3)^0,c
  2346   0006F2  C01C  F01D         	movff	??___flmul+2,??___flmul+3
  2347   0006F6  C01B  F01C         	movff	??___flmul+1,??___flmul+2
  2348   0006FA  C01A  F01B         	movff	??___flmul,??___flmul+1
  2349   0006FE  6A1A               	clrf	??___flmul^0,c
  2350   000700  501A               	movf	??___flmul^0,w,c
  2351   000702  2625               	addwf	___flmul@prod^0,f,c
  2352   000704  501B               	movf	(??___flmul+1)^0,w,c
  2353   000706  2226               	addwfc	(___flmul@prod+1)^0,f,c
  2354   000708  501C               	movf	(??___flmul+2)^0,w,c
  2355   00070A  2227               	addwfc	(___flmul@prod+2)^0,f,c
  2356   00070C  501D               	movf	(??___flmul+3)^0,w,c
  2357   00070E  2228               	addwfc	(___flmul@prod+3)^0,f,c
  2358   000710  C020  F01A         	movff	___flmul@grs,??___flmul
  2359   000714  C021  F01B         	movff	___flmul@grs+1,??___flmul+1
  2360   000718  C022  F01C         	movff	___flmul@grs+2,??___flmul+2
  2361   00071C  C023  F01D         	movff	___flmul@grs+3,??___flmul+3
  2362   000720  0E19               	movlw	25
  2363   000722  EF98  F003         	goto	u3110
  2364   000726                     u3115:
  2365   000726  90D8               	bcf	status,0,c
  2366   000728  321D               	rrcf	(??___flmul+3)^0,f,c
  2367   00072A  321C               	rrcf	(??___flmul+2)^0,f,c
  2368   00072C  321B               	rrcf	(??___flmul+1)^0,f,c
  2369   00072E  321A               	rrcf	??___flmul^0,f,c
  2370   000730                     u3110:
  2371   000730  2EE8               	decfsz	wreg,f,c
  2372   000732  EF93  F003         	goto	u3115
  2373   000736  501A               	movf	??___flmul^0,w,c
  2374   000738  2625               	addwf	___flmul@prod^0,f,c
  2375   00073A  501B               	movf	(??___flmul+1)^0,w,c
  2376   00073C  2226               	addwfc	(___flmul@prod+1)^0,f,c
  2377   00073E  501C               	movf	(??___flmul+2)^0,w,c
  2378   000740  2227               	addwfc	(___flmul@prod+2)^0,f,c
  2379   000742  501D               	movf	(??___flmul+3)^0,w,c
  2380   000744  2228               	addwfc	(___flmul@prod+3)^0,f,c
  2381   000746  C022  F023         	movff	___flmul@grs+2,___flmul@grs+3
  2382   00074A  C021  F022         	movff	___flmul@grs+1,___flmul@grs+2
  2383   00074E  C020  F021         	movff	___flmul@grs,___flmul@grs+1
  2384   000752  6A20               	clrf	___flmul@grs^0,c
  2385   000754  501F               	movf	___flmul@aexp^0,w,c
  2386   000756  C024  F01A         	movff	___flmul@bexp,??___flmul
  2387   00075A  6A1B               	clrf	(??___flmul+1)^0,c
  2388   00075C  261A               	addwf	??___flmul^0,f,c
  2389   00075E  0E00               	movlw	0
  2390   000760  221B               	addwfc	(??___flmul+1)^0,f,c
  2391   000762  0E82               	movlw	130
  2392   000764  241A               	addwf	??___flmul^0,w,c
  2393   000766  6E29               	movwf	___flmul@temp^0,c
  2394   000768  0EFF               	movlw	255
  2395   00076A  201B               	addwfc	(??___flmul+1)^0,w,c
  2396   00076C  6E2A               	movwf	(___flmul@temp+1)^0,c
  2397   00076E  EFCE  F003         	goto	l2664
  2398   000772                     l2658:
  2399   000772  90D8               	bcf	status,0,c
  2400   000774  3625               	rlcf	___flmul@prod^0,f,c
  2401   000776  3626               	rlcf	(___flmul@prod+1)^0,f,c
  2402   000778  3627               	rlcf	(___flmul@prod+2)^0,f,c
  2403   00077A  3628               	rlcf	(___flmul@prod+3)^0,f,c
  2404   00077C  AE23               	btfss	(___flmul@grs+3)^0,7,c
  2405   00077E  EFC3  F003         	goto	u3121
  2406   000782  EFC5  F003         	goto	u3120
  2407   000786                     u3121:
  2408   000786  EFC6  F003         	goto	l764
  2409   00078A                     u3120:
  2410   00078A  8025               	bsf	___flmul@prod^0,0,c
  2411   00078C                     l764:
  2412   00078C  90D8               	bcf	status,0,c
  2413   00078E  3620               	rlcf	___flmul@grs^0,f,c
  2414   000790  3621               	rlcf	(___flmul@grs+1)^0,f,c
  2415   000792  3622               	rlcf	(___flmul@grs+2)^0,f,c
  2416   000794  3623               	rlcf	(___flmul@grs+3)^0,f,c
  2417   000796  0629               	decf	___flmul@temp^0,f,c
  2418   000798  A0D8               	btfss	status,0,c
  2419   00079A  062A               	decf	(___flmul@temp+1)^0,f,c
  2420   00079C                     l2664:
  2421   00079C  AE27               	btfss	(___flmul@prod+2)^0,7,c
  2422   00079E  EFD3  F003         	goto	u3131
  2423   0007A2  EFD5  F003         	goto	u3130
  2424   0007A6                     u3131:
  2425   0007A6  EFB9  F003         	goto	l2658
  2426   0007AA                     u3130:
  2427   0007AA  0E00               	movlw	0
  2428   0007AC  6E1F               	movwf	___flmul@aexp^0,c
  2429   0007AE  AE23               	btfss	(___flmul@grs+3)^0,7,c
  2430   0007B0  EFDC  F003         	goto	u3141
  2431   0007B4  EFDE  F003         	goto	u3140
  2432   0007B8                     u3141:
  2433   0007B8  EF02  F004         	goto	l766
  2434   0007BC                     u3140:
  2435   0007BC  0EFF               	movlw	255
  2436   0007BE  1420               	andwf	___flmul@grs^0,w,c
  2437   0007C0  6E1A               	movwf	??___flmul^0,c
  2438   0007C2  0EFF               	movlw	255
  2439   0007C4  1421               	andwf	(___flmul@grs+1)^0,w,c
  2440   0007C6  6E1B               	movwf	(??___flmul+1)^0,c
  2441   0007C8  0EFF               	movlw	255
  2442   0007CA  1422               	andwf	(___flmul@grs+2)^0,w,c
  2443   0007CC  6E1C               	movwf	(??___flmul+2)^0,c
  2444   0007CE  0E7F               	movlw	127
  2445   0007D0  1423               	andwf	(___flmul@grs+3)^0,w,c
  2446   0007D2  6E1D               	movwf	(??___flmul+3)^0,c
  2447   0007D4  501A               	movf	??___flmul^0,w,c
  2448   0007D6  101B               	iorwf	(??___flmul+1)^0,w,c
  2449   0007D8  101C               	iorwf	(??___flmul+2)^0,w,c
  2450   0007DA  101D               	iorwf	(??___flmul+3)^0,w,c
  2451   0007DC  B4D8               	btfsc	status,2,c
  2452   0007DE  EFF3  F003         	goto	u3151
  2453   0007E2  EFF5  F003         	goto	u3150
  2454   0007E6                     u3151:
  2455   0007E6  EFF9  F003         	goto	l767
  2456   0007EA                     u3150:
  2457   0007EA                     l2672:
  2458   0007EA  0E01               	movlw	1
  2459   0007EC  6E1F               	movwf	___flmul@aexp^0,c
  2460   0007EE  EF02  F004         	goto	l766
  2461   0007F2                     l767:
  2462   0007F2  A025               	btfss	___flmul@prod^0,0,c
  2463   0007F4  EFFE  F003         	goto	u3161
  2464   0007F8  EF00  F004         	goto	u3160
  2465   0007FC                     u3161:
  2466   0007FC  EF02  F004         	goto	l766
  2467   000800                     u3160:
  2468   000800  EFF5  F003         	goto	l2672
  2469   000804                     l766:
  2470   000804  501F               	movf	___flmul@aexp^0,w,c
  2471   000806  B4D8               	btfsc	status,2,c
  2472   000808  EF08  F004         	goto	u3171
  2473   00080C  EF0A  F004         	goto	u3170
  2474   000810                     u3171:
  2475   000810  EF2E  F004         	goto	l2684
  2476   000814                     u3170:
  2477   000814  0E01               	movlw	1
  2478   000816  2625               	addwf	___flmul@prod^0,f,c
  2479   000818  0E00               	movlw	0
  2480   00081A  2226               	addwfc	(___flmul@prod+1)^0,f,c
  2481   00081C  2227               	addwfc	(___flmul@prod+2)^0,f,c
  2482   00081E  2228               	addwfc	(___flmul@prod+3)^0,f,c
  2483   000820  A028               	btfss	(___flmul@prod+3)^0,0,c
  2484   000822  EF15  F004         	goto	u3181
  2485   000826  EF17  F004         	goto	u3180
  2486   00082A                     u3181:
  2487   00082A  EF2E  F004         	goto	l2684
  2488   00082E                     u3180:
  2489   00082E  C025  F01A         	movff	___flmul@prod,??___flmul
  2490   000832  C026  F01B         	movff	___flmul@prod+1,??___flmul+1
  2491   000836  C027  F01C         	movff	___flmul@prod+2,??___flmul+2
  2492   00083A  C028  F01D         	movff	___flmul@prod+3,??___flmul+3
  2493   00083E  341D               	rlcf	(??___flmul+3)^0,w,c
  2494   000840  321D               	rrcf	(??___flmul+3)^0,f,c
  2495   000842  321C               	rrcf	(??___flmul+2)^0,f,c
  2496   000844  321B               	rrcf	(??___flmul+1)^0,f,c
  2497   000846  321A               	rrcf	??___flmul^0,f,c
  2498   000848  C01A  F025         	movff	??___flmul,___flmul@prod
  2499   00084C  C01B  F026         	movff	??___flmul+1,___flmul@prod+1
  2500   000850  C01C  F027         	movff	??___flmul+2,___flmul@prod+2
  2501   000854  C01D  F028         	movff	??___flmul+3,___flmul@prod+3
  2502   000858  4A29               	infsnz	___flmul@temp^0,f,c
  2503   00085A  2A2A               	incf	(___flmul@temp+1)^0,f,c
  2504   00085C                     l2684:
  2505   00085C  BE2A               	btfsc	(___flmul@temp+1)^0,7,c
  2506   00085E  EF39  F004         	goto	u3191
  2507   000862  502A               	movf	(___flmul@temp+1)^0,w,c
  2508   000864  E108               	bnz	u3190
  2509   000866  2829               	incf	___flmul@temp^0,w,c
  2510   000868  A0D8               	btfss	status,0,c
  2511   00086A  EF39  F004         	goto	u3191
  2512   00086E  EF3B  F004         	goto	u3190
  2513   000872                     u3191:
  2514   000872  EF45  F004         	goto	l2688
  2515   000876                     u3190:
  2516   000876  0E00               	movlw	0
  2517   000878  6E25               	movwf	___flmul@prod^0,c
  2518   00087A  0E00               	movlw	0
  2519   00087C  6E26               	movwf	(___flmul@prod+1)^0,c
  2520   00087E  0E80               	movlw	128
  2521   000880  6E27               	movwf	(___flmul@prod+2)^0,c
  2522   000882  0E7F               	movlw	127
  2523   000884  6E28               	movwf	(___flmul@prod+3)^0,c
  2524   000886  EF73  F004         	goto	l2700
  2525   00088A                     l2688:
  2526   00088A  BE2A               	btfsc	(___flmul@temp+1)^0,7,c
  2527   00088C  EF52  F004         	goto	u3200
  2528   000890  502A               	movf	(___flmul@temp+1)^0,w,c
  2529   000892  E106               	bnz	u3201
  2530   000894  0429               	decf	___flmul@temp^0,w,c
  2531   000896  B0D8               	btfsc	status,0,c
  2532   000898  EF50  F004         	goto	u3201
  2533   00089C  EF52  F004         	goto	u3200
  2534   0008A0                     u3201:
  2535   0008A0  EF5E  F004         	goto	l774
  2536   0008A4                     u3200:
  2537   0008A4  0E00               	movlw	0
  2538   0008A6  6E25               	movwf	___flmul@prod^0,c
  2539   0008A8  0E00               	movlw	0
  2540   0008AA  6E26               	movwf	(___flmul@prod+1)^0,c
  2541   0008AC  0E00               	movlw	0
  2542   0008AE  6E27               	movwf	(___flmul@prod+2)^0,c
  2543   0008B0  0E00               	movlw	0
  2544   0008B2  6E28               	movwf	(___flmul@prod+3)^0,c
  2545   0008B4  0E00               	movlw	0
  2546   0008B6  6E1E               	movwf	___flmul@sign^0,c
  2547   0008B8  EF73  F004         	goto	l2700
  2548   0008BC                     l774:
  2549   0008BC  C029  F024         	movff	___flmul@temp,___flmul@bexp
  2550   0008C0  0EFF               	movlw	255
  2551   0008C2  1625               	andwf	___flmul@prod^0,f,c
  2552   0008C4  0EFF               	movlw	255
  2553   0008C6  1626               	andwf	(___flmul@prod+1)^0,f,c
  2554   0008C8  0E7F               	movlw	127
  2555   0008CA  1627               	andwf	(___flmul@prod+2)^0,f,c
  2556   0008CC  0E00               	movlw	0
  2557   0008CE  1628               	andwf	(___flmul@prod+3)^0,f,c
  2558   0008D0  A024               	btfss	___flmul@bexp^0,0,c
  2559   0008D2  EF6D  F004         	goto	u3211
  2560   0008D6  EF6F  F004         	goto	u3210
  2561   0008DA                     u3211:
  2562   0008DA  EF70  F004         	goto	l2698
  2563   0008DE                     u3210:
  2564   0008DE  8E27               	bsf	(___flmul@prod+2)^0,7,c
  2565   0008E0                     l2698:
  2566   0008E0  90D8               	bcf	status,0,c
  2567   0008E2  3024               	rrcf	___flmul@bexp^0,w,c
  2568   0008E4  6E28               	movwf	(___flmul@prod+3)^0,c
  2569   0008E6                     l2700:
  2570   0008E6  501E               	movf	___flmul@sign^0,w,c
  2571   0008E8  1228               	iorwf	(___flmul@prod+3)^0,f,c
  2572   0008EA  C025  F012         	movff	___flmul@prod,?___flmul
  2573   0008EE  C026  F013         	movff	___flmul@prod+1,?___flmul+1
  2574   0008F2  C027  F014         	movff	___flmul@prod+2,?___flmul+2
  2575   0008F6  C028  F015         	movff	___flmul@prod+3,?___flmul+3
  2576   0008FA                     l761:
  2577   0008FA  0012               	return		;funcret
  2578   0008FC                     __end_of___flmul:
  2579                           	callstack 0
  2580                           
  2581 ;; *************** function ___fldiv *****************
  2582 ;; Defined at:
  2583 ;;		line 11 in file "C:\Program Files\Microchip\xc8\v2.40\pic\sources\c99\common\sprcdiv.c"
  2584 ;; Parameters:    Size  Location     Type
  2585 ;;  b               4   42[COMRAM] unsigned char 
  2586 ;;  a               4   46[COMRAM] unsigned char 
  2587 ;; Auto vars:     Size  Location     Type
  2588 ;;  grs             4   61[COMRAM] unsigned long 
  2589 ;;  rem             4   54[COMRAM] unsigned long 
  2590 ;;  new_exp         2   59[COMRAM] short 
  2591 ;;  aexp            1   66[COMRAM] unsigned char 
  2592 ;;  bexp            1   65[COMRAM] unsigned char 
  2593 ;;  sign            1   58[COMRAM] unsigned char 
  2594 ;; Return value:  Size  Location     Type
  2595 ;;                  4   42[COMRAM] unsigned char 
  2596 ;; Registers used:
  2597 ;;		wreg, status,2, status,0
  2598 ;; Tracked objects:
  2599 ;;		On entry : 0/0
  2600 ;;		On exit  : 0/0
  2601 ;;		Unchanged: 0/0
  2602 ;; Data sizes:     COMRAM   BANK0   BANK1   BANK2   BANK3   BANK4   BANK5   BANK6   BANK7
  2603 ;;      Params:         8       0       0       0       0       0       0       0       0
  2604 ;;      Locals:        13       0       0       0       0       0       0       0       0
  2605 ;;      Temps:          4       0       0       0       0       0       0       0       0
  2606 ;;      Totals:        25       0       0       0       0       0       0       0       0
  2607 ;;Total ram usage:       25 bytes
  2608 ;; Hardware stack levels used: 1
  2609 ;; Hardware stack levels required when called: 1
  2610 ;; This function calls:
  2611 ;;		Nothing
  2612 ;; This function is called by:
  2613 ;;		_main
  2614 ;;		_precargas
  2615 ;; This function uses a non-reentrant model
  2616 ;;
  2617                           
  2618                           	psect	text7
  2619   0008FC                     __ptext7:
  2620                           	callstack 0
  2621   0008FC                     ___fldiv:
  2622                           	callstack 28
  2623   0008FC  502E               	movf	(___fldiv@b+3)^0,w,c
  2624   0008FE  0B80               	andlw	128
  2625   000900  6E3B               	movwf	___fldiv@sign^0,c
  2626   000902  502E               	movf	(___fldiv@b+3)^0,w,c
  2627   000904  242E               	addwf	(___fldiv@b+3)^0,w,c
  2628   000906  6E42               	movwf	___fldiv@bexp^0,c
  2629   000908  AE2D               	btfss	(___fldiv@b+2)^0,7,c
  2630   00090A  EF89  F004         	goto	u2801
  2631   00090E  EF8B  F004         	goto	u2800
  2632   000912                     u2801:
  2633   000912  EF8C  F004         	goto	l2444
  2634   000916                     u2800:
  2635   000916  8042               	bsf	___fldiv@bexp^0,0,c
  2636   000918                     l2444:
  2637   000918  5042               	movf	___fldiv@bexp^0,w,c
  2638   00091A  B4D8               	btfsc	status,2,c
  2639   00091C  EF92  F004         	goto	u2811
  2640   000920  EF94  F004         	goto	u2810
  2641   000924                     u2811:
  2642   000924  EFA9  F004         	goto	l2454
  2643   000928                     u2810:
  2644   000928  2842               	incf	___fldiv@bexp^0,w,c
  2645   00092A  A4D8               	btfss	status,2,c
  2646   00092C  EF9A  F004         	goto	u2821
  2647   000930  EF9C  F004         	goto	u2820
  2648   000934                     u2821:
  2649   000934  EFA4  F004         	goto	l2450
  2650   000938                     u2820:
  2651   000938  0E00               	movlw	0
  2652   00093A  6E2B               	movwf	___fldiv@b^0,c
  2653   00093C  0E00               	movlw	0
  2654   00093E  6E2C               	movwf	(___fldiv@b+1)^0,c
  2655   000940  0E00               	movlw	0
  2656   000942  6E2D               	movwf	(___fldiv@b+2)^0,c
  2657   000944  0E00               	movlw	0
  2658   000946  6E2E               	movwf	(___fldiv@b+3)^0,c
  2659   000948                     l2450:
  2660   000948  8E2D               	bsf	(___fldiv@b+2)^0,7,c
  2661   00094A  0E00               	movlw	0
  2662   00094C  6E2E               	movwf	(___fldiv@b+3)^0,c
  2663   00094E  EFB1  F004         	goto	l2456
  2664   000952                     l2454:
  2665   000952  0E00               	movlw	0
  2666   000954  6E2B               	movwf	___fldiv@b^0,c
  2667   000956  0E00               	movlw	0
  2668   000958  6E2C               	movwf	(___fldiv@b+1)^0,c
  2669   00095A  0E00               	movlw	0
  2670   00095C  6E2D               	movwf	(___fldiv@b+2)^0,c
  2671   00095E  0E00               	movlw	0
  2672   000960  6E2E               	movwf	(___fldiv@b+3)^0,c
  2673   000962                     l2456:
  2674   000962  5032               	movf	(___fldiv@a+3)^0,w,c
  2675   000964  0B80               	andlw	128
  2676   000966  1A3B               	xorwf	___fldiv@sign^0,f,c
  2677   000968  5032               	movf	(___fldiv@a+3)^0,w,c
  2678   00096A  2432               	addwf	(___fldiv@a+3)^0,w,c
  2679   00096C  6E43               	movwf	___fldiv@aexp^0,c
  2680   00096E  AE31               	btfss	(___fldiv@a+2)^0,7,c
  2681   000970  EFBC  F004         	goto	u2831
  2682   000974  EFBE  F004         	goto	u2830
  2683   000978                     u2831:
  2684   000978  EFBF  F004         	goto	l2464
  2685   00097C                     u2830:
  2686   00097C  8043               	bsf	___fldiv@aexp^0,0,c
  2687   00097E                     l2464:
  2688   00097E  5043               	movf	___fldiv@aexp^0,w,c
  2689   000980  B4D8               	btfsc	status,2,c
  2690   000982  EFC5  F004         	goto	u2841
  2691   000986  EFC7  F004         	goto	u2840
  2692   00098A                     u2841:
  2693   00098A  EFDC  F004         	goto	l2474
  2694   00098E                     u2840:
  2695   00098E  2843               	incf	___fldiv@aexp^0,w,c
  2696   000990  A4D8               	btfss	status,2,c
  2697   000992  EFCD  F004         	goto	u2851
  2698   000996  EFCF  F004         	goto	u2850
  2699   00099A                     u2851:
  2700   00099A  EFD7  F004         	goto	l2470
  2701   00099E                     u2850:
  2702   00099E  0E00               	movlw	0
  2703   0009A0  6E2F               	movwf	___fldiv@a^0,c
  2704   0009A2  0E00               	movlw	0
  2705   0009A4  6E30               	movwf	(___fldiv@a+1)^0,c
  2706   0009A6  0E00               	movlw	0
  2707   0009A8  6E31               	movwf	(___fldiv@a+2)^0,c
  2708   0009AA  0E00               	movlw	0
  2709   0009AC  6E32               	movwf	(___fldiv@a+3)^0,c
  2710   0009AE                     l2470:
  2711   0009AE  8E31               	bsf	(___fldiv@a+2)^0,7,c
  2712   0009B0  0E00               	movlw	0
  2713   0009B2  6E32               	movwf	(___fldiv@a+3)^0,c
  2714   0009B4  EFE4  F004         	goto	l2476
  2715   0009B8                     l2474:
  2716   0009B8  0E00               	movlw	0
  2717   0009BA  6E2F               	movwf	___fldiv@a^0,c
  2718   0009BC  0E00               	movlw	0
  2719   0009BE  6E30               	movwf	(___fldiv@a+1)^0,c
  2720   0009C0  0E00               	movlw	0
  2721   0009C2  6E31               	movwf	(___fldiv@a+2)^0,c
  2722   0009C4  0E00               	movlw	0
  2723   0009C6  6E32               	movwf	(___fldiv@a+3)^0,c
  2724   0009C8                     l2476:
  2725   0009C8  502F               	movf	___fldiv@a^0,w,c
  2726   0009CA  1030               	iorwf	(___fldiv@a+1)^0,w,c
  2727   0009CC  1031               	iorwf	(___fldiv@a+2)^0,w,c
  2728   0009CE  1032               	iorwf	(___fldiv@a+3)^0,w,c
  2729   0009D0  A4D8               	btfss	status,2,c
  2730   0009D2  EFED  F004         	goto	u2861
  2731   0009D6  EFEF  F004         	goto	u2860
  2732   0009DA                     u2861:
  2733   0009DA  EF07  F005         	goto	l2488
  2734   0009DE                     u2860:
  2735   0009DE  0E00               	movlw	0
  2736   0009E0  6E2B               	movwf	___fldiv@b^0,c
  2737   0009E2  0E00               	movlw	0
  2738   0009E4  6E2C               	movwf	(___fldiv@b+1)^0,c
  2739   0009E6  0E00               	movlw	0
  2740   0009E8  6E2D               	movwf	(___fldiv@b+2)^0,c
  2741   0009EA  0E00               	movlw	0
  2742   0009EC  6E2E               	movwf	(___fldiv@b+3)^0,c
  2743   0009EE  0E80               	movlw	128
  2744   0009F0  122D               	iorwf	(___fldiv@b+2)^0,f,c
  2745   0009F2  0E7F               	movlw	127
  2746   0009F4  122E               	iorwf	(___fldiv@b+3)^0,f,c
  2747   0009F6                     l2482:
  2748   0009F6  503B               	movf	___fldiv@sign^0,w,c
  2749   0009F8  122E               	iorwf	(___fldiv@b+3)^0,f,c
  2750   0009FA  C02B  F02B         	movff	___fldiv@b,?___fldiv
  2751   0009FE  C02C  F02C         	movff	___fldiv@b+1,?___fldiv+1
  2752   000A02  C02D  F02D         	movff	___fldiv@b+2,?___fldiv+2
  2753   000A06  C02E  F02E         	movff	___fldiv@b+3,?___fldiv+3
  2754   000A0A  EF4A  F006         	goto	l725
  2755   000A0E                     l2488:
  2756   000A0E  5042               	movf	___fldiv@bexp^0,w,c
  2757   000A10  A4D8               	btfss	status,2,c
  2758   000A12  EF0D  F005         	goto	u2871
  2759   000A16  EF0F  F005         	goto	u2870
  2760   000A1A                     u2871:
  2761   000A1A  EF19  F005         	goto	l2496
  2762   000A1E                     u2870:
  2763   000A1E  0E00               	movlw	0
  2764   000A20  6E2B               	movwf	?___fldiv^0,c
  2765   000A22  0E00               	movlw	0
  2766   000A24  6E2C               	movwf	(?___fldiv+1)^0,c
  2767   000A26  0E00               	movlw	0
  2768   000A28  6E2D               	movwf	(?___fldiv+2)^0,c
  2769   000A2A  0E00               	movlw	0
  2770   000A2C  6E2E               	movwf	(?___fldiv+3)^0,c
  2771   000A2E  EF4A  F006         	goto	l725
  2772   000A32                     l2496:
  2773   000A32  5043               	movf	___fldiv@aexp^0,w,c
  2774   000A34  C042  F033         	movff	___fldiv@bexp,??___fldiv
  2775   000A38  6A34               	clrf	(??___fldiv+1)^0,c
  2776   000A3A  5E33               	subwf	??___fldiv^0,f,c
  2777   000A3C  0E00               	movlw	0
  2778   000A3E  5A34               	subwfb	(??___fldiv+1)^0,f,c
  2779   000A40  0E7F               	movlw	127
  2780   000A42  2433               	addwf	??___fldiv^0,w,c
  2781   000A44  6E3C               	movwf	___fldiv@new_exp^0,c
  2782   000A46  0E00               	movlw	0
  2783   000A48  2034               	addwfc	(??___fldiv+1)^0,w,c
  2784   000A4A  6E3D               	movwf	(___fldiv@new_exp+1)^0,c
  2785   000A4C  C02B  F037         	movff	___fldiv@b,___fldiv@rem
  2786   000A50  C02C  F038         	movff	___fldiv@b+1,___fldiv@rem+1
  2787   000A54  C02D  F039         	movff	___fldiv@b+2,___fldiv@rem+2
  2788   000A58  C02E  F03A         	movff	___fldiv@b+3,___fldiv@rem+3
  2789   000A5C  0E00               	movlw	0
  2790   000A5E  6E2B               	movwf	___fldiv@b^0,c
  2791   000A60  0E00               	movlw	0
  2792   000A62  6E2C               	movwf	(___fldiv@b+1)^0,c
  2793   000A64  0E00               	movlw	0
  2794   000A66  6E2D               	movwf	(___fldiv@b+2)^0,c
  2795   000A68  0E00               	movlw	0
  2796   000A6A  6E2E               	movwf	(___fldiv@b+3)^0,c
  2797   000A6C  0E00               	movlw	0
  2798   000A6E  6E3E               	movwf	___fldiv@grs^0,c
  2799   000A70  0E00               	movlw	0
  2800   000A72  6E3F               	movwf	(___fldiv@grs+1)^0,c
  2801   000A74  0E00               	movlw	0
  2802   000A76  6E40               	movwf	(___fldiv@grs+2)^0,c
  2803   000A78  0E00               	movlw	0
  2804   000A7A  6E41               	movwf	(___fldiv@grs+3)^0,c
  2805   000A7C  0E00               	movlw	0
  2806   000A7E  6E43               	movwf	___fldiv@aexp^0,c
  2807   000A80  EF7A  F005         	goto	l727
  2808   000A84                     l2506:
  2809   000A84  5043               	movf	___fldiv@aexp^0,w,c
  2810   000A86  B4D8               	btfsc	status,2,c
  2811   000A88  EF48  F005         	goto	u2881
  2812   000A8C  EF4A  F005         	goto	u2880
  2813   000A90                     u2881:
  2814   000A90  EF61  F005         	goto	l2514
  2815   000A94                     u2880:
  2816   000A94  90D8               	bcf	status,0,c
  2817   000A96  3637               	rlcf	___fldiv@rem^0,f,c
  2818   000A98  3638               	rlcf	(___fldiv@rem+1)^0,f,c
  2819   000A9A  3639               	rlcf	(___fldiv@rem+2)^0,f,c
  2820   000A9C  363A               	rlcf	(___fldiv@rem+3)^0,f,c
  2821   000A9E  90D8               	bcf	status,0,c
  2822   000AA0  362B               	rlcf	___fldiv@b^0,f,c
  2823   000AA2  362C               	rlcf	(___fldiv@b+1)^0,f,c
  2824   000AA4  362D               	rlcf	(___fldiv@b+2)^0,f,c
  2825   000AA6  362E               	rlcf	(___fldiv@b+3)^0,f,c
  2826   000AA8  AE41               	btfss	(___fldiv@grs+3)^0,7,c
  2827   000AAA  EF59  F005         	goto	u2891
  2828   000AAE  EF5B  F005         	goto	u2890
  2829   000AB2                     u2891:
  2830   000AB2  EF5C  F005         	goto	l730
  2831   000AB6                     u2890:
  2832   000AB6  802B               	bsf	___fldiv@b^0,0,c
  2833   000AB8                     l730:
  2834   000AB8  90D8               	bcf	status,0,c
  2835   000ABA  363E               	rlcf	___fldiv@grs^0,f,c
  2836   000ABC  363F               	rlcf	(___fldiv@grs+1)^0,f,c
  2837   000ABE  3640               	rlcf	(___fldiv@grs+2)^0,f,c
  2838   000AC0  3641               	rlcf	(___fldiv@grs+3)^0,f,c
  2839   000AC2                     l2514:
  2840   000AC2  502F               	movf	___fldiv@a^0,w,c
  2841   000AC4  5C37               	subwf	___fldiv@rem^0,w,c
  2842   000AC6  5030               	movf	(___fldiv@a+1)^0,w,c
  2843   000AC8  5838               	subwfb	(___fldiv@rem+1)^0,w,c
  2844   000ACA  5031               	movf	(___fldiv@a+2)^0,w,c
  2845   000ACC  5839               	subwfb	(___fldiv@rem+2)^0,w,c
  2846   000ACE  5032               	movf	(___fldiv@a+3)^0,w,c
  2847   000AD0  583A               	subwfb	(___fldiv@rem+3)^0,w,c
  2848   000AD2  A0D8               	btfss	status,0,c
  2849   000AD4  EF6E  F005         	goto	u2901
  2850   000AD8  EF70  F005         	goto	u2900
  2851   000ADC                     u2901:
  2852   000ADC  EF79  F005         	goto	l2520
  2853   000AE0                     u2900:
  2854   000AE0  8C41               	bsf	(___fldiv@grs+3)^0,6,c
  2855   000AE2  502F               	movf	___fldiv@a^0,w,c
  2856   000AE4  5E37               	subwf	___fldiv@rem^0,f,c
  2857   000AE6  5030               	movf	(___fldiv@a+1)^0,w,c
  2858   000AE8  5A38               	subwfb	(___fldiv@rem+1)^0,f,c
  2859   000AEA  5031               	movf	(___fldiv@a+2)^0,w,c
  2860   000AEC  5A39               	subwfb	(___fldiv@rem+2)^0,f,c
  2861   000AEE  5032               	movf	(___fldiv@a+3)^0,w,c
  2862   000AF0  5A3A               	subwfb	(___fldiv@rem+3)^0,f,c
  2863   000AF2                     l2520:
  2864   000AF2  2A43               	incf	___fldiv@aexp^0,f,c
  2865   000AF4                     l727:
  2866   000AF4  0E19               	movlw	25
  2867   000AF6  6443               	cpfsgt	___fldiv@aexp^0,c
  2868   000AF8  EF80  F005         	goto	u2911
  2869   000AFC  EF82  F005         	goto	u2910
  2870   000B00                     u2911:
  2871   000B00  EF42  F005         	goto	l2506
  2872   000B04                     u2910:
  2873   000B04  5037               	movf	___fldiv@rem^0,w,c
  2874   000B06  1038               	iorwf	(___fldiv@rem+1)^0,w,c
  2875   000B08  1039               	iorwf	(___fldiv@rem+2)^0,w,c
  2876   000B0A  103A               	iorwf	(___fldiv@rem+3)^0,w,c
  2877   000B0C  B4D8               	btfsc	status,2,c
  2878   000B0E  EF8B  F005         	goto	u2921
  2879   000B12  EF8D  F005         	goto	u2920
  2880   000B16                     u2921:
  2881   000B16  EFA5  F005         	goto	l2532
  2882   000B1A                     u2920:
  2883   000B1A  803E               	bsf	___fldiv@grs^0,0,c
  2884   000B1C  EFA5  F005         	goto	l2532
  2885   000B20                     l2526:
  2886   000B20  90D8               	bcf	status,0,c
  2887   000B22  362B               	rlcf	___fldiv@b^0,f,c
  2888   000B24  362C               	rlcf	(___fldiv@b+1)^0,f,c
  2889   000B26  362D               	rlcf	(___fldiv@b+2)^0,f,c
  2890   000B28  362E               	rlcf	(___fldiv@b+3)^0,f,c
  2891   000B2A  AE41               	btfss	(___fldiv@grs+3)^0,7,c
  2892   000B2C  EF9A  F005         	goto	u2931
  2893   000B30  EF9C  F005         	goto	u2930
  2894   000B34                     u2931:
  2895   000B34  EF9D  F005         	goto	l736
  2896   000B38                     u2930:
  2897   000B38  802B               	bsf	___fldiv@b^0,0,c
  2898   000B3A                     l736:
  2899   000B3A  90D8               	bcf	status,0,c
  2900   000B3C  363E               	rlcf	___fldiv@grs^0,f,c
  2901   000B3E  363F               	rlcf	(___fldiv@grs+1)^0,f,c
  2902   000B40  3640               	rlcf	(___fldiv@grs+2)^0,f,c
  2903   000B42  3641               	rlcf	(___fldiv@grs+3)^0,f,c
  2904   000B44  063C               	decf	___fldiv@new_exp^0,f,c
  2905   000B46  A0D8               	btfss	status,0,c
  2906   000B48  063D               	decf	(___fldiv@new_exp+1)^0,f,c
  2907   000B4A                     l2532:
  2908   000B4A  AE2D               	btfss	(___fldiv@b+2)^0,7,c
  2909   000B4C  EFAA  F005         	goto	u2941
  2910   000B50  EFAC  F005         	goto	u2940
  2911   000B54                     u2941:
  2912   000B54  EF90  F005         	goto	l2526
  2913   000B58                     u2940:
  2914   000B58  0E00               	movlw	0
  2915   000B5A  6E43               	movwf	___fldiv@aexp^0,c
  2916   000B5C  AE41               	btfss	(___fldiv@grs+3)^0,7,c
  2917   000B5E  EFB3  F005         	goto	u2951
  2918   000B62  EFB5  F005         	goto	u2950
  2919   000B66                     u2951:
  2920   000B66  EFD9  F005         	goto	l738
  2921   000B6A                     u2950:
  2922   000B6A  0EFF               	movlw	255
  2923   000B6C  143E               	andwf	___fldiv@grs^0,w,c
  2924   000B6E  6E33               	movwf	??___fldiv^0,c
  2925   000B70  0EFF               	movlw	255
  2926   000B72  143F               	andwf	(___fldiv@grs+1)^0,w,c
  2927   000B74  6E34               	movwf	(??___fldiv+1)^0,c
  2928   000B76  0EFF               	movlw	255
  2929   000B78  1440               	andwf	(___fldiv@grs+2)^0,w,c
  2930   000B7A  6E35               	movwf	(??___fldiv+2)^0,c
  2931   000B7C  0E7F               	movlw	127
  2932   000B7E  1441               	andwf	(___fldiv@grs+3)^0,w,c
  2933   000B80  6E36               	movwf	(??___fldiv+3)^0,c
  2934   000B82  5033               	movf	??___fldiv^0,w,c
  2935   000B84  1034               	iorwf	(??___fldiv+1)^0,w,c
  2936   000B86  1035               	iorwf	(??___fldiv+2)^0,w,c
  2937   000B88  1036               	iorwf	(??___fldiv+3)^0,w,c
  2938   000B8A  B4D8               	btfsc	status,2,c
  2939   000B8C  EFCA  F005         	goto	u2961
  2940   000B90  EFCC  F005         	goto	u2960
  2941   000B94                     u2961:
  2942   000B94  EFD0  F005         	goto	l739
  2943   000B98                     u2960:
  2944   000B98                     l2540:
  2945   000B98  0E01               	movlw	1
  2946   000B9A  6E43               	movwf	___fldiv@aexp^0,c
  2947   000B9C  EFD9  F005         	goto	l738
  2948   000BA0                     l739:
  2949   000BA0  A02B               	btfss	___fldiv@b^0,0,c
  2950   000BA2  EFD5  F005         	goto	u2971
  2951   000BA6  EFD7  F005         	goto	u2970
  2952   000BAA                     u2971:
  2953   000BAA  EFD9  F005         	goto	l738
  2954   000BAE                     u2970:
  2955   000BAE  EFCC  F005         	goto	l2540
  2956   000BB2                     l738:
  2957   000BB2  5043               	movf	___fldiv@aexp^0,w,c
  2958   000BB4  B4D8               	btfsc	status,2,c
  2959   000BB6  EFDF  F005         	goto	u2981
  2960   000BBA  EFE1  F005         	goto	u2980
  2961   000BBE                     u2981:
  2962   000BBE  EF05  F006         	goto	l2552
  2963   000BC2                     u2980:
  2964   000BC2  0E01               	movlw	1
  2965   000BC4  262B               	addwf	___fldiv@b^0,f,c
  2966   000BC6  0E00               	movlw	0
  2967   000BC8  222C               	addwfc	(___fldiv@b+1)^0,f,c
  2968   000BCA  222D               	addwfc	(___fldiv@b+2)^0,f,c
  2969   000BCC  222E               	addwfc	(___fldiv@b+3)^0,f,c
  2970   000BCE  A02E               	btfss	(___fldiv@b+3)^0,0,c
  2971   000BD0  EFEC  F005         	goto	u2991
  2972   000BD4  EFEE  F005         	goto	u2990
  2973   000BD8                     u2991:
  2974   000BD8  EF05  F006         	goto	l2552
  2975   000BDC                     u2990:
  2976   000BDC  C02B  F033         	movff	___fldiv@b,??___fldiv
  2977   000BE0  C02C  F034         	movff	___fldiv@b+1,??___fldiv+1
  2978   000BE4  C02D  F035         	movff	___fldiv@b+2,??___fldiv+2
  2979   000BE8  C02E  F036         	movff	___fldiv@b+3,??___fldiv+3
  2980   000BEC  3436               	rlcf	(??___fldiv+3)^0,w,c
  2981   000BEE  3236               	rrcf	(??___fldiv+3)^0,f,c
  2982   000BF0  3235               	rrcf	(??___fldiv+2)^0,f,c
  2983   000BF2  3234               	rrcf	(??___fldiv+1)^0,f,c
  2984   000BF4  3233               	rrcf	??___fldiv^0,f,c
  2985   000BF6  C033  F02B         	movff	??___fldiv,___fldiv@b
  2986   000BFA  C034  F02C         	movff	??___fldiv+1,___fldiv@b+1
  2987   000BFE  C035  F02D         	movff	??___fldiv+2,___fldiv@b+2
  2988   000C02  C036  F02E         	movff	??___fldiv+3,___fldiv@b+3
  2989   000C06  4A3C               	infsnz	___fldiv@new_exp^0,f,c
  2990   000C08  2A3D               	incf	(___fldiv@new_exp+1)^0,f,c
  2991   000C0A                     l2552:
  2992   000C0A  BE3D               	btfsc	(___fldiv@new_exp+1)^0,7,c
  2993   000C0C  EF10  F006         	goto	u3001
  2994   000C10  503D               	movf	(___fldiv@new_exp+1)^0,w,c
  2995   000C12  E108               	bnz	u3000
  2996   000C14  283C               	incf	___fldiv@new_exp^0,w,c
  2997   000C16  A0D8               	btfss	status,0,c
  2998   000C18  EF10  F006         	goto	u3001
  2999   000C1C  EF12  F006         	goto	u3000
  3000   000C20                     u3001:
  3001   000C20  EF1D  F006         	goto	l2556
  3002   000C24                     u3000:
  3003   000C24  0E00               	movlw	0
  3004   000C26  6E3D               	movwf	(___fldiv@new_exp+1)^0,c
  3005   000C28  683C               	setf	___fldiv@new_exp^0,c
  3006   000C2A  0E00               	movlw	0
  3007   000C2C  6E2B               	movwf	___fldiv@b^0,c
  3008   000C2E  0E00               	movlw	0
  3009   000C30  6E2C               	movwf	(___fldiv@b+1)^0,c
  3010   000C32  0E00               	movlw	0
  3011   000C34  6E2D               	movwf	(___fldiv@b+2)^0,c
  3012   000C36  0E00               	movlw	0
  3013   000C38  6E2E               	movwf	(___fldiv@b+3)^0,c
  3014   000C3A                     l2556:
  3015   000C3A  BE3D               	btfsc	(___fldiv@new_exp+1)^0,7,c
  3016   000C3C  EF2A  F006         	goto	u3010
  3017   000C40  503D               	movf	(___fldiv@new_exp+1)^0,w,c
  3018   000C42  E106               	bnz	u3011
  3019   000C44  043C               	decf	___fldiv@new_exp^0,w,c
  3020   000C46  B0D8               	btfsc	status,0,c
  3021   000C48  EF28  F006         	goto	u3011
  3022   000C4C  EF2A  F006         	goto	u3010
  3023   000C50                     u3011:
  3024   000C50  EF38  F006         	goto	l2560
  3025   000C54                     u3010:
  3026   000C54  0E00               	movlw	0
  3027   000C56  6E3D               	movwf	(___fldiv@new_exp+1)^0,c
  3028   000C58  0E00               	movlw	0
  3029   000C5A  6E3C               	movwf	___fldiv@new_exp^0,c
  3030   000C5C  0E00               	movlw	0
  3031   000C5E  6E2B               	movwf	___fldiv@b^0,c
  3032   000C60  0E00               	movlw	0
  3033   000C62  6E2C               	movwf	(___fldiv@b+1)^0,c
  3034   000C64  0E00               	movlw	0
  3035   000C66  6E2D               	movwf	(___fldiv@b+2)^0,c
  3036   000C68  0E00               	movlw	0
  3037   000C6A  6E2E               	movwf	(___fldiv@b+3)^0,c
  3038   000C6C  0E00               	movlw	0
  3039   000C6E  6E3B               	movwf	___fldiv@sign^0,c
  3040   000C70                     l2560:
  3041   000C70  C03C  F042         	movff	___fldiv@new_exp,___fldiv@bexp
  3042   000C74  A042               	btfss	___fldiv@bexp^0,0,c
  3043   000C76  EF3F  F006         	goto	u3021
  3044   000C7A  EF41  F006         	goto	u3020
  3045   000C7E                     u3021:
  3046   000C7E  EF44  F006         	goto	l2566
  3047   000C82                     u3020:
  3048   000C82  8E2D               	bsf	(___fldiv@b+2)^0,7,c
  3049   000C84  EF45  F006         	goto	l2568
  3050   000C88                     l2566:
  3051   000C88  9E2D               	bcf	(___fldiv@b+2)^0,7,c
  3052   000C8A                     l2568:
  3053   000C8A  90D8               	bcf	status,0,c
  3054   000C8C  3042               	rrcf	___fldiv@bexp^0,w,c
  3055   000C8E  6E2E               	movwf	(___fldiv@b+3)^0,c
  3056   000C90  EFFB  F004         	goto	l2482
  3057   000C94                     l725:
  3058   000C94  0012               	return		;funcret
  3059   000C96                     __end_of___fldiv:
  3060                           	callstack 0
  3061                           
  3062 ;; *************** function _ISR *****************
  3063 ;; Defined at:
  3064 ;;		line 101 in file "aceleration.c"
  3065 ;; Parameters:    Size  Location     Type
  3066 ;;		None
  3067 ;; Auto vars:     Size  Location     Type
  3068 ;;		None
  3069 ;; Return value:  Size  Location     Type
  3070 ;;                  1    wreg      void 
  3071 ;; Registers used:
  3072 ;;		wreg, fsr2l, fsr2h, status,2, status,0
  3073 ;; Tracked objects:
  3074 ;;		On entry : 0/0
  3075 ;;		On exit  : 0/0
  3076 ;;		Unchanged: 0/0
  3077 ;; Data sizes:     COMRAM   BANK0   BANK1   BANK2   BANK3   BANK4   BANK5   BANK6   BANK7
  3078 ;;      Params:         0       0       0       0       0       0       0       0       0
  3079 ;;      Locals:         0       0       0       0       0       0       0       0       0
  3080 ;;      Temps:          3       0       0       0       0       0       0       0       0
  3081 ;;      Totals:         3       0       0       0       0       0       0       0       0
  3082 ;;Total ram usage:        3 bytes
  3083 ;; Hardware stack levels used: 1
  3084 ;; This function calls:
  3085 ;;		Nothing
  3086 ;; This function is called by:
  3087 ;;		Interrupt level 2
  3088 ;; This function uses a non-reentrant model
  3089 ;;
  3090                           
  3091                           	psect	intcode
  3092   000008                     __pintcode:
  3093                           	callstack 0
  3094   000008                     _ISR:
  3095                           	callstack 27
  3096                           
  3097                           ;incstack = 0
  3098   000008  825C               	bsf	int$flags,1,c	;set compiler interrupt flag (level 2)
  3099   00000A  ED4B  F006         	call	int_func,f	;refresh shadow registers
  3100                           
  3101                           	psect	intcode_body
  3102   000C96                     __pintcode_body:
  3103                           	callstack 27
  3104   000C96                     int_func:
  3105                           	callstack 27
  3106   000C96  0006               	pop		; remove dummy address from shadow register refresh
  3107   000C98  CFD9 F002          	movff	fsr2l,??_ISR+1
  3108   000C9C  CFDA F003          	movff	fsr2h,??_ISR+2
  3109   000CA0                     
  3110                           ;aceleration.c: 102:             cru=0;
  3111   000CA0  A4F2               	btfss	4082,2,c	;volatile
  3112   000CA2  EF55  F006         	goto	i2u220_41
  3113   000CA6  EF57  F006         	goto	i2u220_40
  3114   000CAA                     i2u220_41:
  3115   000CAA  EF3C  F007         	goto	i2l115
  3116   000CAE                     i2u220_40:
  3117   000CAE                     
  3118                           ;aceleration.c: 103:             des=1;
  3119   000CAE  94F2               	bcf	4082,2,c	;volatile
  3120   000CB0                     
  3121                           ;aceleration.c: 104:         }else if(counter<0 && des==1){
  3122   000CB0  0E24               	movlw	36
  3123   000CB2  6ED7               	movwf	215,c	;volatile
  3124   000CB4  0E46               	movlw	70
  3125   000CB6  6ED6               	movwf	214,c	;volatile
  3126   000CB8                     
  3127                           ;aceleration.c: 106:         }
  3128   000CB8  0100               	movlb	0	; () banked
  3129   000CBA  05E2               	decf	_ac& (0+255),w,b
  3130   000CBC  11E3               	iorwf	(_ac+1)& (0+255),w,b
  3131   000CBE  A4D8               	btfss	status,2,c
  3132   000CC0  EF64  F006         	goto	i2u221_41
  3133   000CC4  EF66  F006         	goto	i2u221_40
  3134   000CC8                     i2u221_41:
  3135   000CC8  EF6A  F006         	goto	i2l2178
  3136   000CCC                     i2u221_40:
  3137   000CCC                     
  3138                           ; BSR set to: 0
  3139                           ;aceleration.c: 107: 
  3140   000CCC  4A5A               	infsnz	_counter^0,f,c
  3141   000CCE  2A5B               	incf	(_counter+1)^0,f,c
  3142                           
  3143                           ;aceleration.c: 108:         if(counter>=0 && counter<=19){
  3144   000CD0  EF83  F006         	goto	i2l2186
  3145   000CD4                     i2l2178:
  3146                           
  3147                           ; BSR set to: 0
  3148   000CD4  05BE               	decf	_des& (0+255),w,b
  3149   000CD6  11BF               	iorwf	(_des+1)& (0+255),w,b
  3150   000CD8  A4D8               	btfss	status,2,c
  3151   000CDA  EF71  F006         	goto	i2u222_41
  3152   000CDE  EF73  F006         	goto	i2u222_40
  3153   000CE2                     i2u222_41:
  3154   000CE2  EF78  F006         	goto	i2l2182
  3155   000CE6                     i2u222_40:
  3156   000CE6                     
  3157                           ; BSR set to: 0
  3158                           ;aceleration.c: 109:             precargaX=arrayX[counter];
  3159   000CE6  065A               	decf	_counter^0,f,c
  3160   000CE8  A0D8               	btfss	status,0,c
  3161   000CEA  065B               	decf	(_counter+1)^0,f,c
  3162                           
  3163                           ;aceleration.c: 110:             precargaY=arrayY[counter];
  3164   000CEC  EF83  F006         	goto	i2l2186
  3165   000CF0                     i2l2182:
  3166                           
  3167                           ; BSR set to: 0
  3168   000CF0  05C0               	decf	_cru& (0+255),w,b
  3169   000CF2  11C1               	iorwf	(_cru+1)& (0+255),w,b
  3170   000CF4  A4D8               	btfss	status,2,c
  3171   000CF6  EF7F  F006         	goto	i2u223_41
  3172   000CFA  EF81  F006         	goto	i2u223_40
  3173   000CFE                     i2u223_41:
  3174   000CFE  EF83  F006         	goto	i2l2186
  3175   000D02                     i2u223_40:
  3176   000D02                     
  3177                           ; BSR set to: 0
  3178                           ;aceleration.c: 111:         }
  3179   000D02  4BBC               	infsnz	_counterVC& (0+255),f,b
  3180   000D04  2BBD               	incf	(_counterVC+1)& (0+255),f,b
  3181   000D06                     i2l2186:
  3182                           
  3183                           ; BSR set to: 0
  3184                           ;aceleration.c: 114: 
  3185   000D06  BE5B               	btfsc	(_counter+1)^0,7,c
  3186   000D08  EF8F  F006         	goto	i2u224_41
  3187   000D0C  505B               	movf	(_counter+1)^0,w,c
  3188   000D0E  E109               	bnz	i2u224_40
  3189   000D10  0E13               	movlw	19
  3190   000D12  5C5A               	subwf	_counter^0,w,c
  3191   000D14  A0D8               	btfss	status,0,c
  3192   000D16  EF8F  F006         	goto	i2u224_41
  3193   000D1A  EF91  F006         	goto	i2u224_40
  3194   000D1E                     i2u224_41:
  3195   000D1E  EFA4  F006         	goto	i2l2192
  3196   000D22                     i2u224_40:
  3197   000D22                     
  3198                           ; BSR set to: 0
  3199   000D22  05E2               	decf	_ac& (0+255),w,b
  3200   000D24  11E3               	iorwf	(_ac+1)& (0+255),w,b
  3201   000D26  A4D8               	btfss	status,2,c
  3202   000D28  EF98  F006         	goto	i2u225_41
  3203   000D2C  EF9A  F006         	goto	i2u225_40
  3204   000D30                     i2u225_41:
  3205   000D30  EFA4  F006         	goto	i2l2192
  3206   000D34                     i2u225_40:
  3207   000D34                     
  3208                           ; BSR set to: 0
  3209                           ;aceleration.c: 115:             TMR1 = precargaX;
  3210   000D34  0E00               	movlw	0
  3211   000D36  6FE3               	movwf	(_ac+1)& (0+255),b
  3212   000D38  0E00               	movlw	0
  3213   000D3A  6FE2               	movwf	_ac& (0+255),b
  3214                           
  3215                           ;aceleration.c: 116:         }
  3216   000D3C  0E00               	movlw	0
  3217   000D3E  6FC1               	movwf	(_cru+1)& (0+255),b
  3218   000D40  0E01               	movlw	1
  3219   000D42  6FC0               	movwf	_cru& (0+255),b
  3220                           
  3221                           ;aceleration.c: 117: 
  3222   000D44  EFE7  F006         	goto	i2l2206
  3223   000D48                     i2l2192:
  3224                           
  3225                           ; BSR set to: 0
  3226   000D48  BE5B               	btfsc	(_counter+1)^0,7,c
  3227   000D4A  EFB0  F006         	goto	i2u226_41
  3228   000D4E  505B               	movf	(_counter+1)^0,w,c
  3229   000D50  E109               	bnz	i2u226_40
  3230   000D52  0E13               	movlw	19
  3231   000D54  5C5A               	subwf	_counter^0,w,c
  3232   000D56  A0D8               	btfss	status,0,c
  3233   000D58  EFB0  F006         	goto	i2u226_41
  3234   000D5C  EFB2  F006         	goto	i2u226_40
  3235   000D60                     i2u226_41:
  3236   000D60  EFD3  F006         	goto	i2l2200
  3237   000D64                     i2u226_40:
  3238   000D64                     
  3239                           ; BSR set to: 0
  3240   000D64  05C0               	decf	_cru& (0+255),w,b
  3241   000D66  11C1               	iorwf	(_cru+1)& (0+255),w,b
  3242   000D68  A4D8               	btfss	status,2,c
  3243   000D6A  EFB9  F006         	goto	i2u227_41
  3244   000D6E  EFBB  F006         	goto	i2u227_40
  3245   000D72                     i2u227_41:
  3246   000D72  EFD3  F006         	goto	i2l2200
  3247   000D76                     i2u227_40:
  3248   000D76                     
  3249                           ; BSR set to: 0
  3250   000D76  BFBD               	btfsc	(_counterVC+1)& (0+255),7,b
  3251   000D78  EFC7  F006         	goto	i2u228_41
  3252   000D7C  51BD               	movf	(_counterVC+1)& (0+255),w,b
  3253   000D7E  E109               	bnz	i2u228_40
  3254   000D80  0E14               	movlw	20
  3255   000D82  5DBC               	subwf	_counterVC& (0+255),w,b
  3256   000D84  A0D8               	btfss	status,0,c
  3257   000D86  EFC7  F006         	goto	i2u228_41
  3258   000D8A  EFC9  F006         	goto	i2u228_40
  3259   000D8E                     i2u228_41:
  3260   000D8E  EFD3  F006         	goto	i2l2200
  3261   000D92                     i2u228_40:
  3262   000D92                     
  3263                           ; BSR set to: 0
  3264                           ;aceleration.c: 118:         if(pasosYDados<pasosY){
  3265   000D92  0E00               	movlw	0
  3266   000D94  6FC1               	movwf	(_cru+1)& (0+255),b
  3267   000D96  0E00               	movlw	0
  3268   000D98  6FC0               	movwf	_cru& (0+255),b
  3269                           
  3270                           ;aceleration.c: 119: 
  3271   000D9A  0E00               	movlw	0
  3272   000D9C  6FBF               	movwf	(_des+1)& (0+255),b
  3273   000D9E  0E01               	movlw	1
  3274   000DA0  6FBE               	movwf	_des& (0+255),b
  3275                           
  3276                           ;aceleration.c: 120:             TMR3 = precargaY;
  3277   000DA2  EFE7  F006         	goto	i2l2206
  3278   000DA6                     i2l2200:
  3279                           
  3280                           ; BSR set to: 0
  3281   000DA6  BE5B               	btfsc	(_counter+1)^0,7,c
  3282   000DA8  EFDA  F006         	goto	i2u229_40
  3283   000DAC  EFD8  F006         	goto	i2u229_41
  3284   000DB0                     i2u229_41:
  3285   000DB0  EFE7  F006         	goto	i2l2206
  3286   000DB4                     i2u229_40:
  3287   000DB4                     
  3288                           ; BSR set to: 0
  3289   000DB4  05BE               	decf	_des& (0+255),w,b
  3290   000DB6  11BF               	iorwf	(_des+1)& (0+255),w,b
  3291   000DB8  A4D8               	btfss	status,2,c
  3292   000DBA  EFE1  F006         	goto	i2u230_41
  3293   000DBE  EFE3  F006         	goto	i2u230_40
  3294   000DC2                     i2u230_41:
  3295   000DC2  EFE7  F006         	goto	i2l2206
  3296   000DC6                     i2u230_40:
  3297   000DC6                     
  3298                           ; BSR set to: 0
  3299                           ;aceleration.c: 121:         }
  3300   000DC6  0E00               	movlw	0
  3301   000DC8  6FBF               	movwf	(_des+1)& (0+255),b
  3302   000DCA  0E00               	movlw	0
  3303   000DCC  6FBE               	movwf	_des& (0+255),b
  3304   000DCE                     i2l2206:
  3305                           
  3306                           ; BSR set to: 0
  3307                           ;aceleration.c: 124:     if(TMR1IF==1){
  3308   000DCE  BE5B               	btfsc	(_counter+1)^0,7,c
  3309   000DD0  EFEC  F006         	goto	i2u231_41
  3310   000DD4  EFEE  F006         	goto	i2u231_40
  3311   000DD8                     i2u231_41:
  3312   000DD8  EF16  F007         	goto	i2l2212
  3313   000DDC                     i2u231_40:
  3314   000DDC                     
  3315                           ; BSR set to: 0
  3316   000DDC  BE5B               	btfsc	(_counter+1)^0,7,c
  3317   000DDE  EFFC  F006         	goto	i2u232_40
  3318   000DE2  505B               	movf	(_counter+1)^0,w,c
  3319   000DE4  E107               	bnz	i2u232_41
  3320   000DE6  0E14               	movlw	20
  3321   000DE8  5C5A               	subwf	_counter^0,w,c
  3322   000DEA  B0D8               	btfsc	status,0,c
  3323   000DEC  EFFA  F006         	goto	i2u232_41
  3324   000DF0  EFFC  F006         	goto	i2u232_40
  3325   000DF4                     i2u232_41:
  3326   000DF4  EF16  F007         	goto	i2l2212
  3327   000DF8                     i2u232_40:
  3328   000DF8                     
  3329                           ; BSR set to: 0
  3330                           ;aceleration.c: 125:         TMR1IF=0;
  3331   000DF8  90D8               	bcf	status,0,c
  3332   000DFA  345A               	rlcf	_counter^0,w,c
  3333   000DFC  6ED9               	movwf	fsr2l,c
  3334   000DFE  345B               	rlcf	(_counter+1)^0,w,c
  3335   000E00  6EDA               	movwf	fsr2h,c
  3336   000E02  0E88               	movlw	low _arrayX
  3337   000E04  26D9               	addwf	fsr2l,f,c
  3338   000E06  0E00               	movlw	high _arrayX
  3339   000E08  22DA               	addwfc	fsr2h,f,c
  3340   000E0A  CFDE F0C4          	movff	postinc2,_precargaX
  3341   000E0E  CFDD F0C5          	movff	postdec2,_precargaX+1
  3342                           
  3343                           ;aceleration.c: 126:         TMR1 = precargaX;
  3344   000E12  90D8               	bcf	status,0,c
  3345   000E14  345A               	rlcf	_counter^0,w,c
  3346   000E16  6ED9               	movwf	fsr2l,c
  3347   000E18  345B               	rlcf	(_counter+1)^0,w,c
  3348   000E1A  6EDA               	movwf	fsr2h,c
  3349   000E1C  0E60               	movlw	low _arrayY
  3350   000E1E  26D9               	addwf	fsr2l,f,c
  3351   000E20  0E00               	movlw	high _arrayY
  3352   000E22  22DA               	addwfc	fsr2h,f,c
  3353   000E24  CFDE F0C2          	movff	postinc2,_precargaY
  3354   000E28  CFDD F0C3          	movff	postdec2,_precargaY+1
  3355   000E2C                     i2l2212:
  3356                           
  3357                           ; BSR set to: 0
  3358                           ;aceleration.c: 129: 
  3359   000E2C  51E6               	movf	_pasosX& (0+255),w,b
  3360   000E2E  5C58               	subwf	_pasosXDados^0,w,c
  3361   000E30  5059               	movf	(_pasosXDados+1)^0,w,c
  3362   000E32  0A80               	xorlw	128
  3363   000E34  6E01               	movwf	??_ISR^0,c
  3364   000E36  51E7               	movf	(_pasosX+1)& (0+255),w,b
  3365   000E38  0A80               	xorlw	128
  3366   000E3A  5801               	subwfb	??_ISR^0,w,c
  3367   000E3C  B0D8               	btfsc	status,0,c
  3368   000E3E  EF23  F007         	goto	i2u233_41
  3369   000E42  EF25  F007         	goto	i2u233_40
  3370   000E46                     i2u233_41:
  3371   000E46  EF29  F007         	goto	i2l2216
  3372   000E4A                     i2u233_40:
  3373   000E4A                     
  3374                           ; BSR set to: 0
  3375                           ;aceleration.c: 131:             pasosXDados++;
  3376   000E4A  C0C4  FFCE         	movff	_precargaX,4046	;volatile
  3377   000E4E  C0C5  FFCF         	movff	_precargaX+1,4047	;volatile
  3378   000E52                     i2l2216:
  3379                           
  3380                           ; BSR set to: 0
  3381                           ;aceleration.c: 134:         if(pasosXDados < pasosX){
  3382   000E52  51E4               	movf	_pasosY& (0+255),w,b
  3383   000E54  5C56               	subwf	_pasosYDados^0,w,c
  3384   000E56  5057               	movf	(_pasosYDados+1)^0,w,c
  3385   000E58  0A80               	xorlw	128
  3386   000E5A  6E01               	movwf	??_ISR^0,c
  3387   000E5C  51E5               	movf	(_pasosY+1)& (0+255),w,b
  3388   000E5E  0A80               	xorlw	128
  3389   000E60  5801               	subwfb	??_ISR^0,w,c
  3390   000E62  B0D8               	btfsc	status,0,c
  3391   000E64  EF36  F007         	goto	i2u234_41
  3392   000E68  EF38  F007         	goto	i2u234_40
  3393   000E6C                     i2u234_41:
  3394   000E6C  EF3C  F007         	goto	i2l115
  3395   000E70                     i2u234_40:
  3396   000E70                     
  3397                           ; BSR set to: 0
  3398                           ;aceleration.c: 136:         }
  3399   000E70  C0C2  FFB2         	movff	_precargaY,4018	;volatile
  3400   000E74  C0C3  FFB3         	movff	_precargaY+1,4019	;volatile
  3401   000E78                     i2l115:
  3402                           
  3403                           ;aceleration.c: 140:         TMR3IF=0;
  3404   000E78  A09E               	btfss	3998,0,c	;volatile
  3405   000E7A  EF41  F007         	goto	i2u235_41
  3406   000E7E  EF43  F007         	goto	i2u235_40
  3407   000E82                     i2u235_41:
  3408   000E82  EF61  F007         	goto	i2l129
  3409   000E86                     i2u235_40:
  3410   000E86                     
  3411                           ;aceleration.c: 141:         TMR3 = precargaY;
  3412   000E86  909E               	bcf	3998,0,c	;volatile
  3413                           
  3414                           ;aceleration.c: 142: 
  3415   000E88  C0C4  FFCE         	movff	_precargaX,4046	;volatile
  3416   000E8C  C0C5  FFCF         	movff	_precargaX+1,4047	;volatile
  3417                           
  3418                           ;aceleration.c: 146: 
  3419   000E90  A08C               	btfss	3980,0,c	;volatile
  3420   000E92  EF4D  F007         	goto	i2u236_41
  3421   000E96  EF4F  F007         	goto	i2u236_40
  3422   000E9A                     i2u236_41:
  3423   000E9A  EF51  F007         	goto	i2l2224
  3424   000E9E                     i2u236_40:
  3425   000E9E                     
  3426                           ;aceleration.c: 147:         if(LATD1==1){
  3427   000E9E  4A58               	infsnz	_pasosXDados^0,f,c
  3428   000EA0  2A59               	incf	(_pasosXDados+1)^0,f,c
  3429   000EA2                     i2l2224:
  3430                           
  3431                           ;aceleration.c: 150:     }
  3432   000EA2  0100               	movlb	0	; () banked
  3433   000EA4  51E6               	movf	_pasosX& (0+255),w,b
  3434   000EA6  5C58               	subwf	_pasosXDados^0,w,c
  3435   000EA8  5059               	movf	(_pasosXDados+1)^0,w,c
  3436   000EAA  0A80               	xorlw	128
  3437   000EAC  6E01               	movwf	??_ISR^0,c
  3438   000EAE  51E7               	movf	(_pasosX+1)& (0+255),w,b
  3439   000EB0  0A80               	xorlw	128
  3440   000EB2  5801               	subwfb	??_ISR^0,w,c
  3441   000EB4  B0D8               	btfsc	status,0,c
  3442   000EB6  EF5F  F007         	goto	i2u237_41
  3443   000EBA  EF61  F007         	goto	i2u237_40
  3444   000EBE                     i2u237_41:
  3445   000EBE  EF61  F007         	goto	i2l129
  3446   000EC2                     i2u237_40:
  3447   000EC2                     i2l129:
  3448                           
  3449                           ;aceleration.c: 155:    for (i=1;i<21;i++){
  3450   000EC2  A2A1               	btfss	4001,1,c	;volatile
  3451   000EC4  EF66  F007         	goto	i2u238_41
  3452   000EC8  EF68  F007         	goto	i2u238_40
  3453   000ECC                     i2u238_41:
  3454   000ECC  EF86  F007         	goto	i2l135
  3455   000ED0                     i2u238_40:
  3456   000ED0                     
  3457                           ;aceleration.c: 156:         vInsx = i*v5x;
  3458   000ED0  92A1               	bcf	4001,1,c	;volatile
  3459                           
  3460                           ;aceleration.c: 157:         vInsy = i*v5y;
  3461   000ED2  C0C2  FFB2         	movff	_precargaY,4018	;volatile
  3462   000ED6  C0C3  FFB3         	movff	_precargaY+1,4019	;volatile
  3463   000EDA                     
  3464                           ;aceleration.c: 159:         TInty = 0.5/vInsy;
  3465   000EDA  0100               	movlb	0	; () banked
  3466   000EDC  51E4               	movf	_pasosY& (0+255),w,b
  3467   000EDE  5C56               	subwf	_pasosYDados^0,w,c
  3468   000EE0  5057               	movf	(_pasosYDados+1)^0,w,c
  3469   000EE2  0A80               	xorlw	128
  3470   000EE4  6E01               	movwf	??_ISR^0,c
  3471   000EE6  51E5               	movf	(_pasosY+1)& (0+255),w,b
  3472   000EE8  0A80               	xorlw	128
  3473   000EEA  5801               	subwfb	??_ISR^0,w,c
  3474   000EEC  B0D8               	btfsc	status,0,c
  3475   000EEE  EF7B  F007         	goto	i2u239_41
  3476   000EF2  EF7D  F007         	goto	i2u239_40
  3477   000EF6                     i2u239_41:
  3478   000EF6  EF7D  F007         	goto	i2l133
  3479   000EFA                     i2u239_40:
  3480   000EFA                     i2l133:
  3481                           
  3482                           ; BSR set to: 0
  3483                           ;aceleration.c: 163: }
  3484   000EFA  A28C               	btfss	3980,1,c	;volatile
  3485   000EFC  EF82  F007         	goto	i2u240_41
  3486   000F00  EF84  F007         	goto	i2u240_40
  3487   000F04                     i2u240_41:
  3488   000F04  EF86  F007         	goto	i2l135
  3489   000F08                     i2u240_40:
  3490   000F08                     
  3491                           ; BSR set to: 0
  3492   000F08  4A56               	infsnz	_pasosYDados^0,f,c
  3493   000F0A  2A57               	incf	(_pasosYDados+1)^0,f,c
  3494   000F0C                     i2l135:
  3495   000F0C  C003  FFDA         	movff	??_ISR+2,fsr2h
  3496   000F10  C002  FFD9         	movff	??_ISR+1,fsr2l
  3497   000F14  925C               	bcf	int$flags,1,c	;clear compiler interrupt flag (level 2)
  3498   000F16  0011               	retfie		f
  3499   000F18                     __end_of_ISR:
  3500                           	callstack 0
  3501   000000                     
  3502                           	psect	rparam
  3503   000000                     
  3504                           	psect	temp
  3505   00005C                     btemp:
  3506                           	callstack 0
  3507   00005C                     	ds	1
  3508   000000                     int$flags	set	btemp
  3509   000000                     wtemp8	set	btemp+1
  3510   000000                     ttemp5	set	btemp+1
  3511   000000                     ttemp6	set	btemp+4
  3512   000000                     ttemp7	set	btemp+8
  3513                           
  3514                           	psect	idloc
  3515                           
  3516                           ;Config register IDLOC0 @ 0x200000
  3517                           ;	unspecified, using default values
  3518   200000                     	org	2097152
  3519   200000  FF                 	db	255
  3520                           
  3521                           ;Config register IDLOC1 @ 0x200001
  3522                           ;	unspecified, using default values
  3523   200001                     	org	2097153
  3524   200001  FF                 	db	255
  3525                           
  3526                           ;Config register IDLOC2 @ 0x200002
  3527                           ;	unspecified, using default values
  3528   200002                     	org	2097154
  3529   200002  FF                 	db	255
  3530                           
  3531                           ;Config register IDLOC3 @ 0x200003
  3532                           ;	unspecified, using default values
  3533   200003                     	org	2097155
  3534   200003  FF                 	db	255
  3535                           
  3536                           ;Config register IDLOC4 @ 0x200004
  3537                           ;	unspecified, using default values
  3538   200004                     	org	2097156
  3539   200004  FF                 	db	255
  3540                           
  3541                           ;Config register IDLOC5 @ 0x200005
  3542                           ;	unspecified, using default values
  3543   200005                     	org	2097157
  3544   200005  FF                 	db	255
  3545                           
  3546                           ;Config register IDLOC6 @ 0x200006
  3547                           ;	unspecified, using default values
  3548   200006                     	org	2097158
  3549   200006  FF                 	db	255
  3550                           
  3551                           ;Config register IDLOC7 @ 0x200007
  3552                           ;	unspecified, using default values
  3553   200007                     	org	2097159
  3554   200007  FF                 	db	255
  3555                           
  3556                           	psect	config
  3557                           
  3558                           ;Config register CONFIG1L @ 0x300000
  3559                           ;	unspecified, using default values
  3560                           ;	PLL Prescaler Selection bits
  3561                           ;	PLLDIV = 0x0, unprogrammed default
  3562                           ;	System Clock Postscaler Selection bits
  3563                           ;	CPUDIV = 0x0, unprogrammed default
  3564                           ;	USB Clock Selection bit (used in Full-Speed USB mode only; UCFG:FSEN = 1)
  3565                           ;	USBDIV = 0x0, unprogrammed default
  3566   300000                     	org	3145728
  3567   300000  00                 	db	0
  3568                           
  3569                           ;Config register CONFIG1H @ 0x300001
  3570                           ;	Oscillator Selection bits
  3571                           ;	FOSC = INTOSC_EC, Internal oscillator, CLKO function on RA6, EC used by USB (INTCKO)
  3572                           ;	Fail-Safe Clock Monitor Enable bit
  3573                           ;	FCMEN = 0x0, unprogrammed default
  3574                           ;	Internal/External Oscillator Switchover bit
  3575                           ;	IESO = 0x0, unprogrammed default
  3576   300001                     	org	3145729
  3577   300001  09                 	db	9
  3578                           
  3579                           ;Config register CONFIG2L @ 0x300002
  3580                           ;	unspecified, using default values
  3581                           ;	Power-up Timer Enable bit
  3582                           ;	PWRT = 0x1, unprogrammed default
  3583                           ;	Brown-out Reset Enable bits
  3584                           ;	BOR = 0x3, unprogrammed default
  3585                           ;	Brown-out Reset Voltage bits
  3586                           ;	BORV = 0x3, unprogrammed default
  3587                           ;	USB Voltage Regulator Enable bit
  3588                           ;	VREGEN = 0x0, unprogrammed default
  3589   300002                     	org	3145730
  3590   300002  1F                 	db	31
  3591                           
  3592                           ;Config register CONFIG2H @ 0x300003
  3593                           ;	Watchdog Timer Enable bit
  3594                           ;	WDT = OFF, WDT disabled (control is placed on the SWDTEN bit)
  3595                           ;	Watchdog Timer Postscale Select bits
  3596                           ;	WDTPS = 0xF, unprogrammed default
  3597   300003                     	org	3145731
  3598   300003  1E                 	db	30
  3599                           
  3600                           ; Padding undefined space
  3601   300004                     	org	3145732
  3602   300004  FF                 	db	255
  3603                           
  3604                           ;Config register CONFIG3H @ 0x300005
  3605                           ;	CCP2 MUX bit
  3606                           ;	CCP2MX = 0x1, unprogrammed default
  3607                           ;	PORTB A/D Enable bit
  3608                           ;	PBADEN = OFF, PORTB<4:0> pins are configured as digital I/O on Reset
  3609                           ;	Low-Power Timer 1 Oscillator Enable bit
  3610                           ;	LPT1OSC = 0x0, unprogrammed default
  3611                           ;	MCLR Pin Enable bit
  3612                           ;	MCLRE = 0x1, unprogrammed default
  3613   300005                     	org	3145733
  3614   300005  81                 	db	129
  3615                           
  3616                           ;Config register CONFIG4L @ 0x300006
  3617                           ;	Stack Full/Underflow Reset Enable bit
  3618                           ;	STVREN = 0x1, unprogrammed default
  3619                           ;	Single-Supply ICSP Enable bit
  3620                           ;	LVP = OFF, Single-Supply ICSP disabled
  3621                           ;	Dedicated In-Circuit Debug/Programming Port (ICPORT) Enable bit
  3622                           ;	ICPRT = 0x0, unprogrammed default
  3623                           ;	Extended Instruction Set Enable bit
  3624                           ;	XINST = 0x0, unprogrammed default
  3625                           ;	Background Debugger Enable bit
  3626                           ;	DEBUG = 0x1, unprogrammed default
  3627   300006                     	org	3145734
  3628   300006  81                 	db	129
  3629                           
  3630                           ; Padding undefined space
  3631   300007                     	org	3145735
  3632   300007  FF                 	db	255
  3633                           
  3634                           ;Config register CONFIG5L @ 0x300008
  3635                           ;	unspecified, using default values
  3636                           ;	Code Protection bit
  3637                           ;	CP0 = 0x1, unprogrammed default
  3638                           ;	Code Protection bit
  3639                           ;	CP1 = 0x1, unprogrammed default
  3640                           ;	Code Protection bit
  3641                           ;	CP2 = 0x1, unprogrammed default
  3642                           ;	Code Protection bit
  3643                           ;	CP3 = 0x1, unprogrammed default
  3644   300008                     	org	3145736
  3645   300008  0F                 	db	15
  3646                           
  3647                           ;Config register CONFIG5H @ 0x300009
  3648                           ;	unspecified, using default values
  3649                           ;	Boot Block Code Protection bit
  3650                           ;	CPB = 0x1, unprogrammed default
  3651                           ;	Data EEPROM Code Protection bit
  3652                           ;	CPD = 0x1, unprogrammed default
  3653   300009                     	org	3145737
  3654   300009  C0                 	db	192
  3655                           
  3656                           ;Config register CONFIG6L @ 0x30000A
  3657                           ;	unspecified, using default values
  3658                           ;	Write Protection bit
  3659                           ;	WRT0 = 0x1, unprogrammed default
  3660                           ;	Write Protection bit
  3661                           ;	WRT1 = 0x1, unprogrammed default
  3662                           ;	Write Protection bit
  3663                           ;	WRT2 = 0x1, unprogrammed default
  3664                           ;	Write Protection bit
  3665                           ;	WRT3 = 0x1, unprogrammed default
  3666   30000A                     	org	3145738
  3667   30000A  0F                 	db	15
  3668                           
  3669                           ;Config register CONFIG6H @ 0x30000B
  3670                           ;	unspecified, using default values
  3671                           ;	Configuration Register Write Protection bit
  3672                           ;	WRTC = 0x1, unprogrammed default
  3673                           ;	Boot Block Write Protection bit
  3674                           ;	WRTB = 0x1, unprogrammed default
  3675                           ;	Data EEPROM Write Protection bit
  3676                           ;	WRTD = 0x1, unprogrammed default
  3677   30000B                     	org	3145739
  3678   30000B  E0                 	db	224
  3679                           
  3680                           ;Config register CONFIG7L @ 0x30000C
  3681                           ;	unspecified, using default values
  3682                           ;	Table Read Protection bit
  3683                           ;	EBTR0 = 0x1, unprogrammed default
  3684                           ;	Table Read Protection bit
  3685                           ;	EBTR1 = 0x1, unprogrammed default
  3686                           ;	Table Read Protection bit
  3687                           ;	EBTR2 = 0x1, unprogrammed default
  3688                           ;	Table Read Protection bit
  3689                           ;	EBTR3 = 0x1, unprogrammed default
  3690   30000C                     	org	3145740
  3691   30000C  0F                 	db	15
  3692                           
  3693                           ;Config register CONFIG7H @ 0x30000D
  3694                           ;	unspecified, using default values
  3695                           ;	Boot Block Table Read Protection bit
  3696                           ;	EBTRB = 0x1, unprogrammed default
  3697   30000D                     	org	3145741
  3698   30000D  40                 	db	64
  3699                           tosu	equ	0xFFF
  3700                           tosh	equ	0xFFE
  3701                           tosl	equ	0xFFD
  3702                           stkptr	equ	0xFFC
  3703                           pclatu	equ	0xFFB
  3704                           pclath	equ	0xFFA
  3705                           pcl	equ	0xFF9
  3706                           tblptru	equ	0xFF8
  3707                           tblptrh	equ	0xFF7
  3708                           tblptrl	equ	0xFF6
  3709                           tablat	equ	0xFF5
  3710                           prodh	equ	0xFF4
  3711                           prodl	equ	0xFF3
  3712                           indf0	equ	0xFEF
  3713                           postinc0	equ	0xFEE
  3714                           postdec0	equ	0xFED
  3715                           preinc0	equ	0xFEC
  3716                           plusw0	equ	0xFEB
  3717                           fsr0h	equ	0xFEA
  3718                           fsr0l	equ	0xFE9
  3719                           wreg	equ	0xFE8
  3720                           indf1	equ	0xFE7
  3721                           postinc1	equ	0xFE6
  3722                           postdec1	equ	0xFE5
  3723                           preinc1	equ	0xFE4
  3724                           plusw1	equ	0xFE3
  3725                           fsr1h	equ	0xFE2
  3726                           fsr1l	equ	0xFE1
  3727                           bsr	equ	0xFE0
  3728                           indf2	equ	0xFDF
  3729                           postinc2	equ	0xFDE
  3730                           postdec2	equ	0xFDD
  3731                           preinc2	equ	0xFDC
  3732                           plusw2	equ	0xFDB
  3733                           fsr2h	equ	0xFDA
  3734                           fsr2l	equ	0xFD9
  3735                           status	equ	0xFD8

Data Sizes:
    Strings     0
    Constant    0
    Data        0
    BSS         118
    Persistent  32
    Stack       0

Auto Spaces:
    Space          Size  Autos    Used
    COMRAM           94     85      91
    BANK0           160      2     146
    BANK1           256      0       0
    BANK2           256      0       0
    BANK3           256      0       0
    BANK4           256      0       0
    BANK5           256      0       0
    BANK6           256      0       0
    BANK7           256      0       0

Pointer List with Targets:

    None.

Critical Paths under _main in COMRAM

    _precargas->___fltol
    ___fltol->___flsub
    ___flsub->___fldiv
    ___flmul->___xxtofl
    ___fldiv->___flmul

Critical Paths under _ISR in COMRAM

    None.

Critical Paths under _main in BANK0

    _main->_precargas

Critical Paths under _ISR in BANK0

    None.

Critical Paths under _main in BANK1

    None.

Critical Paths under _ISR in BANK1

    None.

Critical Paths under _main in BANK2

    None.

Critical Paths under _ISR in BANK2

    None.

Critical Paths under _main in BANK3

    None.

Critical Paths under _ISR in BANK3

    None.

Critical Paths under _main in BANK4

    None.

Critical Paths under _ISR in BANK4

    None.

Critical Paths under _main in BANK5

    None.

Critical Paths under _ISR in BANK5

    None.

Critical Paths under _main in BANK6

    None.

Critical Paths under _ISR in BANK6

    None.

Critical Paths under _main in BANK7

    None.

Critical Paths under _ISR in BANK7

    None.

Call Graph Tables:

 ---------------------------------------------------------------------------------
 (Depth) Function   	        Calls       Base Space   Used Autos Params    Refs
 ---------------------------------------------------------------------------------
 (0) _main                                                 0     0      0   19920
                            ___fldiv
                            ___flmul
                           ___xxtofl
                          _precargas
 ---------------------------------------------------------------------------------
 (1) _precargas                                            2     2      0   12228
                                              0 BANK0      2     2      0
                            ___fldiv
                            ___flmul
                            ___flsub
                            ___fltol
                           ___xxtofl
 ---------------------------------------------------------------------------------
 (2) ___xxtofl                                            14    10      4     836
                                              3 COMRAM    14    10      4
 ---------------------------------------------------------------------------------
 (2) ___fltol                                             10     6      4     517
                                             75 COMRAM    10     6      4
                            ___fldiv (ARG)
                            ___flmul (ARG)
                            ___flsub (ARG)
 ---------------------------------------------------------------------------------
 (2) ___flsub                                              8     0      8    3827
                                             67 COMRAM     8     0      8
                            ___fladd
                            ___fldiv (ARG)
                            ___flmul (ARG)
 ---------------------------------------------------------------------------------
 (3) ___fladd                                             16     8      8    3262
                                              3 COMRAM    16     8      8
 ---------------------------------------------------------------------------------
 (2) ___flmul                                             25    17      8    3773
                                             17 COMRAM    25    17      8
                           ___xxtofl (ARG)
 ---------------------------------------------------------------------------------
 (2) ___fldiv                                             25    17      8    3083
                                             42 COMRAM    25    17      8
                            ___flmul (ARG)
                           ___xxtofl (ARG)
 ---------------------------------------------------------------------------------
 Estimated maximum stack depth 3
 ---------------------------------------------------------------------------------
 (Depth) Function   	        Calls       Base Space   Used Autos Params    Refs
 ---------------------------------------------------------------------------------
 (4) _ISR                                                  3     3      0       0
                                              0 COMRAM     3     3      0
 ---------------------------------------------------------------------------------
 Estimated maximum stack depth 4
 ---------------------------------------------------------------------------------

 Call Graph Graphs:

 _main (ROOT)
   ___fldiv
     ___flmul (ARG)
       ___xxtofl (ARG)
     ___xxtofl (ARG)
   ___flmul
   ___xxtofl
   _precargas
     ___fldiv
     ___flmul
     ___flsub
       ___fladd
       ___fldiv (ARG)
       ___flmul (ARG)
     ___fltol
       ___fldiv (ARG)
       ___flmul (ARG)
       ___flsub (ARG)
     ___xxtofl

 _ISR (ROOT)

 Address spaces:
Name               Size   Autos  Total    Cost      Usage
BIGRAM             7FF      0       0      31        0.0%
EEDATA             100      0       0       0        0.0%
BITBANK7           100      0       0      18        0.0%
BANK7              100      0       0      19        0.0%
BITBANK6           100      0       0      16        0.0%
BANK6              100      0       0      17        0.0%
BITBANK5           100      0       0      14        0.0%
BANK5              100      0       0      15        0.0%
BITBANK4           100      0       0      12        0.0%
BANK4              100      0       0      13        0.0%
BITBANK3           100      0       0      10        0.0%
BANK3              100      0       0      11        0.0%
BITBANK2           100      0       0       8        0.0%
BANK2              100      0       0       9        0.0%
BITBANK1           100      0       0       6        0.0%
BANK1              100      0       0       7        0.0%
BITBANK0            A0      0       0       4        0.0%
BANK0               A0      2      92       5       91.2%
BITCOMRAM           5E      0       0       0        0.0%
COMRAM              5E     55      5B       1       96.8%
BITBIGSFRll         2C      0       0      29        0.0%
BITBIGSFRhlhhhh     1A      0       0      21        0.0%
BITBIGSFRhlhhll     19      0       0      24        0.0%
BITBIGSFRhlhhll      F      0       0      25        0.0%
BITBIGSFRhh          D      0       0      20        0.0%
BITBIGSFRlh          8      0       0      28        0.0%
BITBIGSFRhll         7      0       0      27        0.0%
BITBIGSFRhlhhlh      3      0       0      23        0.0%
BITBIGSFRhlhhhl      1      0       0      22        0.0%
BITBIGSFRhlhl        1      0       0      26        0.0%
BIGSFR               0      0       0     200        0.0%
BITSFR               0      0       0     200        0.0%
SFR                  0      0       0     200        0.0%
STACK                0      0       0       2        0.0%
NULL                 0      0       0       0        0.0%
ABS                  0      0      ED      30        0.0%
DATA                 0      0      ED       3        0.0%
CODE                 0      0       0       0        0.0%


Microchip Technology PIC18 Macro Assembler V2.40 build 20220703182018 
Symbol Table                                                                                   Sat Sep 10 11:59:56 2022

           ___fldiv@aexp 0043             ___fldiv@bexp 0042             ___fldiv@sign 003B  
                     _Ta 00DE                       _ac 00E2                      l107 138C  
                    l140 117A                      l108 138C                      l440 164C  
                    l713 1692                      l801 1546                      l730 0AB8  
                    l812 14DE                      l725 0C94                      l805 1482  
                    l727 0AF4                      l671 0200                      l736 0B3A  
                    l680 04D0                      l672 01EE                      l761 08FA  
                    l673 01B4                      l738 0BB2                      l739 0BA0  
                    l764 078C                      l757 0596                      l774 08BC  
                    l766 0804                      l767 07F2                      l688 031A  
                    l697 03EA                      l698 03D8                      l798 13EA  
                    _GIE 007F97                      _ISR 0008                      _TvC 00B0  
                    _v5x 00D6                      _v5y 00D2                      _des 00BE  
                    _vCx 00EC                      _vCy 00E8                      _cru 00C0  
                    wreg 000FE8             ___flmul@aexp 001F             ___flmul@bexp 0024  
           ___flmul@sign 001E             ___flmul@temp 0029             ___flmul@prod 0025  
                   ?_ISR 0001             ___fltol@exp1 0055                     l2300 0136  
                   l2310 014A                     l2302 013A                     l2400 03BA  
                   l2320 019C                     l2312 014E                     l2304 013E  
                   l2240 002C                     l2410 0414                     l2402 03D0  
                   l2330 01E0                     l2322 01AC                     l2306 0142  
                   l2314 0152                     l2250 0060                     l2242 002E  
                   l2500 0A5C                     l2420 0490                     l2412 044E  
                   l2332 01E2                     l2324 01C2                     l2316 0156  
                   l2308 0146                     l2260 0092                     l2244 003E  
                   l2252 0068                     l2236 0012                     l2510 0AA8  
                   l2502 0A6C                     l2430 04B0                     l2422 0494  
                   l2406 03FA                     l2414 0450                     l2350 026A  
                   l2342 0232                     l2334 01EC                     l2326 01CE  
                   l2318 0180                     l2270 00C8                     l2262 0098  
                   l2254 0078                     l2246 004E                     l2238 001E  
                   l2520 0AF2                     l2512 0AB6                     l2504 0A7C  
                   l2440 0908                     l2600 0550                     l2432 04BE  
                   l2424 04A2                     l2416 0460                     l2408 0406  
                   l2352 026E                     l2344 0242                     l2336 020E  
                   l2360 028E                     l2328 01D2                     l2280 0104  
                   l2272 00D8                     l2264 00A6                     l2256 007E  
                   l2248 005E                     l2530 0B38                     l2522 0B04  
                   l2514 0AC2                     l2506 0A84                     l2450 0948  
                   l2442 0916                     l2610 05A6                     l2602 0560  
                   l2434 04C0                     l2426 04A8                     l2418 0470  
                   l2362 02B4                     l2370 030A                     l2354 027C  
                   l2346 0250                     l2338 021E                     l2290 0122  
                   l2282 0112                     l2274 00DA                     l2266 00A8  
                   l2258 0090                     l2540 0B98                     l2524 0B1A  
                   l2532 0B4A                     l2516 0AE0                     l2508 0A94  
                   l2460 096E                     l2452 094A                     l2444 0918  
                   l2700 08E6                     l2620 05E0                     l2612 05B6  
                   l2604 0570                     l2428 04AA                     l2380 035E  
                   l2372 0330                     l2364 02E8                     l2356 027E  
                   l2348 025E                     l2292 0126                     l2284 0116  
                   l2268 00B8                     l2276 00E2                     l2550 0C06  
                   l2534 0B58                     l2526 0B20                     l2518 0AE2  
                   l2470 09AE                     l2462 097C                     l2446 0928  
                   l2454 0952                     l2438 08FC                     l2702 08EA  
                   l2630 0632                     l2622 05F6                     l2606 0580  
                   l2390 0388                     l2382 036C                     l2374 0340  
                   l2366 02EA                     l2358 0288                     l2294 012A  
                   l2286 011A                     l2278 00F2                     l2560 0C70  
                   l2544 0BC2                     l2552 0C0A                     l2536 0B5C  
                   l2528 0B2A                     l2480 09EE                     l2472 09B0  
                   l2464 097E                     l2456 0962                     l2448 0938  
                   l2640 0678                     l2632 0640                     l2624 0602  
                   l2616 05CA                     l2608 0586                     l2392 0398  
                   l2384 036E                     l2368 02FA                     l2296 012E  
                   l2288 011E                     l2720 159C                     l2712 1548  
                   l2562 0C74                     l2554 0C24                     l2546 0BCE  
                   l2538 0B6A                     l2490 0A1E                     l2482 09F6  
                   l2466 098E                     l2474 09B8                     l2458 0968  
                   l2650 06E6                     l2642 0692                     l2634 064C  
                   l2626 061A                     l2618 05D6                     l2386 037C  
                   l2378 0354                     l2394 039A                     l2298 0132  
                   l2706 164E                     l2722 159E                     l2714 155E  
                   l2810 0FBA                     l2802 0F18                     l2564 0C82  
                   l2556 0C3A                     l2548 0BDC                     l2492 0A1E  
                   l2484 09FA                     l2476 09C8                     l2468 099E  
                   l2660 077C                     l2652 0710                     l2644 06A2  
                   l2636 065C                     l2628 0626                     l2580 04EC  
                   l2388 0384                     l2396 03A8                     l2708 165E  
                   l2724 15AE                     l2820 115E                     l2812 0FEE  
                   l2566 0C88                     l2558 0C54                     l2478 09DE  
                   l2670 07BC                     l2662 078A                     l2654 0746  
                   l2646 06BE                     l2638 0668                     l2590 0524  
                   l2582 04EE                     l2398 03AC                     l2750 162C  
                   l2734 15D8                     l2726 15B2                     l2718 1572  
                   l2814 1022                     l2830 1276                     l2822 117C  
                   l2568 0C8A                     l2496 0A32                     l2488 0A0E  
                   l2680 082E                     l2672 07EA                     l2664 079C  
                   l2656 0754                     l2648 06CA                     l2592 0534  
                   l2584 04FE                     l2576 04D2                     l2752 163C  
                   l2744 1600                     l2736 15E2                     l2728 15C0  
                   l2760 13B4                     l2816 10BE                     l2808 0F22  
                   l2840 1356                     l2832 12E6                     l2824 1180  
                   l2498 0A4C                     l2690 08A4                     l2682 0858  
                   l2666 07AA                     l2658 0772                     l2594 053A  
                   l2586 050E                     l2578 04DE                     l2746 160C  
                   l2738 15EC                     l2770 142C                     l2762 13FA  
                   l2818 115A                     l2850 1362                     l2842 135A  
                   l2834 131A                     l2826 11D2                     l2692 08C0  
                   l2676 0814                     l2684 085C                     l2668 07AE  
                   l2596 0540                     l2588 051E                     l2748 161C  
                   l2780 14B4                     l2772 1438                     l2764 1410  
                   l2756 1396                     l2860 136E                     l2852 1364  
                   l2844 135C                     l2836 134E                     l2828 1206  
                   l2694 08D0                     l2686 0876                     l2678 0820  
                   l2598 054E                     l2790 14F2                     l2782 14C0  
                   l2774 146A                     l2758 13A6                     l2870 1382  
                   l2862 1372                     l2854 1366                     l2846 135E  
                   l2838 1352                     l2696 08DE                     l2688 088A  
                   l2792 1516                     l2784 14CE                     l2776 146C  
                   l2768 1424                     l2872 1386                     l2864 1374  
                   l2856 1368                     l2848 1360                     l2698 08E0  
                   l2794 1526                     l2786 14EC                     l2778 1478  
                   l2874 1388                     l2866 137C                     l2858 136A  
                   l2796 1534                     l2788 14EE                     l2876 138A  
                   l2868 1380                     l2798 1536                     u3000 0C24  
                   u3001 0C20                     u3010 0C54                     u3011 0C50  
                   u3020 0C82                     u3100 05B6                     u3021 0C7E  
                   u3101 05B2                     u3110 0730                     u3030 04EC  
                   u3031 04E8                     u3200 08A4                     u3120 078A  
                   u3040 04FE                     _LATD 000F8C                     u3201 08A0  
                   u3121 0786                     u3041 04FA                     u3210 08DE  
                   u3130 07AA                     u3050 050E                     u2410 002C  
                   u3211 08DA                     u3131 07A6                     u3115 0726  
                   u3051 050A                     u2411 0028                     u3140 07BC  
                   u3060 054E                     u2500 0180                     u2420 003E  
                   u3220 155E                     u3300 13B4                     u3141 07B8  
                   u3061 054A                     u2501 017C                     u2421 003A  
                   u3221 155A                     u3301 13B0                     u3150 07EA  
                   u3070 0560                     u2510 0198                     u2430 004E  
                   u3230 1592                     u3310 1410                     u3151 07E6  
                   u3071 055C                     u2511 0192                     u2431 004A  
                   u3311 140C                     u3160 0800                     u3080 0570  
                   u2600 027C                     u2520 019A                     u2440 0090  
                   u3240 15C0                     u3320 1466                     u3161 07FC  
                   u3081 056C                     u2601 0278                     u2441 008C  
                   u3241 15BC                     u3321 1462                     u3170 0814  
                   u3090 05A6                     u2610 02B4                     u2530 01C2  
                   u2450 00A6                     u3250 15D4                     u3330 14B0  
                   u3171 0810                     u3091 05A2                     u2611 02B0  
                   u2531 01BE                     u2451 00A2                     u3251 15D0  
                   u3235 1588                     u3331 14AC                     u3180 082E  
                   u2700 03D0                     u2620 02FA                     u2540 01E0  
                   u2460 00B8                     u3260 15FC                     u3340 14CE  
                   u3181 082A                     u2701 03CC                     u2621 02F6  
                   u2541 01DC                     u2461 00B4                     u3261 15F8  
                   u3341 14CA                     u3190 0876                     u2710 03E6  
                   u2630 0330                     u2550 0200                     u2470 00C8  
                   u3270 161C                     u3350 14DE                     u3191 0872  
                   u2711 03E2                     u2631 032C                     u2551 01FC  
                   u2471 00C4                     u3271 1618                     u3351 14DA  
                   u2800 0916                     u2720 03FA                     u2640 0340  
                   u2560 020E                     u2480 0104                     u3280 162C  
                   u3360 14EC                     u2801 0912                     u2721 03F6  
                   u2641 033C                     u2561 020A                     u2481 0100  
                   u3281 1628                     u3361 14E8                     u2810 0928  
                   u2730 0414                     u2650 036C                     u2570 021E  
                   u2490 0112                     u3370 1526                     u3290 13A6  
                   u2811 0924                     u2731 0410                     u2651 0368  
                   u2571 021A                     u2491 010E                     u3371 1522  
                   u3291 13A2                     u2900 0AE0                     u2820 0938  
                   u2740 044E                     u2660 037C                     u2580 0250  
                   u3380 1534                     u2901 0ADC                     u2821 0934  
                   u2741 044A                     u2661 0378                     u2581 024C  
                   u3381 1530                     u2910 0B04                     u2830 097C  
                   u2750 0460                     u2670 0398                     u2590 025E  
                   u3390 117A                     u2911 0B00                     u2831 0978  
                   u2751 045C                     u2671 0394                     u2591 025A  
                   u3391 1176                     u2920 0B1A                     u2840 098E  
                   u2760 0470                     u2680 03A8                     u2921 0B16  
                   u2841 098A                     u2761 046C                     u2681 03A4  
                   u2930 0B38                     u2850 099E                     u2770 0490  
                   u2690 03BA                     u2931 0B34                     u2851 099A  
                   u2771 048C                     u2691 03B6                     _PEIE 007F96  
                   u2940 0B58                     u2860 09DE                     u2780 04A2  
                   u2941 0B54                     u2861 09DA                     u2781 049E  
                   u2950 0B6A                     u2870 0A1E                     u2790 04BE  
                   u2951 0B66                     u2871 0A1A                     u2791 04BA  
                   u2960 0B98                     u2880 0A94                     u2961 0B94  
                   u2881 0A90                     u2970 0BAE                     u2890 0AB6  
                   u2971 0BAA                     u2891 0AB2                     u2980 0BC2  
                   u2981 0BBE                     u2990 0BDC                     u2991 0BD8  
                   _TMR0 000FD6                     _TMR1 000FCE                     _TMR3 000FB2  
                   _main 117C                     fsr2h 000FDA                     fsr2l 000FD9  
                   btemp 005C                     prodh 000FF4                     prodl 000FF3  
                   start 000E          ___fldiv@new_exp 003C             ___param_bank 000000  
                  ??_ISR 0001            ___fltol@sign1 0054          __end_of___fladd 04D2  
                  ?_main 0001          __end_of___fldiv 0C96          __end_of___flmul 08FC  
        __end_of___flsub 1694          __end_of___fltol 164E                    _T0CON 000FD5  
                  _T1CON 000FCD                    _T3CON 000FB1                    _LATD0 007C60  
                  _LATD1 007C61                    _LATD2 007C62                    _LATD3 007C63  
                  i2l115 0E78                    i2l133 0EFA                    i2l135 0F0C  
                  i2l129 0EC2                    _TRISD 000F95                    _TIntx 00B8  
                  _TInty 00B4                    _vInsx 00CE                    _vInsy 00CA  
                  ttemp5 005D                    ttemp6 0060                    ttemp7 0064  
                  status 000FD8                    wtemp8 005D          __initialization 1694  
           __end_of_main 1394                   ??_main 0056            __activetblptr 000000  
                 i2l2200 0DA6                   i2l2210 0DF8                   i2l2202 0DB4  
                 i2l2220 0E86                   i2l2212 0E2C                   i2l2204 0DC6  
                 i2l2230 0EDA                   i2l2222 0E9E                   i2l2214 0E4A  
                 i2l2206 0DCE                   i2l2232 0EFA                   i2l2224 0EA2  
                 i2l2216 0E52                   i2l2208 0DDC                   i2l2234 0F08  
                 i2l2226 0EC2                   i2l2218 0E70                   i2l2170 0CAE  
                 i2l2228 0ED0                   i2l2180 0CE6                   i2l2172 0CB0  
                 i2l2190 0D34                   i2l2182 0CF0                   i2l2174 0CB8  
                 i2l2192 0D48                   i2l2184 0D02                   i2l2176 0CCC  
                 i2l2168 0CA0                   i2l2194 0D64                   i2l2186 0D06  
                 i2l2178 0CD4                   i2l2196 0D76                   i2l2188 0D22  
                 i2l2198 0D92                   _OSCCON 000FD3                   _TMR0IE 007F95  
                 _TMR0IF 007F92                   _TMR1IE 007CE8                   _TMR1IF 007CF0  
                 _TMR3IE 007D01                   _TMR3IF 007D09                   _TMR0ON 007EAF  
                 _TMR1ON 007E68                   _TMR3ON 007D88         __end_of___xxtofl 1548  
              ??___fladd 000C                ??___fldiv 0033                ??___flmul 001A  
              ??___flsub 004C                ??___fltol 0050                   _deltaT 00DA  
                 _arrayX 0088                   _arrayY 0060                   clear_0 169A  
                 _pasosX 00E6                   _pasosY 00E4                   _pasosZ 00C8  
                 isa$std 000001             ___xxtofl@arg 000E             ___xxtofl@exp 000D  
           ___xxtofl@val 0004               __accesstop 0060  __end_of__initialization 16A8  
          ___rparam_used 000001               ___fltol@f1 004C           __pcstackCOMRAM 0001  
             __pbssBANK0 0060               __pnvCOMRAM 005A                ?___xxtofl 0004  
                __Hparam 0000                  __Lparam 0000                  ___fladd 0012  
                ___fldiv 08FC                  ___flmul 04D2                  ___flsub 164E  
                ___fltol 1548                  __pcinit 1694                  __ramtop 0800  
                __ptext0 117C                  __ptext1 0F18                  __ptext2 1394  
                __ptext3 1548                  __ptext4 164E                  __ptext5 0012  
                __ptext6 04D2                  __ptext7 08FC                  _counter 005A  
             ??___xxtofl 0008           __pintcode_body 0C96     end_of_initialization 16A8  
                int_func 0C96        __end_of_precargas 117C                  postdec2 000FDD  
                postinc0 000FEE                  postinc2 000FDE              ___fladd@grs 0013  
          ___xxtofl@sign 000C              ___fldiv@grs 003E              ___fldiv@rem 0037  
            ___flmul@grs 0020      start_initialization 1694              __end_of_ISR 0F18  
              ___fladd@a 0008                ___fladd@b 0004                ___fldiv@a 002F  
              ___fldiv@b 002B                ___flmul@a 0016                ___flmul@b 0012  
            __pbssCOMRAM 0056                ___flsub@a 0048                ___flsub@b 0044  
          __pcstackBANK0 00F0                __pnvBANK0 00D2                __pintcode 0008  
               ?___fladd 0004                 ?___fldiv 002B                 ?___flmul 0012  
               ?___flsub 0044                 ?___fltol 004C                _counterVC 00BC  
             precargas@i 00F0                 i2u220_40 0CAE                 i2u220_41 0CAA  
               i2u221_40 0CCC                 i2u221_41 0CC8                 i2u230_40 0DC6  
               i2u222_40 0CE6                 i2u230_41 0DC2                 i2u222_41 0CE2  
               i2u231_40 0DDC                 i2u223_40 0D02                 i2u231_41 0DD8  
               i2u223_41 0CFE                 i2u240_40 0F08                 i2u232_40 0DF8  
               i2u224_40 0D22                 i2u240_41 0F04                 i2u232_41 0DF4  
               i2u224_41 0D1E                 i2u233_40 0E4A                 i2u225_40 0D34  
               i2u233_41 0E46                 i2u225_41 0D30                 i2u234_40 0E70  
               i2u226_40 0D64                 i2u234_41 0E6C                 i2u226_41 0D60  
               i2u235_40 0E86                 i2u227_40 0D76                 i2u235_41 0E82  
               i2u227_41 0D72                 i2u236_40 0E9E                 i2u228_40 0D92  
               i2u236_41 0E9A                 i2u228_41 0D8E                 i2u237_40 0EC2  
               i2u229_40 0DB4                 i2u237_41 0EBE                 i2u229_41 0DB0  
               i2u238_40 0ED0                 i2u238_41 0ECC                 i2u239_40 0EFA  
               i2u239_41 0EF6                _precargaX 00C4                _precargaY 00C2  
              _precargas 0F18                 __Hrparam 0000               ?_precargas 0001  
               __Lrparam 0000                 ___xxtofl 1394              _pasosXDados 0058  
            _pasosYDados 0056              _pasosZDados 00C6                 isa$xinst 000000  
               int$flags 005C                 intlevel2 0000              ??_precargas 0056  
          ___fladd@signs 0010             ___fladd@aexp 0011             ___fladd@bexp 0012  
